ARM GAS  /var/folders/bb/dhrb69655gd8t4nf464nxc_00000gn/T//ccJ8l31o.s 			page 1


   1              		.cpu cortex-m4
   2              		.arch armv7e-m
   3              		.fpu fpv4-sp-d16
   4              		.eabi_attribute 27, 1
   5              		.eabi_attribute 28, 1
   6              		.eabi_attribute 20, 1
   7              		.eabi_attribute 21, 1
   8              		.eabi_attribute 23, 3
   9              		.eabi_attribute 24, 1
  10              		.eabi_attribute 25, 1
  11              		.eabi_attribute 26, 1
  12              		.eabi_attribute 30, 6
  13              		.eabi_attribute 34, 1
  14              		.eabi_attribute 18, 4
  15              		.file	"M9N_STM32.cpp"
  16              		.text
  17              	.Ltext0:
  18              		.cfi_sections	.debug_frame
  19              		.section	.rodata._ZStL19piecewise_construct,"a"
  20              		.align	2
  23              	_ZStL19piecewise_construct:
  24 0000 00       		.space	1
  25              		.section	.text._ZL20__gthread_key_deletei,"ax",%progbits
  26              		.align	1
  27              		.syntax unified
  28              		.thumb
  29              		.thumb_func
  31              	_ZL20__gthread_key_deletei:
  32              		.fnstart
  33              	.LFB653:
  34              		.file 1 "/Users/lawrencestanton/Library/Application Support/Code/User/globalStorage/bmd.stm32-for-
   1:/Users/lawrencestanton/Library/Application Support/Code/User/globalStorage/bmd.stm32-for-vscode/@xpack-dev-tools/arm-none-eabi-gcc/10.3.1-2.3.1/.content/arm-none-eabi/include/c++/10.3.1/arm-none-eabi/thumb/v7e-m+fp/hard/bits/gthr-default.h **** /* Threads compatibility routines for libgcc2 and libobjc.  */
   2:/Users/lawrencestanton/Library/Application Support/Code/User/globalStorage/bmd.stm32-for-vscode/@xpack-dev-tools/arm-none-eabi-gcc/10.3.1-2.3.1/.content/arm-none-eabi/include/c++/10.3.1/arm-none-eabi/thumb/v7e-m+fp/hard/bits/gthr-default.h **** /* Compile this one with gcc.  */
   3:/Users/lawrencestanton/Library/Application Support/Code/User/globalStorage/bmd.stm32-for-vscode/@xpack-dev-tools/arm-none-eabi-gcc/10.3.1-2.3.1/.content/arm-none-eabi/include/c++/10.3.1/arm-none-eabi/thumb/v7e-m+fp/hard/bits/gthr-default.h **** /* Copyright (C) 1997-2020 Free Software Foundation, Inc.
   4:/Users/lawrencestanton/Library/Application Support/Code/User/globalStorage/bmd.stm32-for-vscode/@xpack-dev-tools/arm-none-eabi-gcc/10.3.1-2.3.1/.content/arm-none-eabi/include/c++/10.3.1/arm-none-eabi/thumb/v7e-m+fp/hard/bits/gthr-default.h **** 
   5:/Users/lawrencestanton/Library/Application Support/Code/User/globalStorage/bmd.stm32-for-vscode/@xpack-dev-tools/arm-none-eabi-gcc/10.3.1-2.3.1/.content/arm-none-eabi/include/c++/10.3.1/arm-none-eabi/thumb/v7e-m+fp/hard/bits/gthr-default.h **** This file is part of GCC.
   6:/Users/lawrencestanton/Library/Application Support/Code/User/globalStorage/bmd.stm32-for-vscode/@xpack-dev-tools/arm-none-eabi-gcc/10.3.1-2.3.1/.content/arm-none-eabi/include/c++/10.3.1/arm-none-eabi/thumb/v7e-m+fp/hard/bits/gthr-default.h **** 
   7:/Users/lawrencestanton/Library/Application Support/Code/User/globalStorage/bmd.stm32-for-vscode/@xpack-dev-tools/arm-none-eabi-gcc/10.3.1-2.3.1/.content/arm-none-eabi/include/c++/10.3.1/arm-none-eabi/thumb/v7e-m+fp/hard/bits/gthr-default.h **** GCC is free software; you can redistribute it and/or modify it under
   8:/Users/lawrencestanton/Library/Application Support/Code/User/globalStorage/bmd.stm32-for-vscode/@xpack-dev-tools/arm-none-eabi-gcc/10.3.1-2.3.1/.content/arm-none-eabi/include/c++/10.3.1/arm-none-eabi/thumb/v7e-m+fp/hard/bits/gthr-default.h **** the terms of the GNU General Public License as published by the Free
   9:/Users/lawrencestanton/Library/Application Support/Code/User/globalStorage/bmd.stm32-for-vscode/@xpack-dev-tools/arm-none-eabi-gcc/10.3.1-2.3.1/.content/arm-none-eabi/include/c++/10.3.1/arm-none-eabi/thumb/v7e-m+fp/hard/bits/gthr-default.h **** Software Foundation; either version 3, or (at your option) any later
  10:/Users/lawrencestanton/Library/Application Support/Code/User/globalStorage/bmd.stm32-for-vscode/@xpack-dev-tools/arm-none-eabi-gcc/10.3.1-2.3.1/.content/arm-none-eabi/include/c++/10.3.1/arm-none-eabi/thumb/v7e-m+fp/hard/bits/gthr-default.h **** version.
  11:/Users/lawrencestanton/Library/Application Support/Code/User/globalStorage/bmd.stm32-for-vscode/@xpack-dev-tools/arm-none-eabi-gcc/10.3.1-2.3.1/.content/arm-none-eabi/include/c++/10.3.1/arm-none-eabi/thumb/v7e-m+fp/hard/bits/gthr-default.h **** 
  12:/Users/lawrencestanton/Library/Application Support/Code/User/globalStorage/bmd.stm32-for-vscode/@xpack-dev-tools/arm-none-eabi-gcc/10.3.1-2.3.1/.content/arm-none-eabi/include/c++/10.3.1/arm-none-eabi/thumb/v7e-m+fp/hard/bits/gthr-default.h **** GCC is distributed in the hope that it will be useful, but WITHOUT ANY
  13:/Users/lawrencestanton/Library/Application Support/Code/User/globalStorage/bmd.stm32-for-vscode/@xpack-dev-tools/arm-none-eabi-gcc/10.3.1-2.3.1/.content/arm-none-eabi/include/c++/10.3.1/arm-none-eabi/thumb/v7e-m+fp/hard/bits/gthr-default.h **** WARRANTY; without even the implied warranty of MERCHANTABILITY or
  14:/Users/lawrencestanton/Library/Application Support/Code/User/globalStorage/bmd.stm32-for-vscode/@xpack-dev-tools/arm-none-eabi-gcc/10.3.1-2.3.1/.content/arm-none-eabi/include/c++/10.3.1/arm-none-eabi/thumb/v7e-m+fp/hard/bits/gthr-default.h **** FITNESS FOR A PARTICULAR PURPOSE.  See the GNU General Public License
  15:/Users/lawrencestanton/Library/Application Support/Code/User/globalStorage/bmd.stm32-for-vscode/@xpack-dev-tools/arm-none-eabi-gcc/10.3.1-2.3.1/.content/arm-none-eabi/include/c++/10.3.1/arm-none-eabi/thumb/v7e-m+fp/hard/bits/gthr-default.h **** for more details.
  16:/Users/lawrencestanton/Library/Application Support/Code/User/globalStorage/bmd.stm32-for-vscode/@xpack-dev-tools/arm-none-eabi-gcc/10.3.1-2.3.1/.content/arm-none-eabi/include/c++/10.3.1/arm-none-eabi/thumb/v7e-m+fp/hard/bits/gthr-default.h **** 
  17:/Users/lawrencestanton/Library/Application Support/Code/User/globalStorage/bmd.stm32-for-vscode/@xpack-dev-tools/arm-none-eabi-gcc/10.3.1-2.3.1/.content/arm-none-eabi/include/c++/10.3.1/arm-none-eabi/thumb/v7e-m+fp/hard/bits/gthr-default.h **** Under Section 7 of GPL version 3, you are granted additional
  18:/Users/lawrencestanton/Library/Application Support/Code/User/globalStorage/bmd.stm32-for-vscode/@xpack-dev-tools/arm-none-eabi-gcc/10.3.1-2.3.1/.content/arm-none-eabi/include/c++/10.3.1/arm-none-eabi/thumb/v7e-m+fp/hard/bits/gthr-default.h **** permissions described in the GCC Runtime Library Exception, version
  19:/Users/lawrencestanton/Library/Application Support/Code/User/globalStorage/bmd.stm32-for-vscode/@xpack-dev-tools/arm-none-eabi-gcc/10.3.1-2.3.1/.content/arm-none-eabi/include/c++/10.3.1/arm-none-eabi/thumb/v7e-m+fp/hard/bits/gthr-default.h **** 3.1, as published by the Free Software Foundation.
  20:/Users/lawrencestanton/Library/Application Support/Code/User/globalStorage/bmd.stm32-for-vscode/@xpack-dev-tools/arm-none-eabi-gcc/10.3.1-2.3.1/.content/arm-none-eabi/include/c++/10.3.1/arm-none-eabi/thumb/v7e-m+fp/hard/bits/gthr-default.h **** 
  21:/Users/lawrencestanton/Library/Application Support/Code/User/globalStorage/bmd.stm32-for-vscode/@xpack-dev-tools/arm-none-eabi-gcc/10.3.1-2.3.1/.content/arm-none-eabi/include/c++/10.3.1/arm-none-eabi/thumb/v7e-m+fp/hard/bits/gthr-default.h **** You should have received a copy of the GNU General Public License and
  22:/Users/lawrencestanton/Library/Application Support/Code/User/globalStorage/bmd.stm32-for-vscode/@xpack-dev-tools/arm-none-eabi-gcc/10.3.1-2.3.1/.content/arm-none-eabi/include/c++/10.3.1/arm-none-eabi/thumb/v7e-m+fp/hard/bits/gthr-default.h **** a copy of the GCC Runtime Library Exception along with this program;
  23:/Users/lawrencestanton/Library/Application Support/Code/User/globalStorage/bmd.stm32-for-vscode/@xpack-dev-tools/arm-none-eabi-gcc/10.3.1-2.3.1/.content/arm-none-eabi/include/c++/10.3.1/arm-none-eabi/thumb/v7e-m+fp/hard/bits/gthr-default.h **** see the files COPYING3 and COPYING.RUNTIME respectively.  If not, see
  24:/Users/lawrencestanton/Library/Application Support/Code/User/globalStorage/bmd.stm32-for-vscode/@xpack-dev-tools/arm-none-eabi-gcc/10.3.1-2.3.1/.content/arm-none-eabi/include/c++/10.3.1/arm-none-eabi/thumb/v7e-m+fp/hard/bits/gthr-default.h **** <http://www.gnu.org/licenses/>.  */
  25:/Users/lawrencestanton/Library/Application Support/Code/User/globalStorage/bmd.stm32-for-vscode/@xpack-dev-tools/arm-none-eabi-gcc/10.3.1-2.3.1/.content/arm-none-eabi/include/c++/10.3.1/arm-none-eabi/thumb/v7e-m+fp/hard/bits/gthr-default.h **** 
  26:/Users/lawrencestanton/Library/Application Support/Code/User/globalStorage/bmd.stm32-for-vscode/@xpack-dev-tools/arm-none-eabi-gcc/10.3.1-2.3.1/.content/arm-none-eabi/include/c++/10.3.1/arm-none-eabi/thumb/v7e-m+fp/hard/bits/gthr-default.h **** #ifndef _GLIBCXX_GCC_GTHR_SINGLE_H
ARM GAS  /var/folders/bb/dhrb69655gd8t4nf464nxc_00000gn/T//ccJ8l31o.s 			page 2


  27:/Users/lawrencestanton/Library/Application Support/Code/User/globalStorage/bmd.stm32-for-vscode/@xpack-dev-tools/arm-none-eabi-gcc/10.3.1-2.3.1/.content/arm-none-eabi/include/c++/10.3.1/arm-none-eabi/thumb/v7e-m+fp/hard/bits/gthr-default.h **** #define _GLIBCXX_GCC_GTHR_SINGLE_H
  28:/Users/lawrencestanton/Library/Application Support/Code/User/globalStorage/bmd.stm32-for-vscode/@xpack-dev-tools/arm-none-eabi-gcc/10.3.1-2.3.1/.content/arm-none-eabi/include/c++/10.3.1/arm-none-eabi/thumb/v7e-m+fp/hard/bits/gthr-default.h **** 
  29:/Users/lawrencestanton/Library/Application Support/Code/User/globalStorage/bmd.stm32-for-vscode/@xpack-dev-tools/arm-none-eabi-gcc/10.3.1-2.3.1/.content/arm-none-eabi/include/c++/10.3.1/arm-none-eabi/thumb/v7e-m+fp/hard/bits/gthr-default.h **** /* Just provide compatibility for mutex handling.  */
  30:/Users/lawrencestanton/Library/Application Support/Code/User/globalStorage/bmd.stm32-for-vscode/@xpack-dev-tools/arm-none-eabi-gcc/10.3.1-2.3.1/.content/arm-none-eabi/include/c++/10.3.1/arm-none-eabi/thumb/v7e-m+fp/hard/bits/gthr-default.h **** 
  31:/Users/lawrencestanton/Library/Application Support/Code/User/globalStorage/bmd.stm32-for-vscode/@xpack-dev-tools/arm-none-eabi-gcc/10.3.1-2.3.1/.content/arm-none-eabi/include/c++/10.3.1/arm-none-eabi/thumb/v7e-m+fp/hard/bits/gthr-default.h **** typedef int __gthread_key_t;
  32:/Users/lawrencestanton/Library/Application Support/Code/User/globalStorage/bmd.stm32-for-vscode/@xpack-dev-tools/arm-none-eabi-gcc/10.3.1-2.3.1/.content/arm-none-eabi/include/c++/10.3.1/arm-none-eabi/thumb/v7e-m+fp/hard/bits/gthr-default.h **** typedef int __gthread_once_t;
  33:/Users/lawrencestanton/Library/Application Support/Code/User/globalStorage/bmd.stm32-for-vscode/@xpack-dev-tools/arm-none-eabi-gcc/10.3.1-2.3.1/.content/arm-none-eabi/include/c++/10.3.1/arm-none-eabi/thumb/v7e-m+fp/hard/bits/gthr-default.h **** typedef int __gthread_mutex_t;
  34:/Users/lawrencestanton/Library/Application Support/Code/User/globalStorage/bmd.stm32-for-vscode/@xpack-dev-tools/arm-none-eabi-gcc/10.3.1-2.3.1/.content/arm-none-eabi/include/c++/10.3.1/arm-none-eabi/thumb/v7e-m+fp/hard/bits/gthr-default.h **** typedef int __gthread_recursive_mutex_t;
  35:/Users/lawrencestanton/Library/Application Support/Code/User/globalStorage/bmd.stm32-for-vscode/@xpack-dev-tools/arm-none-eabi-gcc/10.3.1-2.3.1/.content/arm-none-eabi/include/c++/10.3.1/arm-none-eabi/thumb/v7e-m+fp/hard/bits/gthr-default.h **** 
  36:/Users/lawrencestanton/Library/Application Support/Code/User/globalStorage/bmd.stm32-for-vscode/@xpack-dev-tools/arm-none-eabi-gcc/10.3.1-2.3.1/.content/arm-none-eabi/include/c++/10.3.1/arm-none-eabi/thumb/v7e-m+fp/hard/bits/gthr-default.h **** #define __GTHREAD_ONCE_INIT 0
  37:/Users/lawrencestanton/Library/Application Support/Code/User/globalStorage/bmd.stm32-for-vscode/@xpack-dev-tools/arm-none-eabi-gcc/10.3.1-2.3.1/.content/arm-none-eabi/include/c++/10.3.1/arm-none-eabi/thumb/v7e-m+fp/hard/bits/gthr-default.h **** #define __GTHREAD_MUTEX_INIT 0
  38:/Users/lawrencestanton/Library/Application Support/Code/User/globalStorage/bmd.stm32-for-vscode/@xpack-dev-tools/arm-none-eabi-gcc/10.3.1-2.3.1/.content/arm-none-eabi/include/c++/10.3.1/arm-none-eabi/thumb/v7e-m+fp/hard/bits/gthr-default.h **** #define __GTHREAD_MUTEX_INIT_FUNCTION(mx) do {} while (0)
  39:/Users/lawrencestanton/Library/Application Support/Code/User/globalStorage/bmd.stm32-for-vscode/@xpack-dev-tools/arm-none-eabi-gcc/10.3.1-2.3.1/.content/arm-none-eabi/include/c++/10.3.1/arm-none-eabi/thumb/v7e-m+fp/hard/bits/gthr-default.h **** #define __GTHREAD_RECURSIVE_MUTEX_INIT 0
  40:/Users/lawrencestanton/Library/Application Support/Code/User/globalStorage/bmd.stm32-for-vscode/@xpack-dev-tools/arm-none-eabi-gcc/10.3.1-2.3.1/.content/arm-none-eabi/include/c++/10.3.1/arm-none-eabi/thumb/v7e-m+fp/hard/bits/gthr-default.h **** 
  41:/Users/lawrencestanton/Library/Application Support/Code/User/globalStorage/bmd.stm32-for-vscode/@xpack-dev-tools/arm-none-eabi-gcc/10.3.1-2.3.1/.content/arm-none-eabi/include/c++/10.3.1/arm-none-eabi/thumb/v7e-m+fp/hard/bits/gthr-default.h **** #define _GLIBCXX_UNUSED __attribute__((__unused__))
  42:/Users/lawrencestanton/Library/Application Support/Code/User/globalStorage/bmd.stm32-for-vscode/@xpack-dev-tools/arm-none-eabi-gcc/10.3.1-2.3.1/.content/arm-none-eabi/include/c++/10.3.1/arm-none-eabi/thumb/v7e-m+fp/hard/bits/gthr-default.h **** 
  43:/Users/lawrencestanton/Library/Application Support/Code/User/globalStorage/bmd.stm32-for-vscode/@xpack-dev-tools/arm-none-eabi-gcc/10.3.1-2.3.1/.content/arm-none-eabi/include/c++/10.3.1/arm-none-eabi/thumb/v7e-m+fp/hard/bits/gthr-default.h **** #ifdef _LIBOBJC
  44:/Users/lawrencestanton/Library/Application Support/Code/User/globalStorage/bmd.stm32-for-vscode/@xpack-dev-tools/arm-none-eabi-gcc/10.3.1-2.3.1/.content/arm-none-eabi/include/c++/10.3.1/arm-none-eabi/thumb/v7e-m+fp/hard/bits/gthr-default.h **** 
  45:/Users/lawrencestanton/Library/Application Support/Code/User/globalStorage/bmd.stm32-for-vscode/@xpack-dev-tools/arm-none-eabi-gcc/10.3.1-2.3.1/.content/arm-none-eabi/include/c++/10.3.1/arm-none-eabi/thumb/v7e-m+fp/hard/bits/gthr-default.h **** /* Thread local storage for a single thread */
  46:/Users/lawrencestanton/Library/Application Support/Code/User/globalStorage/bmd.stm32-for-vscode/@xpack-dev-tools/arm-none-eabi-gcc/10.3.1-2.3.1/.content/arm-none-eabi/include/c++/10.3.1/arm-none-eabi/thumb/v7e-m+fp/hard/bits/gthr-default.h **** static void *thread_local_storage = NULL;
  47:/Users/lawrencestanton/Library/Application Support/Code/User/globalStorage/bmd.stm32-for-vscode/@xpack-dev-tools/arm-none-eabi-gcc/10.3.1-2.3.1/.content/arm-none-eabi/include/c++/10.3.1/arm-none-eabi/thumb/v7e-m+fp/hard/bits/gthr-default.h **** 
  48:/Users/lawrencestanton/Library/Application Support/Code/User/globalStorage/bmd.stm32-for-vscode/@xpack-dev-tools/arm-none-eabi-gcc/10.3.1-2.3.1/.content/arm-none-eabi/include/c++/10.3.1/arm-none-eabi/thumb/v7e-m+fp/hard/bits/gthr-default.h **** /* Backend initialization functions */
  49:/Users/lawrencestanton/Library/Application Support/Code/User/globalStorage/bmd.stm32-for-vscode/@xpack-dev-tools/arm-none-eabi-gcc/10.3.1-2.3.1/.content/arm-none-eabi/include/c++/10.3.1/arm-none-eabi/thumb/v7e-m+fp/hard/bits/gthr-default.h **** 
  50:/Users/lawrencestanton/Library/Application Support/Code/User/globalStorage/bmd.stm32-for-vscode/@xpack-dev-tools/arm-none-eabi-gcc/10.3.1-2.3.1/.content/arm-none-eabi/include/c++/10.3.1/arm-none-eabi/thumb/v7e-m+fp/hard/bits/gthr-default.h **** /* Initialize the threads subsystem.  */
  51:/Users/lawrencestanton/Library/Application Support/Code/User/globalStorage/bmd.stm32-for-vscode/@xpack-dev-tools/arm-none-eabi-gcc/10.3.1-2.3.1/.content/arm-none-eabi/include/c++/10.3.1/arm-none-eabi/thumb/v7e-m+fp/hard/bits/gthr-default.h **** static inline int
  52:/Users/lawrencestanton/Library/Application Support/Code/User/globalStorage/bmd.stm32-for-vscode/@xpack-dev-tools/arm-none-eabi-gcc/10.3.1-2.3.1/.content/arm-none-eabi/include/c++/10.3.1/arm-none-eabi/thumb/v7e-m+fp/hard/bits/gthr-default.h **** __gthread_objc_init_thread_system (void)
  53:/Users/lawrencestanton/Library/Application Support/Code/User/globalStorage/bmd.stm32-for-vscode/@xpack-dev-tools/arm-none-eabi-gcc/10.3.1-2.3.1/.content/arm-none-eabi/include/c++/10.3.1/arm-none-eabi/thumb/v7e-m+fp/hard/bits/gthr-default.h **** {
  54:/Users/lawrencestanton/Library/Application Support/Code/User/globalStorage/bmd.stm32-for-vscode/@xpack-dev-tools/arm-none-eabi-gcc/10.3.1-2.3.1/.content/arm-none-eabi/include/c++/10.3.1/arm-none-eabi/thumb/v7e-m+fp/hard/bits/gthr-default.h ****   /* No thread support available */
  55:/Users/lawrencestanton/Library/Application Support/Code/User/globalStorage/bmd.stm32-for-vscode/@xpack-dev-tools/arm-none-eabi-gcc/10.3.1-2.3.1/.content/arm-none-eabi/include/c++/10.3.1/arm-none-eabi/thumb/v7e-m+fp/hard/bits/gthr-default.h ****   return -1;
  56:/Users/lawrencestanton/Library/Application Support/Code/User/globalStorage/bmd.stm32-for-vscode/@xpack-dev-tools/arm-none-eabi-gcc/10.3.1-2.3.1/.content/arm-none-eabi/include/c++/10.3.1/arm-none-eabi/thumb/v7e-m+fp/hard/bits/gthr-default.h **** }
  57:/Users/lawrencestanton/Library/Application Support/Code/User/globalStorage/bmd.stm32-for-vscode/@xpack-dev-tools/arm-none-eabi-gcc/10.3.1-2.3.1/.content/arm-none-eabi/include/c++/10.3.1/arm-none-eabi/thumb/v7e-m+fp/hard/bits/gthr-default.h **** 
  58:/Users/lawrencestanton/Library/Application Support/Code/User/globalStorage/bmd.stm32-for-vscode/@xpack-dev-tools/arm-none-eabi-gcc/10.3.1-2.3.1/.content/arm-none-eabi/include/c++/10.3.1/arm-none-eabi/thumb/v7e-m+fp/hard/bits/gthr-default.h **** /* Close the threads subsystem.  */
  59:/Users/lawrencestanton/Library/Application Support/Code/User/globalStorage/bmd.stm32-for-vscode/@xpack-dev-tools/arm-none-eabi-gcc/10.3.1-2.3.1/.content/arm-none-eabi/include/c++/10.3.1/arm-none-eabi/thumb/v7e-m+fp/hard/bits/gthr-default.h **** static inline int
  60:/Users/lawrencestanton/Library/Application Support/Code/User/globalStorage/bmd.stm32-for-vscode/@xpack-dev-tools/arm-none-eabi-gcc/10.3.1-2.3.1/.content/arm-none-eabi/include/c++/10.3.1/arm-none-eabi/thumb/v7e-m+fp/hard/bits/gthr-default.h **** __gthread_objc_close_thread_system (void)
  61:/Users/lawrencestanton/Library/Application Support/Code/User/globalStorage/bmd.stm32-for-vscode/@xpack-dev-tools/arm-none-eabi-gcc/10.3.1-2.3.1/.content/arm-none-eabi/include/c++/10.3.1/arm-none-eabi/thumb/v7e-m+fp/hard/bits/gthr-default.h **** {
  62:/Users/lawrencestanton/Library/Application Support/Code/User/globalStorage/bmd.stm32-for-vscode/@xpack-dev-tools/arm-none-eabi-gcc/10.3.1-2.3.1/.content/arm-none-eabi/include/c++/10.3.1/arm-none-eabi/thumb/v7e-m+fp/hard/bits/gthr-default.h ****   /* No thread support available */
  63:/Users/lawrencestanton/Library/Application Support/Code/User/globalStorage/bmd.stm32-for-vscode/@xpack-dev-tools/arm-none-eabi-gcc/10.3.1-2.3.1/.content/arm-none-eabi/include/c++/10.3.1/arm-none-eabi/thumb/v7e-m+fp/hard/bits/gthr-default.h ****   return -1;
  64:/Users/lawrencestanton/Library/Application Support/Code/User/globalStorage/bmd.stm32-for-vscode/@xpack-dev-tools/arm-none-eabi-gcc/10.3.1-2.3.1/.content/arm-none-eabi/include/c++/10.3.1/arm-none-eabi/thumb/v7e-m+fp/hard/bits/gthr-default.h **** }
  65:/Users/lawrencestanton/Library/Application Support/Code/User/globalStorage/bmd.stm32-for-vscode/@xpack-dev-tools/arm-none-eabi-gcc/10.3.1-2.3.1/.content/arm-none-eabi/include/c++/10.3.1/arm-none-eabi/thumb/v7e-m+fp/hard/bits/gthr-default.h **** 
  66:/Users/lawrencestanton/Library/Application Support/Code/User/globalStorage/bmd.stm32-for-vscode/@xpack-dev-tools/arm-none-eabi-gcc/10.3.1-2.3.1/.content/arm-none-eabi/include/c++/10.3.1/arm-none-eabi/thumb/v7e-m+fp/hard/bits/gthr-default.h **** /* Backend thread functions */
  67:/Users/lawrencestanton/Library/Application Support/Code/User/globalStorage/bmd.stm32-for-vscode/@xpack-dev-tools/arm-none-eabi-gcc/10.3.1-2.3.1/.content/arm-none-eabi/include/c++/10.3.1/arm-none-eabi/thumb/v7e-m+fp/hard/bits/gthr-default.h **** 
  68:/Users/lawrencestanton/Library/Application Support/Code/User/globalStorage/bmd.stm32-for-vscode/@xpack-dev-tools/arm-none-eabi-gcc/10.3.1-2.3.1/.content/arm-none-eabi/include/c++/10.3.1/arm-none-eabi/thumb/v7e-m+fp/hard/bits/gthr-default.h **** /* Create a new thread of execution.  */
  69:/Users/lawrencestanton/Library/Application Support/Code/User/globalStorage/bmd.stm32-for-vscode/@xpack-dev-tools/arm-none-eabi-gcc/10.3.1-2.3.1/.content/arm-none-eabi/include/c++/10.3.1/arm-none-eabi/thumb/v7e-m+fp/hard/bits/gthr-default.h **** static inline objc_thread_t
  70:/Users/lawrencestanton/Library/Application Support/Code/User/globalStorage/bmd.stm32-for-vscode/@xpack-dev-tools/arm-none-eabi-gcc/10.3.1-2.3.1/.content/arm-none-eabi/include/c++/10.3.1/arm-none-eabi/thumb/v7e-m+fp/hard/bits/gthr-default.h **** __gthread_objc_thread_detach (void (* func)(void *), void * arg _GLIBCXX_UNUSED)
  71:/Users/lawrencestanton/Library/Application Support/Code/User/globalStorage/bmd.stm32-for-vscode/@xpack-dev-tools/arm-none-eabi-gcc/10.3.1-2.3.1/.content/arm-none-eabi/include/c++/10.3.1/arm-none-eabi/thumb/v7e-m+fp/hard/bits/gthr-default.h **** {
  72:/Users/lawrencestanton/Library/Application Support/Code/User/globalStorage/bmd.stm32-for-vscode/@xpack-dev-tools/arm-none-eabi-gcc/10.3.1-2.3.1/.content/arm-none-eabi/include/c++/10.3.1/arm-none-eabi/thumb/v7e-m+fp/hard/bits/gthr-default.h ****   /* No thread support available */
  73:/Users/lawrencestanton/Library/Application Support/Code/User/globalStorage/bmd.stm32-for-vscode/@xpack-dev-tools/arm-none-eabi-gcc/10.3.1-2.3.1/.content/arm-none-eabi/include/c++/10.3.1/arm-none-eabi/thumb/v7e-m+fp/hard/bits/gthr-default.h ****   return NULL;
  74:/Users/lawrencestanton/Library/Application Support/Code/User/globalStorage/bmd.stm32-for-vscode/@xpack-dev-tools/arm-none-eabi-gcc/10.3.1-2.3.1/.content/arm-none-eabi/include/c++/10.3.1/arm-none-eabi/thumb/v7e-m+fp/hard/bits/gthr-default.h **** }
  75:/Users/lawrencestanton/Library/Application Support/Code/User/globalStorage/bmd.stm32-for-vscode/@xpack-dev-tools/arm-none-eabi-gcc/10.3.1-2.3.1/.content/arm-none-eabi/include/c++/10.3.1/arm-none-eabi/thumb/v7e-m+fp/hard/bits/gthr-default.h **** 
  76:/Users/lawrencestanton/Library/Application Support/Code/User/globalStorage/bmd.stm32-for-vscode/@xpack-dev-tools/arm-none-eabi-gcc/10.3.1-2.3.1/.content/arm-none-eabi/include/c++/10.3.1/arm-none-eabi/thumb/v7e-m+fp/hard/bits/gthr-default.h **** /* Set the current thread's priority.  */
  77:/Users/lawrencestanton/Library/Application Support/Code/User/globalStorage/bmd.stm32-for-vscode/@xpack-dev-tools/arm-none-eabi-gcc/10.3.1-2.3.1/.content/arm-none-eabi/include/c++/10.3.1/arm-none-eabi/thumb/v7e-m+fp/hard/bits/gthr-default.h **** static inline int
  78:/Users/lawrencestanton/Library/Application Support/Code/User/globalStorage/bmd.stm32-for-vscode/@xpack-dev-tools/arm-none-eabi-gcc/10.3.1-2.3.1/.content/arm-none-eabi/include/c++/10.3.1/arm-none-eabi/thumb/v7e-m+fp/hard/bits/gthr-default.h **** __gthread_objc_thread_set_priority (int priority _GLIBCXX_UNUSED)
  79:/Users/lawrencestanton/Library/Application Support/Code/User/globalStorage/bmd.stm32-for-vscode/@xpack-dev-tools/arm-none-eabi-gcc/10.3.1-2.3.1/.content/arm-none-eabi/include/c++/10.3.1/arm-none-eabi/thumb/v7e-m+fp/hard/bits/gthr-default.h **** {
  80:/Users/lawrencestanton/Library/Application Support/Code/User/globalStorage/bmd.stm32-for-vscode/@xpack-dev-tools/arm-none-eabi-gcc/10.3.1-2.3.1/.content/arm-none-eabi/include/c++/10.3.1/arm-none-eabi/thumb/v7e-m+fp/hard/bits/gthr-default.h ****   /* No thread support available */
  81:/Users/lawrencestanton/Library/Application Support/Code/User/globalStorage/bmd.stm32-for-vscode/@xpack-dev-tools/arm-none-eabi-gcc/10.3.1-2.3.1/.content/arm-none-eabi/include/c++/10.3.1/arm-none-eabi/thumb/v7e-m+fp/hard/bits/gthr-default.h ****   return -1;
  82:/Users/lawrencestanton/Library/Application Support/Code/User/globalStorage/bmd.stm32-for-vscode/@xpack-dev-tools/arm-none-eabi-gcc/10.3.1-2.3.1/.content/arm-none-eabi/include/c++/10.3.1/arm-none-eabi/thumb/v7e-m+fp/hard/bits/gthr-default.h **** }
  83:/Users/lawrencestanton/Library/Application Support/Code/User/globalStorage/bmd.stm32-for-vscode/@xpack-dev-tools/arm-none-eabi-gcc/10.3.1-2.3.1/.content/arm-none-eabi/include/c++/10.3.1/arm-none-eabi/thumb/v7e-m+fp/hard/bits/gthr-default.h **** 
ARM GAS  /var/folders/bb/dhrb69655gd8t4nf464nxc_00000gn/T//ccJ8l31o.s 			page 3


  84:/Users/lawrencestanton/Library/Application Support/Code/User/globalStorage/bmd.stm32-for-vscode/@xpack-dev-tools/arm-none-eabi-gcc/10.3.1-2.3.1/.content/arm-none-eabi/include/c++/10.3.1/arm-none-eabi/thumb/v7e-m+fp/hard/bits/gthr-default.h **** /* Return the current thread's priority.  */
  85:/Users/lawrencestanton/Library/Application Support/Code/User/globalStorage/bmd.stm32-for-vscode/@xpack-dev-tools/arm-none-eabi-gcc/10.3.1-2.3.1/.content/arm-none-eabi/include/c++/10.3.1/arm-none-eabi/thumb/v7e-m+fp/hard/bits/gthr-default.h **** static inline int
  86:/Users/lawrencestanton/Library/Application Support/Code/User/globalStorage/bmd.stm32-for-vscode/@xpack-dev-tools/arm-none-eabi-gcc/10.3.1-2.3.1/.content/arm-none-eabi/include/c++/10.3.1/arm-none-eabi/thumb/v7e-m+fp/hard/bits/gthr-default.h **** __gthread_objc_thread_get_priority (void)
  87:/Users/lawrencestanton/Library/Application Support/Code/User/globalStorage/bmd.stm32-for-vscode/@xpack-dev-tools/arm-none-eabi-gcc/10.3.1-2.3.1/.content/arm-none-eabi/include/c++/10.3.1/arm-none-eabi/thumb/v7e-m+fp/hard/bits/gthr-default.h **** {
  88:/Users/lawrencestanton/Library/Application Support/Code/User/globalStorage/bmd.stm32-for-vscode/@xpack-dev-tools/arm-none-eabi-gcc/10.3.1-2.3.1/.content/arm-none-eabi/include/c++/10.3.1/arm-none-eabi/thumb/v7e-m+fp/hard/bits/gthr-default.h ****   return OBJC_THREAD_INTERACTIVE_PRIORITY;
  89:/Users/lawrencestanton/Library/Application Support/Code/User/globalStorage/bmd.stm32-for-vscode/@xpack-dev-tools/arm-none-eabi-gcc/10.3.1-2.3.1/.content/arm-none-eabi/include/c++/10.3.1/arm-none-eabi/thumb/v7e-m+fp/hard/bits/gthr-default.h **** }
  90:/Users/lawrencestanton/Library/Application Support/Code/User/globalStorage/bmd.stm32-for-vscode/@xpack-dev-tools/arm-none-eabi-gcc/10.3.1-2.3.1/.content/arm-none-eabi/include/c++/10.3.1/arm-none-eabi/thumb/v7e-m+fp/hard/bits/gthr-default.h **** 
  91:/Users/lawrencestanton/Library/Application Support/Code/User/globalStorage/bmd.stm32-for-vscode/@xpack-dev-tools/arm-none-eabi-gcc/10.3.1-2.3.1/.content/arm-none-eabi/include/c++/10.3.1/arm-none-eabi/thumb/v7e-m+fp/hard/bits/gthr-default.h **** /* Yield our process time to another thread.  */
  92:/Users/lawrencestanton/Library/Application Support/Code/User/globalStorage/bmd.stm32-for-vscode/@xpack-dev-tools/arm-none-eabi-gcc/10.3.1-2.3.1/.content/arm-none-eabi/include/c++/10.3.1/arm-none-eabi/thumb/v7e-m+fp/hard/bits/gthr-default.h **** static inline void
  93:/Users/lawrencestanton/Library/Application Support/Code/User/globalStorage/bmd.stm32-for-vscode/@xpack-dev-tools/arm-none-eabi-gcc/10.3.1-2.3.1/.content/arm-none-eabi/include/c++/10.3.1/arm-none-eabi/thumb/v7e-m+fp/hard/bits/gthr-default.h **** __gthread_objc_thread_yield (void)
  94:/Users/lawrencestanton/Library/Application Support/Code/User/globalStorage/bmd.stm32-for-vscode/@xpack-dev-tools/arm-none-eabi-gcc/10.3.1-2.3.1/.content/arm-none-eabi/include/c++/10.3.1/arm-none-eabi/thumb/v7e-m+fp/hard/bits/gthr-default.h **** {
  95:/Users/lawrencestanton/Library/Application Support/Code/User/globalStorage/bmd.stm32-for-vscode/@xpack-dev-tools/arm-none-eabi-gcc/10.3.1-2.3.1/.content/arm-none-eabi/include/c++/10.3.1/arm-none-eabi/thumb/v7e-m+fp/hard/bits/gthr-default.h ****   return;
  96:/Users/lawrencestanton/Library/Application Support/Code/User/globalStorage/bmd.stm32-for-vscode/@xpack-dev-tools/arm-none-eabi-gcc/10.3.1-2.3.1/.content/arm-none-eabi/include/c++/10.3.1/arm-none-eabi/thumb/v7e-m+fp/hard/bits/gthr-default.h **** }
  97:/Users/lawrencestanton/Library/Application Support/Code/User/globalStorage/bmd.stm32-for-vscode/@xpack-dev-tools/arm-none-eabi-gcc/10.3.1-2.3.1/.content/arm-none-eabi/include/c++/10.3.1/arm-none-eabi/thumb/v7e-m+fp/hard/bits/gthr-default.h **** 
  98:/Users/lawrencestanton/Library/Application Support/Code/User/globalStorage/bmd.stm32-for-vscode/@xpack-dev-tools/arm-none-eabi-gcc/10.3.1-2.3.1/.content/arm-none-eabi/include/c++/10.3.1/arm-none-eabi/thumb/v7e-m+fp/hard/bits/gthr-default.h **** /* Terminate the current thread.  */
  99:/Users/lawrencestanton/Library/Application Support/Code/User/globalStorage/bmd.stm32-for-vscode/@xpack-dev-tools/arm-none-eabi-gcc/10.3.1-2.3.1/.content/arm-none-eabi/include/c++/10.3.1/arm-none-eabi/thumb/v7e-m+fp/hard/bits/gthr-default.h **** static inline int
 100:/Users/lawrencestanton/Library/Application Support/Code/User/globalStorage/bmd.stm32-for-vscode/@xpack-dev-tools/arm-none-eabi-gcc/10.3.1-2.3.1/.content/arm-none-eabi/include/c++/10.3.1/arm-none-eabi/thumb/v7e-m+fp/hard/bits/gthr-default.h **** __gthread_objc_thread_exit (void)
 101:/Users/lawrencestanton/Library/Application Support/Code/User/globalStorage/bmd.stm32-for-vscode/@xpack-dev-tools/arm-none-eabi-gcc/10.3.1-2.3.1/.content/arm-none-eabi/include/c++/10.3.1/arm-none-eabi/thumb/v7e-m+fp/hard/bits/gthr-default.h **** {
 102:/Users/lawrencestanton/Library/Application Support/Code/User/globalStorage/bmd.stm32-for-vscode/@xpack-dev-tools/arm-none-eabi-gcc/10.3.1-2.3.1/.content/arm-none-eabi/include/c++/10.3.1/arm-none-eabi/thumb/v7e-m+fp/hard/bits/gthr-default.h ****   /* No thread support available */
 103:/Users/lawrencestanton/Library/Application Support/Code/User/globalStorage/bmd.stm32-for-vscode/@xpack-dev-tools/arm-none-eabi-gcc/10.3.1-2.3.1/.content/arm-none-eabi/include/c++/10.3.1/arm-none-eabi/thumb/v7e-m+fp/hard/bits/gthr-default.h ****   /* Should we really exit the program */
 104:/Users/lawrencestanton/Library/Application Support/Code/User/globalStorage/bmd.stm32-for-vscode/@xpack-dev-tools/arm-none-eabi-gcc/10.3.1-2.3.1/.content/arm-none-eabi/include/c++/10.3.1/arm-none-eabi/thumb/v7e-m+fp/hard/bits/gthr-default.h ****   /* exit (&__objc_thread_exit_status); */
 105:/Users/lawrencestanton/Library/Application Support/Code/User/globalStorage/bmd.stm32-for-vscode/@xpack-dev-tools/arm-none-eabi-gcc/10.3.1-2.3.1/.content/arm-none-eabi/include/c++/10.3.1/arm-none-eabi/thumb/v7e-m+fp/hard/bits/gthr-default.h ****   return -1;
 106:/Users/lawrencestanton/Library/Application Support/Code/User/globalStorage/bmd.stm32-for-vscode/@xpack-dev-tools/arm-none-eabi-gcc/10.3.1-2.3.1/.content/arm-none-eabi/include/c++/10.3.1/arm-none-eabi/thumb/v7e-m+fp/hard/bits/gthr-default.h **** }
 107:/Users/lawrencestanton/Library/Application Support/Code/User/globalStorage/bmd.stm32-for-vscode/@xpack-dev-tools/arm-none-eabi-gcc/10.3.1-2.3.1/.content/arm-none-eabi/include/c++/10.3.1/arm-none-eabi/thumb/v7e-m+fp/hard/bits/gthr-default.h **** 
 108:/Users/lawrencestanton/Library/Application Support/Code/User/globalStorage/bmd.stm32-for-vscode/@xpack-dev-tools/arm-none-eabi-gcc/10.3.1-2.3.1/.content/arm-none-eabi/include/c++/10.3.1/arm-none-eabi/thumb/v7e-m+fp/hard/bits/gthr-default.h **** /* Returns an integer value which uniquely describes a thread.  */
 109:/Users/lawrencestanton/Library/Application Support/Code/User/globalStorage/bmd.stm32-for-vscode/@xpack-dev-tools/arm-none-eabi-gcc/10.3.1-2.3.1/.content/arm-none-eabi/include/c++/10.3.1/arm-none-eabi/thumb/v7e-m+fp/hard/bits/gthr-default.h **** static inline objc_thread_t
 110:/Users/lawrencestanton/Library/Application Support/Code/User/globalStorage/bmd.stm32-for-vscode/@xpack-dev-tools/arm-none-eabi-gcc/10.3.1-2.3.1/.content/arm-none-eabi/include/c++/10.3.1/arm-none-eabi/thumb/v7e-m+fp/hard/bits/gthr-default.h **** __gthread_objc_thread_id (void)
 111:/Users/lawrencestanton/Library/Application Support/Code/User/globalStorage/bmd.stm32-for-vscode/@xpack-dev-tools/arm-none-eabi-gcc/10.3.1-2.3.1/.content/arm-none-eabi/include/c++/10.3.1/arm-none-eabi/thumb/v7e-m+fp/hard/bits/gthr-default.h **** {
 112:/Users/lawrencestanton/Library/Application Support/Code/User/globalStorage/bmd.stm32-for-vscode/@xpack-dev-tools/arm-none-eabi-gcc/10.3.1-2.3.1/.content/arm-none-eabi/include/c++/10.3.1/arm-none-eabi/thumb/v7e-m+fp/hard/bits/gthr-default.h ****   /* No thread support, use 1.  */
 113:/Users/lawrencestanton/Library/Application Support/Code/User/globalStorage/bmd.stm32-for-vscode/@xpack-dev-tools/arm-none-eabi-gcc/10.3.1-2.3.1/.content/arm-none-eabi/include/c++/10.3.1/arm-none-eabi/thumb/v7e-m+fp/hard/bits/gthr-default.h ****   return (objc_thread_t) 1;
 114:/Users/lawrencestanton/Library/Application Support/Code/User/globalStorage/bmd.stm32-for-vscode/@xpack-dev-tools/arm-none-eabi-gcc/10.3.1-2.3.1/.content/arm-none-eabi/include/c++/10.3.1/arm-none-eabi/thumb/v7e-m+fp/hard/bits/gthr-default.h **** }
 115:/Users/lawrencestanton/Library/Application Support/Code/User/globalStorage/bmd.stm32-for-vscode/@xpack-dev-tools/arm-none-eabi-gcc/10.3.1-2.3.1/.content/arm-none-eabi/include/c++/10.3.1/arm-none-eabi/thumb/v7e-m+fp/hard/bits/gthr-default.h **** 
 116:/Users/lawrencestanton/Library/Application Support/Code/User/globalStorage/bmd.stm32-for-vscode/@xpack-dev-tools/arm-none-eabi-gcc/10.3.1-2.3.1/.content/arm-none-eabi/include/c++/10.3.1/arm-none-eabi/thumb/v7e-m+fp/hard/bits/gthr-default.h **** /* Sets the thread's local storage pointer.  */
 117:/Users/lawrencestanton/Library/Application Support/Code/User/globalStorage/bmd.stm32-for-vscode/@xpack-dev-tools/arm-none-eabi-gcc/10.3.1-2.3.1/.content/arm-none-eabi/include/c++/10.3.1/arm-none-eabi/thumb/v7e-m+fp/hard/bits/gthr-default.h **** static inline int
 118:/Users/lawrencestanton/Library/Application Support/Code/User/globalStorage/bmd.stm32-for-vscode/@xpack-dev-tools/arm-none-eabi-gcc/10.3.1-2.3.1/.content/arm-none-eabi/include/c++/10.3.1/arm-none-eabi/thumb/v7e-m+fp/hard/bits/gthr-default.h **** __gthread_objc_thread_set_data (void *value)
 119:/Users/lawrencestanton/Library/Application Support/Code/User/globalStorage/bmd.stm32-for-vscode/@xpack-dev-tools/arm-none-eabi-gcc/10.3.1-2.3.1/.content/arm-none-eabi/include/c++/10.3.1/arm-none-eabi/thumb/v7e-m+fp/hard/bits/gthr-default.h **** {
 120:/Users/lawrencestanton/Library/Application Support/Code/User/globalStorage/bmd.stm32-for-vscode/@xpack-dev-tools/arm-none-eabi-gcc/10.3.1-2.3.1/.content/arm-none-eabi/include/c++/10.3.1/arm-none-eabi/thumb/v7e-m+fp/hard/bits/gthr-default.h ****   thread_local_storage = value;
 121:/Users/lawrencestanton/Library/Application Support/Code/User/globalStorage/bmd.stm32-for-vscode/@xpack-dev-tools/arm-none-eabi-gcc/10.3.1-2.3.1/.content/arm-none-eabi/include/c++/10.3.1/arm-none-eabi/thumb/v7e-m+fp/hard/bits/gthr-default.h ****   return 0;
 122:/Users/lawrencestanton/Library/Application Support/Code/User/globalStorage/bmd.stm32-for-vscode/@xpack-dev-tools/arm-none-eabi-gcc/10.3.1-2.3.1/.content/arm-none-eabi/include/c++/10.3.1/arm-none-eabi/thumb/v7e-m+fp/hard/bits/gthr-default.h **** }
 123:/Users/lawrencestanton/Library/Application Support/Code/User/globalStorage/bmd.stm32-for-vscode/@xpack-dev-tools/arm-none-eabi-gcc/10.3.1-2.3.1/.content/arm-none-eabi/include/c++/10.3.1/arm-none-eabi/thumb/v7e-m+fp/hard/bits/gthr-default.h **** 
 124:/Users/lawrencestanton/Library/Application Support/Code/User/globalStorage/bmd.stm32-for-vscode/@xpack-dev-tools/arm-none-eabi-gcc/10.3.1-2.3.1/.content/arm-none-eabi/include/c++/10.3.1/arm-none-eabi/thumb/v7e-m+fp/hard/bits/gthr-default.h **** /* Returns the thread's local storage pointer.  */
 125:/Users/lawrencestanton/Library/Application Support/Code/User/globalStorage/bmd.stm32-for-vscode/@xpack-dev-tools/arm-none-eabi-gcc/10.3.1-2.3.1/.content/arm-none-eabi/include/c++/10.3.1/arm-none-eabi/thumb/v7e-m+fp/hard/bits/gthr-default.h **** static inline void *
 126:/Users/lawrencestanton/Library/Application Support/Code/User/globalStorage/bmd.stm32-for-vscode/@xpack-dev-tools/arm-none-eabi-gcc/10.3.1-2.3.1/.content/arm-none-eabi/include/c++/10.3.1/arm-none-eabi/thumb/v7e-m+fp/hard/bits/gthr-default.h **** __gthread_objc_thread_get_data (void)
 127:/Users/lawrencestanton/Library/Application Support/Code/User/globalStorage/bmd.stm32-for-vscode/@xpack-dev-tools/arm-none-eabi-gcc/10.3.1-2.3.1/.content/arm-none-eabi/include/c++/10.3.1/arm-none-eabi/thumb/v7e-m+fp/hard/bits/gthr-default.h **** {
 128:/Users/lawrencestanton/Library/Application Support/Code/User/globalStorage/bmd.stm32-for-vscode/@xpack-dev-tools/arm-none-eabi-gcc/10.3.1-2.3.1/.content/arm-none-eabi/include/c++/10.3.1/arm-none-eabi/thumb/v7e-m+fp/hard/bits/gthr-default.h ****   return thread_local_storage;
 129:/Users/lawrencestanton/Library/Application Support/Code/User/globalStorage/bmd.stm32-for-vscode/@xpack-dev-tools/arm-none-eabi-gcc/10.3.1-2.3.1/.content/arm-none-eabi/include/c++/10.3.1/arm-none-eabi/thumb/v7e-m+fp/hard/bits/gthr-default.h **** }
 130:/Users/lawrencestanton/Library/Application Support/Code/User/globalStorage/bmd.stm32-for-vscode/@xpack-dev-tools/arm-none-eabi-gcc/10.3.1-2.3.1/.content/arm-none-eabi/include/c++/10.3.1/arm-none-eabi/thumb/v7e-m+fp/hard/bits/gthr-default.h **** 
 131:/Users/lawrencestanton/Library/Application Support/Code/User/globalStorage/bmd.stm32-for-vscode/@xpack-dev-tools/arm-none-eabi-gcc/10.3.1-2.3.1/.content/arm-none-eabi/include/c++/10.3.1/arm-none-eabi/thumb/v7e-m+fp/hard/bits/gthr-default.h **** /* Backend mutex functions */
 132:/Users/lawrencestanton/Library/Application Support/Code/User/globalStorage/bmd.stm32-for-vscode/@xpack-dev-tools/arm-none-eabi-gcc/10.3.1-2.3.1/.content/arm-none-eabi/include/c++/10.3.1/arm-none-eabi/thumb/v7e-m+fp/hard/bits/gthr-default.h **** 
 133:/Users/lawrencestanton/Library/Application Support/Code/User/globalStorage/bmd.stm32-for-vscode/@xpack-dev-tools/arm-none-eabi-gcc/10.3.1-2.3.1/.content/arm-none-eabi/include/c++/10.3.1/arm-none-eabi/thumb/v7e-m+fp/hard/bits/gthr-default.h **** /* Allocate a mutex.  */
 134:/Users/lawrencestanton/Library/Application Support/Code/User/globalStorage/bmd.stm32-for-vscode/@xpack-dev-tools/arm-none-eabi-gcc/10.3.1-2.3.1/.content/arm-none-eabi/include/c++/10.3.1/arm-none-eabi/thumb/v7e-m+fp/hard/bits/gthr-default.h **** static inline int
 135:/Users/lawrencestanton/Library/Application Support/Code/User/globalStorage/bmd.stm32-for-vscode/@xpack-dev-tools/arm-none-eabi-gcc/10.3.1-2.3.1/.content/arm-none-eabi/include/c++/10.3.1/arm-none-eabi/thumb/v7e-m+fp/hard/bits/gthr-default.h **** __gthread_objc_mutex_allocate (objc_mutex_t mutex _GLIBCXX_UNUSED)
 136:/Users/lawrencestanton/Library/Application Support/Code/User/globalStorage/bmd.stm32-for-vscode/@xpack-dev-tools/arm-none-eabi-gcc/10.3.1-2.3.1/.content/arm-none-eabi/include/c++/10.3.1/arm-none-eabi/thumb/v7e-m+fp/hard/bits/gthr-default.h **** {
 137:/Users/lawrencestanton/Library/Application Support/Code/User/globalStorage/bmd.stm32-for-vscode/@xpack-dev-tools/arm-none-eabi-gcc/10.3.1-2.3.1/.content/arm-none-eabi/include/c++/10.3.1/arm-none-eabi/thumb/v7e-m+fp/hard/bits/gthr-default.h ****   return 0;
 138:/Users/lawrencestanton/Library/Application Support/Code/User/globalStorage/bmd.stm32-for-vscode/@xpack-dev-tools/arm-none-eabi-gcc/10.3.1-2.3.1/.content/arm-none-eabi/include/c++/10.3.1/arm-none-eabi/thumb/v7e-m+fp/hard/bits/gthr-default.h **** }
 139:/Users/lawrencestanton/Library/Application Support/Code/User/globalStorage/bmd.stm32-for-vscode/@xpack-dev-tools/arm-none-eabi-gcc/10.3.1-2.3.1/.content/arm-none-eabi/include/c++/10.3.1/arm-none-eabi/thumb/v7e-m+fp/hard/bits/gthr-default.h **** 
 140:/Users/lawrencestanton/Library/Application Support/Code/User/globalStorage/bmd.stm32-for-vscode/@xpack-dev-tools/arm-none-eabi-gcc/10.3.1-2.3.1/.content/arm-none-eabi/include/c++/10.3.1/arm-none-eabi/thumb/v7e-m+fp/hard/bits/gthr-default.h **** /* Deallocate a mutex.  */
ARM GAS  /var/folders/bb/dhrb69655gd8t4nf464nxc_00000gn/T//ccJ8l31o.s 			page 4


 141:/Users/lawrencestanton/Library/Application Support/Code/User/globalStorage/bmd.stm32-for-vscode/@xpack-dev-tools/arm-none-eabi-gcc/10.3.1-2.3.1/.content/arm-none-eabi/include/c++/10.3.1/arm-none-eabi/thumb/v7e-m+fp/hard/bits/gthr-default.h **** static inline int
 142:/Users/lawrencestanton/Library/Application Support/Code/User/globalStorage/bmd.stm32-for-vscode/@xpack-dev-tools/arm-none-eabi-gcc/10.3.1-2.3.1/.content/arm-none-eabi/include/c++/10.3.1/arm-none-eabi/thumb/v7e-m+fp/hard/bits/gthr-default.h **** __gthread_objc_mutex_deallocate (objc_mutex_t mutex _GLIBCXX_UNUSED)
 143:/Users/lawrencestanton/Library/Application Support/Code/User/globalStorage/bmd.stm32-for-vscode/@xpack-dev-tools/arm-none-eabi-gcc/10.3.1-2.3.1/.content/arm-none-eabi/include/c++/10.3.1/arm-none-eabi/thumb/v7e-m+fp/hard/bits/gthr-default.h **** {
 144:/Users/lawrencestanton/Library/Application Support/Code/User/globalStorage/bmd.stm32-for-vscode/@xpack-dev-tools/arm-none-eabi-gcc/10.3.1-2.3.1/.content/arm-none-eabi/include/c++/10.3.1/arm-none-eabi/thumb/v7e-m+fp/hard/bits/gthr-default.h ****   return 0;
 145:/Users/lawrencestanton/Library/Application Support/Code/User/globalStorage/bmd.stm32-for-vscode/@xpack-dev-tools/arm-none-eabi-gcc/10.3.1-2.3.1/.content/arm-none-eabi/include/c++/10.3.1/arm-none-eabi/thumb/v7e-m+fp/hard/bits/gthr-default.h **** }
 146:/Users/lawrencestanton/Library/Application Support/Code/User/globalStorage/bmd.stm32-for-vscode/@xpack-dev-tools/arm-none-eabi-gcc/10.3.1-2.3.1/.content/arm-none-eabi/include/c++/10.3.1/arm-none-eabi/thumb/v7e-m+fp/hard/bits/gthr-default.h **** 
 147:/Users/lawrencestanton/Library/Application Support/Code/User/globalStorage/bmd.stm32-for-vscode/@xpack-dev-tools/arm-none-eabi-gcc/10.3.1-2.3.1/.content/arm-none-eabi/include/c++/10.3.1/arm-none-eabi/thumb/v7e-m+fp/hard/bits/gthr-default.h **** /* Grab a lock on a mutex.  */
 148:/Users/lawrencestanton/Library/Application Support/Code/User/globalStorage/bmd.stm32-for-vscode/@xpack-dev-tools/arm-none-eabi-gcc/10.3.1-2.3.1/.content/arm-none-eabi/include/c++/10.3.1/arm-none-eabi/thumb/v7e-m+fp/hard/bits/gthr-default.h **** static inline int
 149:/Users/lawrencestanton/Library/Application Support/Code/User/globalStorage/bmd.stm32-for-vscode/@xpack-dev-tools/arm-none-eabi-gcc/10.3.1-2.3.1/.content/arm-none-eabi/include/c++/10.3.1/arm-none-eabi/thumb/v7e-m+fp/hard/bits/gthr-default.h **** __gthread_objc_mutex_lock (objc_mutex_t mutex _GLIBCXX_UNUSED)
 150:/Users/lawrencestanton/Library/Application Support/Code/User/globalStorage/bmd.stm32-for-vscode/@xpack-dev-tools/arm-none-eabi-gcc/10.3.1-2.3.1/.content/arm-none-eabi/include/c++/10.3.1/arm-none-eabi/thumb/v7e-m+fp/hard/bits/gthr-default.h **** {
 151:/Users/lawrencestanton/Library/Application Support/Code/User/globalStorage/bmd.stm32-for-vscode/@xpack-dev-tools/arm-none-eabi-gcc/10.3.1-2.3.1/.content/arm-none-eabi/include/c++/10.3.1/arm-none-eabi/thumb/v7e-m+fp/hard/bits/gthr-default.h ****   /* There can only be one thread, so we always get the lock */
 152:/Users/lawrencestanton/Library/Application Support/Code/User/globalStorage/bmd.stm32-for-vscode/@xpack-dev-tools/arm-none-eabi-gcc/10.3.1-2.3.1/.content/arm-none-eabi/include/c++/10.3.1/arm-none-eabi/thumb/v7e-m+fp/hard/bits/gthr-default.h ****   return 0;
 153:/Users/lawrencestanton/Library/Application Support/Code/User/globalStorage/bmd.stm32-for-vscode/@xpack-dev-tools/arm-none-eabi-gcc/10.3.1-2.3.1/.content/arm-none-eabi/include/c++/10.3.1/arm-none-eabi/thumb/v7e-m+fp/hard/bits/gthr-default.h **** }
 154:/Users/lawrencestanton/Library/Application Support/Code/User/globalStorage/bmd.stm32-for-vscode/@xpack-dev-tools/arm-none-eabi-gcc/10.3.1-2.3.1/.content/arm-none-eabi/include/c++/10.3.1/arm-none-eabi/thumb/v7e-m+fp/hard/bits/gthr-default.h **** 
 155:/Users/lawrencestanton/Library/Application Support/Code/User/globalStorage/bmd.stm32-for-vscode/@xpack-dev-tools/arm-none-eabi-gcc/10.3.1-2.3.1/.content/arm-none-eabi/include/c++/10.3.1/arm-none-eabi/thumb/v7e-m+fp/hard/bits/gthr-default.h **** /* Try to grab a lock on a mutex.  */
 156:/Users/lawrencestanton/Library/Application Support/Code/User/globalStorage/bmd.stm32-for-vscode/@xpack-dev-tools/arm-none-eabi-gcc/10.3.1-2.3.1/.content/arm-none-eabi/include/c++/10.3.1/arm-none-eabi/thumb/v7e-m+fp/hard/bits/gthr-default.h **** static inline int
 157:/Users/lawrencestanton/Library/Application Support/Code/User/globalStorage/bmd.stm32-for-vscode/@xpack-dev-tools/arm-none-eabi-gcc/10.3.1-2.3.1/.content/arm-none-eabi/include/c++/10.3.1/arm-none-eabi/thumb/v7e-m+fp/hard/bits/gthr-default.h **** __gthread_objc_mutex_trylock (objc_mutex_t mutex _GLIBCXX_UNUSED)
 158:/Users/lawrencestanton/Library/Application Support/Code/User/globalStorage/bmd.stm32-for-vscode/@xpack-dev-tools/arm-none-eabi-gcc/10.3.1-2.3.1/.content/arm-none-eabi/include/c++/10.3.1/arm-none-eabi/thumb/v7e-m+fp/hard/bits/gthr-default.h **** {
 159:/Users/lawrencestanton/Library/Application Support/Code/User/globalStorage/bmd.stm32-for-vscode/@xpack-dev-tools/arm-none-eabi-gcc/10.3.1-2.3.1/.content/arm-none-eabi/include/c++/10.3.1/arm-none-eabi/thumb/v7e-m+fp/hard/bits/gthr-default.h ****   /* There can only be one thread, so we always get the lock */
 160:/Users/lawrencestanton/Library/Application Support/Code/User/globalStorage/bmd.stm32-for-vscode/@xpack-dev-tools/arm-none-eabi-gcc/10.3.1-2.3.1/.content/arm-none-eabi/include/c++/10.3.1/arm-none-eabi/thumb/v7e-m+fp/hard/bits/gthr-default.h ****   return 0;
 161:/Users/lawrencestanton/Library/Application Support/Code/User/globalStorage/bmd.stm32-for-vscode/@xpack-dev-tools/arm-none-eabi-gcc/10.3.1-2.3.1/.content/arm-none-eabi/include/c++/10.3.1/arm-none-eabi/thumb/v7e-m+fp/hard/bits/gthr-default.h **** }
 162:/Users/lawrencestanton/Library/Application Support/Code/User/globalStorage/bmd.stm32-for-vscode/@xpack-dev-tools/arm-none-eabi-gcc/10.3.1-2.3.1/.content/arm-none-eabi/include/c++/10.3.1/arm-none-eabi/thumb/v7e-m+fp/hard/bits/gthr-default.h **** 
 163:/Users/lawrencestanton/Library/Application Support/Code/User/globalStorage/bmd.stm32-for-vscode/@xpack-dev-tools/arm-none-eabi-gcc/10.3.1-2.3.1/.content/arm-none-eabi/include/c++/10.3.1/arm-none-eabi/thumb/v7e-m+fp/hard/bits/gthr-default.h **** /* Unlock the mutex */
 164:/Users/lawrencestanton/Library/Application Support/Code/User/globalStorage/bmd.stm32-for-vscode/@xpack-dev-tools/arm-none-eabi-gcc/10.3.1-2.3.1/.content/arm-none-eabi/include/c++/10.3.1/arm-none-eabi/thumb/v7e-m+fp/hard/bits/gthr-default.h **** static inline int
 165:/Users/lawrencestanton/Library/Application Support/Code/User/globalStorage/bmd.stm32-for-vscode/@xpack-dev-tools/arm-none-eabi-gcc/10.3.1-2.3.1/.content/arm-none-eabi/include/c++/10.3.1/arm-none-eabi/thumb/v7e-m+fp/hard/bits/gthr-default.h **** __gthread_objc_mutex_unlock (objc_mutex_t mutex _GLIBCXX_UNUSED)
 166:/Users/lawrencestanton/Library/Application Support/Code/User/globalStorage/bmd.stm32-for-vscode/@xpack-dev-tools/arm-none-eabi-gcc/10.3.1-2.3.1/.content/arm-none-eabi/include/c++/10.3.1/arm-none-eabi/thumb/v7e-m+fp/hard/bits/gthr-default.h **** {
 167:/Users/lawrencestanton/Library/Application Support/Code/User/globalStorage/bmd.stm32-for-vscode/@xpack-dev-tools/arm-none-eabi-gcc/10.3.1-2.3.1/.content/arm-none-eabi/include/c++/10.3.1/arm-none-eabi/thumb/v7e-m+fp/hard/bits/gthr-default.h ****   return 0;
 168:/Users/lawrencestanton/Library/Application Support/Code/User/globalStorage/bmd.stm32-for-vscode/@xpack-dev-tools/arm-none-eabi-gcc/10.3.1-2.3.1/.content/arm-none-eabi/include/c++/10.3.1/arm-none-eabi/thumb/v7e-m+fp/hard/bits/gthr-default.h **** }
 169:/Users/lawrencestanton/Library/Application Support/Code/User/globalStorage/bmd.stm32-for-vscode/@xpack-dev-tools/arm-none-eabi-gcc/10.3.1-2.3.1/.content/arm-none-eabi/include/c++/10.3.1/arm-none-eabi/thumb/v7e-m+fp/hard/bits/gthr-default.h **** 
 170:/Users/lawrencestanton/Library/Application Support/Code/User/globalStorage/bmd.stm32-for-vscode/@xpack-dev-tools/arm-none-eabi-gcc/10.3.1-2.3.1/.content/arm-none-eabi/include/c++/10.3.1/arm-none-eabi/thumb/v7e-m+fp/hard/bits/gthr-default.h **** /* Backend condition mutex functions */
 171:/Users/lawrencestanton/Library/Application Support/Code/User/globalStorage/bmd.stm32-for-vscode/@xpack-dev-tools/arm-none-eabi-gcc/10.3.1-2.3.1/.content/arm-none-eabi/include/c++/10.3.1/arm-none-eabi/thumb/v7e-m+fp/hard/bits/gthr-default.h **** 
 172:/Users/lawrencestanton/Library/Application Support/Code/User/globalStorage/bmd.stm32-for-vscode/@xpack-dev-tools/arm-none-eabi-gcc/10.3.1-2.3.1/.content/arm-none-eabi/include/c++/10.3.1/arm-none-eabi/thumb/v7e-m+fp/hard/bits/gthr-default.h **** /* Allocate a condition.  */
 173:/Users/lawrencestanton/Library/Application Support/Code/User/globalStorage/bmd.stm32-for-vscode/@xpack-dev-tools/arm-none-eabi-gcc/10.3.1-2.3.1/.content/arm-none-eabi/include/c++/10.3.1/arm-none-eabi/thumb/v7e-m+fp/hard/bits/gthr-default.h **** static inline int
 174:/Users/lawrencestanton/Library/Application Support/Code/User/globalStorage/bmd.stm32-for-vscode/@xpack-dev-tools/arm-none-eabi-gcc/10.3.1-2.3.1/.content/arm-none-eabi/include/c++/10.3.1/arm-none-eabi/thumb/v7e-m+fp/hard/bits/gthr-default.h **** __gthread_objc_condition_allocate (objc_condition_t condition _GLIBCXX_UNUSED)
 175:/Users/lawrencestanton/Library/Application Support/Code/User/globalStorage/bmd.stm32-for-vscode/@xpack-dev-tools/arm-none-eabi-gcc/10.3.1-2.3.1/.content/arm-none-eabi/include/c++/10.3.1/arm-none-eabi/thumb/v7e-m+fp/hard/bits/gthr-default.h **** {
 176:/Users/lawrencestanton/Library/Application Support/Code/User/globalStorage/bmd.stm32-for-vscode/@xpack-dev-tools/arm-none-eabi-gcc/10.3.1-2.3.1/.content/arm-none-eabi/include/c++/10.3.1/arm-none-eabi/thumb/v7e-m+fp/hard/bits/gthr-default.h ****   return 0;
 177:/Users/lawrencestanton/Library/Application Support/Code/User/globalStorage/bmd.stm32-for-vscode/@xpack-dev-tools/arm-none-eabi-gcc/10.3.1-2.3.1/.content/arm-none-eabi/include/c++/10.3.1/arm-none-eabi/thumb/v7e-m+fp/hard/bits/gthr-default.h **** }
 178:/Users/lawrencestanton/Library/Application Support/Code/User/globalStorage/bmd.stm32-for-vscode/@xpack-dev-tools/arm-none-eabi-gcc/10.3.1-2.3.1/.content/arm-none-eabi/include/c++/10.3.1/arm-none-eabi/thumb/v7e-m+fp/hard/bits/gthr-default.h **** 
 179:/Users/lawrencestanton/Library/Application Support/Code/User/globalStorage/bmd.stm32-for-vscode/@xpack-dev-tools/arm-none-eabi-gcc/10.3.1-2.3.1/.content/arm-none-eabi/include/c++/10.3.1/arm-none-eabi/thumb/v7e-m+fp/hard/bits/gthr-default.h **** /* Deallocate a condition.  */
 180:/Users/lawrencestanton/Library/Application Support/Code/User/globalStorage/bmd.stm32-for-vscode/@xpack-dev-tools/arm-none-eabi-gcc/10.3.1-2.3.1/.content/arm-none-eabi/include/c++/10.3.1/arm-none-eabi/thumb/v7e-m+fp/hard/bits/gthr-default.h **** static inline int
 181:/Users/lawrencestanton/Library/Application Support/Code/User/globalStorage/bmd.stm32-for-vscode/@xpack-dev-tools/arm-none-eabi-gcc/10.3.1-2.3.1/.content/arm-none-eabi/include/c++/10.3.1/arm-none-eabi/thumb/v7e-m+fp/hard/bits/gthr-default.h **** __gthread_objc_condition_deallocate (objc_condition_t condition _GLIBCXX_UNUSED)
 182:/Users/lawrencestanton/Library/Application Support/Code/User/globalStorage/bmd.stm32-for-vscode/@xpack-dev-tools/arm-none-eabi-gcc/10.3.1-2.3.1/.content/arm-none-eabi/include/c++/10.3.1/arm-none-eabi/thumb/v7e-m+fp/hard/bits/gthr-default.h **** {
 183:/Users/lawrencestanton/Library/Application Support/Code/User/globalStorage/bmd.stm32-for-vscode/@xpack-dev-tools/arm-none-eabi-gcc/10.3.1-2.3.1/.content/arm-none-eabi/include/c++/10.3.1/arm-none-eabi/thumb/v7e-m+fp/hard/bits/gthr-default.h ****   return 0;
 184:/Users/lawrencestanton/Library/Application Support/Code/User/globalStorage/bmd.stm32-for-vscode/@xpack-dev-tools/arm-none-eabi-gcc/10.3.1-2.3.1/.content/arm-none-eabi/include/c++/10.3.1/arm-none-eabi/thumb/v7e-m+fp/hard/bits/gthr-default.h **** }
 185:/Users/lawrencestanton/Library/Application Support/Code/User/globalStorage/bmd.stm32-for-vscode/@xpack-dev-tools/arm-none-eabi-gcc/10.3.1-2.3.1/.content/arm-none-eabi/include/c++/10.3.1/arm-none-eabi/thumb/v7e-m+fp/hard/bits/gthr-default.h **** 
 186:/Users/lawrencestanton/Library/Application Support/Code/User/globalStorage/bmd.stm32-for-vscode/@xpack-dev-tools/arm-none-eabi-gcc/10.3.1-2.3.1/.content/arm-none-eabi/include/c++/10.3.1/arm-none-eabi/thumb/v7e-m+fp/hard/bits/gthr-default.h **** /* Wait on the condition */
 187:/Users/lawrencestanton/Library/Application Support/Code/User/globalStorage/bmd.stm32-for-vscode/@xpack-dev-tools/arm-none-eabi-gcc/10.3.1-2.3.1/.content/arm-none-eabi/include/c++/10.3.1/arm-none-eabi/thumb/v7e-m+fp/hard/bits/gthr-default.h **** static inline int
 188:/Users/lawrencestanton/Library/Application Support/Code/User/globalStorage/bmd.stm32-for-vscode/@xpack-dev-tools/arm-none-eabi-gcc/10.3.1-2.3.1/.content/arm-none-eabi/include/c++/10.3.1/arm-none-eabi/thumb/v7e-m+fp/hard/bits/gthr-default.h **** __gthread_objc_condition_wait (objc_condition_t condition _GLIBCXX_UNUSED,
 189:/Users/lawrencestanton/Library/Application Support/Code/User/globalStorage/bmd.stm32-for-vscode/@xpack-dev-tools/arm-none-eabi-gcc/10.3.1-2.3.1/.content/arm-none-eabi/include/c++/10.3.1/arm-none-eabi/thumb/v7e-m+fp/hard/bits/gthr-default.h **** 			       objc_mutex_t mutex _GLIBCXX_UNUSED)
 190:/Users/lawrencestanton/Library/Application Support/Code/User/globalStorage/bmd.stm32-for-vscode/@xpack-dev-tools/arm-none-eabi-gcc/10.3.1-2.3.1/.content/arm-none-eabi/include/c++/10.3.1/arm-none-eabi/thumb/v7e-m+fp/hard/bits/gthr-default.h **** {
 191:/Users/lawrencestanton/Library/Application Support/Code/User/globalStorage/bmd.stm32-for-vscode/@xpack-dev-tools/arm-none-eabi-gcc/10.3.1-2.3.1/.content/arm-none-eabi/include/c++/10.3.1/arm-none-eabi/thumb/v7e-m+fp/hard/bits/gthr-default.h ****   return 0;
 192:/Users/lawrencestanton/Library/Application Support/Code/User/globalStorage/bmd.stm32-for-vscode/@xpack-dev-tools/arm-none-eabi-gcc/10.3.1-2.3.1/.content/arm-none-eabi/include/c++/10.3.1/arm-none-eabi/thumb/v7e-m+fp/hard/bits/gthr-default.h **** }
 193:/Users/lawrencestanton/Library/Application Support/Code/User/globalStorage/bmd.stm32-for-vscode/@xpack-dev-tools/arm-none-eabi-gcc/10.3.1-2.3.1/.content/arm-none-eabi/include/c++/10.3.1/arm-none-eabi/thumb/v7e-m+fp/hard/bits/gthr-default.h **** 
 194:/Users/lawrencestanton/Library/Application Support/Code/User/globalStorage/bmd.stm32-for-vscode/@xpack-dev-tools/arm-none-eabi-gcc/10.3.1-2.3.1/.content/arm-none-eabi/include/c++/10.3.1/arm-none-eabi/thumb/v7e-m+fp/hard/bits/gthr-default.h **** /* Wake up all threads waiting on this condition.  */
 195:/Users/lawrencestanton/Library/Application Support/Code/User/globalStorage/bmd.stm32-for-vscode/@xpack-dev-tools/arm-none-eabi-gcc/10.3.1-2.3.1/.content/arm-none-eabi/include/c++/10.3.1/arm-none-eabi/thumb/v7e-m+fp/hard/bits/gthr-default.h **** static inline int
 196:/Users/lawrencestanton/Library/Application Support/Code/User/globalStorage/bmd.stm32-for-vscode/@xpack-dev-tools/arm-none-eabi-gcc/10.3.1-2.3.1/.content/arm-none-eabi/include/c++/10.3.1/arm-none-eabi/thumb/v7e-m+fp/hard/bits/gthr-default.h **** __gthread_objc_condition_broadcast (objc_condition_t condition _GLIBCXX_UNUSED)
 197:/Users/lawrencestanton/Library/Application Support/Code/User/globalStorage/bmd.stm32-for-vscode/@xpack-dev-tools/arm-none-eabi-gcc/10.3.1-2.3.1/.content/arm-none-eabi/include/c++/10.3.1/arm-none-eabi/thumb/v7e-m+fp/hard/bits/gthr-default.h **** {
ARM GAS  /var/folders/bb/dhrb69655gd8t4nf464nxc_00000gn/T//ccJ8l31o.s 			page 5


 198:/Users/lawrencestanton/Library/Application Support/Code/User/globalStorage/bmd.stm32-for-vscode/@xpack-dev-tools/arm-none-eabi-gcc/10.3.1-2.3.1/.content/arm-none-eabi/include/c++/10.3.1/arm-none-eabi/thumb/v7e-m+fp/hard/bits/gthr-default.h ****   return 0;
 199:/Users/lawrencestanton/Library/Application Support/Code/User/globalStorage/bmd.stm32-for-vscode/@xpack-dev-tools/arm-none-eabi-gcc/10.3.1-2.3.1/.content/arm-none-eabi/include/c++/10.3.1/arm-none-eabi/thumb/v7e-m+fp/hard/bits/gthr-default.h **** }
 200:/Users/lawrencestanton/Library/Application Support/Code/User/globalStorage/bmd.stm32-for-vscode/@xpack-dev-tools/arm-none-eabi-gcc/10.3.1-2.3.1/.content/arm-none-eabi/include/c++/10.3.1/arm-none-eabi/thumb/v7e-m+fp/hard/bits/gthr-default.h **** 
 201:/Users/lawrencestanton/Library/Application Support/Code/User/globalStorage/bmd.stm32-for-vscode/@xpack-dev-tools/arm-none-eabi-gcc/10.3.1-2.3.1/.content/arm-none-eabi/include/c++/10.3.1/arm-none-eabi/thumb/v7e-m+fp/hard/bits/gthr-default.h **** /* Wake up one thread waiting on this condition.  */
 202:/Users/lawrencestanton/Library/Application Support/Code/User/globalStorage/bmd.stm32-for-vscode/@xpack-dev-tools/arm-none-eabi-gcc/10.3.1-2.3.1/.content/arm-none-eabi/include/c++/10.3.1/arm-none-eabi/thumb/v7e-m+fp/hard/bits/gthr-default.h **** static inline int
 203:/Users/lawrencestanton/Library/Application Support/Code/User/globalStorage/bmd.stm32-for-vscode/@xpack-dev-tools/arm-none-eabi-gcc/10.3.1-2.3.1/.content/arm-none-eabi/include/c++/10.3.1/arm-none-eabi/thumb/v7e-m+fp/hard/bits/gthr-default.h **** __gthread_objc_condition_signal (objc_condition_t condition _GLIBCXX_UNUSED)
 204:/Users/lawrencestanton/Library/Application Support/Code/User/globalStorage/bmd.stm32-for-vscode/@xpack-dev-tools/arm-none-eabi-gcc/10.3.1-2.3.1/.content/arm-none-eabi/include/c++/10.3.1/arm-none-eabi/thumb/v7e-m+fp/hard/bits/gthr-default.h **** {
 205:/Users/lawrencestanton/Library/Application Support/Code/User/globalStorage/bmd.stm32-for-vscode/@xpack-dev-tools/arm-none-eabi-gcc/10.3.1-2.3.1/.content/arm-none-eabi/include/c++/10.3.1/arm-none-eabi/thumb/v7e-m+fp/hard/bits/gthr-default.h ****   return 0;
 206:/Users/lawrencestanton/Library/Application Support/Code/User/globalStorage/bmd.stm32-for-vscode/@xpack-dev-tools/arm-none-eabi-gcc/10.3.1-2.3.1/.content/arm-none-eabi/include/c++/10.3.1/arm-none-eabi/thumb/v7e-m+fp/hard/bits/gthr-default.h **** }
 207:/Users/lawrencestanton/Library/Application Support/Code/User/globalStorage/bmd.stm32-for-vscode/@xpack-dev-tools/arm-none-eabi-gcc/10.3.1-2.3.1/.content/arm-none-eabi/include/c++/10.3.1/arm-none-eabi/thumb/v7e-m+fp/hard/bits/gthr-default.h **** 
 208:/Users/lawrencestanton/Library/Application Support/Code/User/globalStorage/bmd.stm32-for-vscode/@xpack-dev-tools/arm-none-eabi-gcc/10.3.1-2.3.1/.content/arm-none-eabi/include/c++/10.3.1/arm-none-eabi/thumb/v7e-m+fp/hard/bits/gthr-default.h **** #else /* _LIBOBJC */
 209:/Users/lawrencestanton/Library/Application Support/Code/User/globalStorage/bmd.stm32-for-vscode/@xpack-dev-tools/arm-none-eabi-gcc/10.3.1-2.3.1/.content/arm-none-eabi/include/c++/10.3.1/arm-none-eabi/thumb/v7e-m+fp/hard/bits/gthr-default.h **** 
 210:/Users/lawrencestanton/Library/Application Support/Code/User/globalStorage/bmd.stm32-for-vscode/@xpack-dev-tools/arm-none-eabi-gcc/10.3.1-2.3.1/.content/arm-none-eabi/include/c++/10.3.1/arm-none-eabi/thumb/v7e-m+fp/hard/bits/gthr-default.h **** static inline int
 211:/Users/lawrencestanton/Library/Application Support/Code/User/globalStorage/bmd.stm32-for-vscode/@xpack-dev-tools/arm-none-eabi-gcc/10.3.1-2.3.1/.content/arm-none-eabi/include/c++/10.3.1/arm-none-eabi/thumb/v7e-m+fp/hard/bits/gthr-default.h **** __gthread_active_p (void)
 212:/Users/lawrencestanton/Library/Application Support/Code/User/globalStorage/bmd.stm32-for-vscode/@xpack-dev-tools/arm-none-eabi-gcc/10.3.1-2.3.1/.content/arm-none-eabi/include/c++/10.3.1/arm-none-eabi/thumb/v7e-m+fp/hard/bits/gthr-default.h **** {
 213:/Users/lawrencestanton/Library/Application Support/Code/User/globalStorage/bmd.stm32-for-vscode/@xpack-dev-tools/arm-none-eabi-gcc/10.3.1-2.3.1/.content/arm-none-eabi/include/c++/10.3.1/arm-none-eabi/thumb/v7e-m+fp/hard/bits/gthr-default.h ****   return 0;
 214:/Users/lawrencestanton/Library/Application Support/Code/User/globalStorage/bmd.stm32-for-vscode/@xpack-dev-tools/arm-none-eabi-gcc/10.3.1-2.3.1/.content/arm-none-eabi/include/c++/10.3.1/arm-none-eabi/thumb/v7e-m+fp/hard/bits/gthr-default.h **** }
 215:/Users/lawrencestanton/Library/Application Support/Code/User/globalStorage/bmd.stm32-for-vscode/@xpack-dev-tools/arm-none-eabi-gcc/10.3.1-2.3.1/.content/arm-none-eabi/include/c++/10.3.1/arm-none-eabi/thumb/v7e-m+fp/hard/bits/gthr-default.h **** 
 216:/Users/lawrencestanton/Library/Application Support/Code/User/globalStorage/bmd.stm32-for-vscode/@xpack-dev-tools/arm-none-eabi-gcc/10.3.1-2.3.1/.content/arm-none-eabi/include/c++/10.3.1/arm-none-eabi/thumb/v7e-m+fp/hard/bits/gthr-default.h **** static inline int
 217:/Users/lawrencestanton/Library/Application Support/Code/User/globalStorage/bmd.stm32-for-vscode/@xpack-dev-tools/arm-none-eabi-gcc/10.3.1-2.3.1/.content/arm-none-eabi/include/c++/10.3.1/arm-none-eabi/thumb/v7e-m+fp/hard/bits/gthr-default.h **** __gthread_once (__gthread_once_t *__once _GLIBCXX_UNUSED, void (*__func) (void) _GLIBCXX_UNUSED)
 218:/Users/lawrencestanton/Library/Application Support/Code/User/globalStorage/bmd.stm32-for-vscode/@xpack-dev-tools/arm-none-eabi-gcc/10.3.1-2.3.1/.content/arm-none-eabi/include/c++/10.3.1/arm-none-eabi/thumb/v7e-m+fp/hard/bits/gthr-default.h **** {
 219:/Users/lawrencestanton/Library/Application Support/Code/User/globalStorage/bmd.stm32-for-vscode/@xpack-dev-tools/arm-none-eabi-gcc/10.3.1-2.3.1/.content/arm-none-eabi/include/c++/10.3.1/arm-none-eabi/thumb/v7e-m+fp/hard/bits/gthr-default.h ****   return 0;
 220:/Users/lawrencestanton/Library/Application Support/Code/User/globalStorage/bmd.stm32-for-vscode/@xpack-dev-tools/arm-none-eabi-gcc/10.3.1-2.3.1/.content/arm-none-eabi/include/c++/10.3.1/arm-none-eabi/thumb/v7e-m+fp/hard/bits/gthr-default.h **** }
 221:/Users/lawrencestanton/Library/Application Support/Code/User/globalStorage/bmd.stm32-for-vscode/@xpack-dev-tools/arm-none-eabi-gcc/10.3.1-2.3.1/.content/arm-none-eabi/include/c++/10.3.1/arm-none-eabi/thumb/v7e-m+fp/hard/bits/gthr-default.h **** 
 222:/Users/lawrencestanton/Library/Application Support/Code/User/globalStorage/bmd.stm32-for-vscode/@xpack-dev-tools/arm-none-eabi-gcc/10.3.1-2.3.1/.content/arm-none-eabi/include/c++/10.3.1/arm-none-eabi/thumb/v7e-m+fp/hard/bits/gthr-default.h **** static inline int _GLIBCXX_UNUSED
 223:/Users/lawrencestanton/Library/Application Support/Code/User/globalStorage/bmd.stm32-for-vscode/@xpack-dev-tools/arm-none-eabi-gcc/10.3.1-2.3.1/.content/arm-none-eabi/include/c++/10.3.1/arm-none-eabi/thumb/v7e-m+fp/hard/bits/gthr-default.h **** __gthread_key_create (__gthread_key_t *__key _GLIBCXX_UNUSED, void (*__func) (void *) _GLIBCXX_UNUS
 224:/Users/lawrencestanton/Library/Application Support/Code/User/globalStorage/bmd.stm32-for-vscode/@xpack-dev-tools/arm-none-eabi-gcc/10.3.1-2.3.1/.content/arm-none-eabi/include/c++/10.3.1/arm-none-eabi/thumb/v7e-m+fp/hard/bits/gthr-default.h **** {
 225:/Users/lawrencestanton/Library/Application Support/Code/User/globalStorage/bmd.stm32-for-vscode/@xpack-dev-tools/arm-none-eabi-gcc/10.3.1-2.3.1/.content/arm-none-eabi/include/c++/10.3.1/arm-none-eabi/thumb/v7e-m+fp/hard/bits/gthr-default.h ****   return 0;
 226:/Users/lawrencestanton/Library/Application Support/Code/User/globalStorage/bmd.stm32-for-vscode/@xpack-dev-tools/arm-none-eabi-gcc/10.3.1-2.3.1/.content/arm-none-eabi/include/c++/10.3.1/arm-none-eabi/thumb/v7e-m+fp/hard/bits/gthr-default.h **** }
 227:/Users/lawrencestanton/Library/Application Support/Code/User/globalStorage/bmd.stm32-for-vscode/@xpack-dev-tools/arm-none-eabi-gcc/10.3.1-2.3.1/.content/arm-none-eabi/include/c++/10.3.1/arm-none-eabi/thumb/v7e-m+fp/hard/bits/gthr-default.h **** 
 228:/Users/lawrencestanton/Library/Application Support/Code/User/globalStorage/bmd.stm32-for-vscode/@xpack-dev-tools/arm-none-eabi-gcc/10.3.1-2.3.1/.content/arm-none-eabi/include/c++/10.3.1/arm-none-eabi/thumb/v7e-m+fp/hard/bits/gthr-default.h **** static int _GLIBCXX_UNUSED
 229:/Users/lawrencestanton/Library/Application Support/Code/User/globalStorage/bmd.stm32-for-vscode/@xpack-dev-tools/arm-none-eabi-gcc/10.3.1-2.3.1/.content/arm-none-eabi/include/c++/10.3.1/arm-none-eabi/thumb/v7e-m+fp/hard/bits/gthr-default.h **** __gthread_key_delete (__gthread_key_t __key _GLIBCXX_UNUSED)
 230:/Users/lawrencestanton/Library/Application Support/Code/User/globalStorage/bmd.stm32-for-vscode/@xpack-dev-tools/arm-none-eabi-gcc/10.3.1-2.3.1/.content/arm-none-eabi/include/c++/10.3.1/arm-none-eabi/thumb/v7e-m+fp/hard/bits/gthr-default.h **** {
  35              		.loc 1 230 1
  36              		.cfi_startproc
  37              		@ args = 0, pretend = 0, frame = 8
  38              		@ frame_needed = 1, uses_anonymous_args = 0
  39              		@ link register save eliminated.
  40 0000 80B4     		push	{r7}
  41              		.cfi_def_cfa_offset 4
  42              		.cfi_offset 7, -4
  43 0002 83B0     		sub	sp, sp, #12
  44              		.cfi_def_cfa_offset 16
  45 0004 00AF     		add	r7, sp, #0
  46              		.cfi_def_cfa_register 7
  47 0006 7860     		str	r0, [r7, #4]
 231:/Users/lawrencestanton/Library/Application Support/Code/User/globalStorage/bmd.stm32-for-vscode/@xpack-dev-tools/arm-none-eabi-gcc/10.3.1-2.3.1/.content/arm-none-eabi/include/c++/10.3.1/arm-none-eabi/thumb/v7e-m+fp/hard/bits/gthr-default.h ****   return 0;
  48              		.loc 1 231 10
  49 0008 0023     		movs	r3, #0
 232:/Users/lawrencestanton/Library/Application Support/Code/User/globalStorage/bmd.stm32-for-vscode/@xpack-dev-tools/arm-none-eabi-gcc/10.3.1-2.3.1/.content/arm-none-eabi/include/c++/10.3.1/arm-none-eabi/thumb/v7e-m+fp/hard/bits/gthr-default.h **** }
  50              		.loc 1 232 1
  51 000a 1846     		mov	r0, r3
  52 000c 0C37     		adds	r7, r7, #12
  53              		.cfi_def_cfa_offset 4
  54 000e BD46     		mov	sp, r7
  55              		.cfi_def_cfa_register 13
  56              		@ sp needed
ARM GAS  /var/folders/bb/dhrb69655gd8t4nf464nxc_00000gn/T//ccJ8l31o.s 			page 6


  57 0010 5DF8047B 		ldr	r7, [sp], #4
  58              		.cfi_restore 7
  59              		.cfi_def_cfa_offset 0
  60 0014 7047     		bx	lr
  61              		.cfi_endproc
  62              	.LFE653:
  63              		.cantunwind
  64              		.fnend
  66              		.section	.rodata._ZL23CFG_HW_ANT_CFG_VOLTCTRL,"a"
  67              		.align	2
  70              	_ZL23CFG_HW_ANT_CFG_VOLTCTRL:
  71 0000 01       		.byte	1
  72 0001 A3       		.byte	-93
  73 0002 2E00     		.short	46
  74              		.section	.rodata._ZL23CFG_HW_ANT_CFG_SHORTDET,"a"
  75              		.align	2
  78              	_ZL23CFG_HW_ANT_CFG_SHORTDET:
  79 0000 01       		.byte	1
  80 0001 A3       		.byte	-93
  81 0002 2F00     		.short	47
  82              		.section	.rodata._ZL27CFG_HW_ANT_CFG_SHORTDET_POL,"a"
  83              		.align	2
  86              	_ZL27CFG_HW_ANT_CFG_SHORTDET_POL:
  87 0000 01       		.byte	1
  88 0001 A3       		.byte	-93
  89 0002 3000     		.short	48
  90              		.section	.rodata._ZL22CFG_HW_ANT_CFG_OPENDET,"a"
  91              		.align	2
  94              	_ZL22CFG_HW_ANT_CFG_OPENDET:
  95 0000 01       		.byte	1
  96 0001 A3       		.byte	-93
  97 0002 3100     		.short	49
  98              		.section	.rodata._ZL26CFG_HW_ANT_CFG_OPENDET_POL,"a"
  99              		.align	2
 102              	_ZL26CFG_HW_ANT_CFG_OPENDET_POL:
 103 0000 01       		.byte	1
 104 0001 A3       		.byte	-93
 105 0002 3200     		.short	50
 106              		.section	.rodata._ZL22CFG_HW_ANT_CFG_PWRDOWN,"a"
 107              		.align	2
 110              	_ZL22CFG_HW_ANT_CFG_PWRDOWN:
 111 0000 01       		.byte	1
 112 0001 A3       		.byte	-93
 113 0002 3300     		.short	51
 114              		.section	.rodata._ZL26CFG_HW_ANT_CFG_PWRDOWN_POL,"a"
 115              		.align	2
 118              	_ZL26CFG_HW_ANT_CFG_PWRDOWN_POL:
 119 0000 01       		.byte	1
 120 0001 A3       		.byte	-93
 121 0002 3400     		.short	52
 122              		.section	.rodata._ZL22CFG_HW_ANT_CFG_RECOVER,"a"
 123              		.align	2
 126              	_ZL22CFG_HW_ANT_CFG_RECOVER:
 127 0000 01       		.byte	1
 128 0001 A3       		.byte	-93
 129 0002 3500     		.short	53
 130              		.section	.rodata._ZL25CFG_HW_ANT_SUP_SWITCH_PIN,"a"
ARM GAS  /var/folders/bb/dhrb69655gd8t4nf464nxc_00000gn/T//ccJ8l31o.s 			page 7


 131              		.align	2
 134              	_ZL25CFG_HW_ANT_SUP_SWITCH_PIN:
 135 0000 02       		.byte	2
 136 0001 A3       		.byte	-93
 137 0002 3600     		.short	54
 138              		.section	.rodata._ZL24CFG_HW_ANT_SUP_SHORT_PIN,"a"
 139              		.align	2
 142              	_ZL24CFG_HW_ANT_SUP_SHORT_PIN:
 143 0000 02       		.byte	2
 144 0001 A3       		.byte	-93
 145 0002 3700     		.short	55
 146              		.section	.rodata._ZL23CFG_HW_ANT_SUP_OPEN_PIN,"a"
 147              		.align	2
 150              	_ZL23CFG_HW_ANT_SUP_OPEN_PIN:
 151 0000 02       		.byte	2
 152 0001 A3       		.byte	-93
 153 0002 3800     		.short	56
 154              		.section	.rodata._ZL21CFG_HW_ANT_SUP_ENGINE,"a"
 155              		.align	2
 158              	_ZL21CFG_HW_ANT_SUP_ENGINE:
 159 0000 02       		.byte	2
 160 0001 A3       		.byte	-93
 161 0002 5400     		.short	84
 162              		.section	.rodata._ZL24CFG_HW_ANT_SUP_SHORT_THR,"a"
 163              		.align	2
 166              	_ZL24CFG_HW_ANT_SUP_SHORT_THR:
 167 0000 02       		.byte	2
 168 0001 A3       		.byte	-93
 169 0002 5500     		.short	85
 170              		.section	.rodata._ZL23CFG_HW_ANT_SUP_OPEN_THR,"a"
 171              		.align	2
 174              	_ZL23CFG_HW_ANT_SUP_OPEN_THR:
 175 0000 02       		.byte	2
 176 0001 A3       		.byte	-93
 177 0002 5600     		.short	86
 178              		.section	.rodata._ZL16CFG_NMEA_PROTVER,"a"
 179              		.align	2
 182              	_ZL16CFG_NMEA_PROTVER:
 183 0000 02       		.byte	2
 184 0001 93       		.byte	-109
 185 0002 0100     		.short	1
 186              		.section	.rodata._ZL15CFG_NMEA_MAXSVS,"a"
 187              		.align	2
 190              	_ZL15CFG_NMEA_MAXSVS:
 191 0000 02       		.byte	2
 192 0001 93       		.byte	-109
 193 0002 0200     		.short	2
 194              		.section	.rodata._ZL15CFG_NMEA_COMPAT,"a"
 195              		.align	2
 198              	_ZL15CFG_NMEA_COMPAT:
 199 0000 01       		.byte	1
 200 0001 93       		.byte	-109
 201 0002 0300     		.short	3
 202              		.section	.rodata._ZL17CFG_NMEA_CONSIDER,"a"
 203              		.align	2
 206              	_ZL17CFG_NMEA_CONSIDER:
 207 0000 01       		.byte	1
ARM GAS  /var/folders/bb/dhrb69655gd8t4nf464nxc_00000gn/T//ccJ8l31o.s 			page 8


 208 0001 93       		.byte	-109
 209 0002 0400     		.short	4
 210              		.section	.rodata._ZL16CFG_NMEA_LIMIT82,"a"
 211              		.align	2
 214              	_ZL16CFG_NMEA_LIMIT82:
 215 0000 01       		.byte	1
 216 0001 93       		.byte	-109
 217 0002 0500     		.short	5
 218              		.section	.rodata._ZL17CFG_NMEA_HIGHPREC,"a"
 219              		.align	2
 222              	_ZL17CFG_NMEA_HIGHPREC:
 223 0000 01       		.byte	1
 224 0001 93       		.byte	-109
 225 0002 0600     		.short	6
 226              		.section	.rodata._ZL20CFG_NMEA_SVNUMBERING,"a"
 227              		.align	2
 230              	_ZL20CFG_NMEA_SVNUMBERING:
 231 0000 02       		.byte	2
 232 0001 93       		.byte	-109
 233 0002 0700     		.short	7
 234              		.section	.rodata._ZL17CFG_NMEA_FILT_GPS,"a"
 235              		.align	2
 238              	_ZL17CFG_NMEA_FILT_GPS:
 239 0000 01       		.byte	1
 240 0001 93       		.byte	-109
 241 0002 1100     		.short	17
 242              		.section	.rodata._ZL18CFG_NMEA_FILT_SBAS,"a"
 243              		.align	2
 246              	_ZL18CFG_NMEA_FILT_SBAS:
 247 0000 01       		.byte	1
 248 0001 93       		.byte	-109
 249 0002 1200     		.short	18
 250              		.section	.rodata._ZL17CFG_NMEA_FILT_GAL,"a"
 251              		.align	2
 254              	_ZL17CFG_NMEA_FILT_GAL:
 255 0000 01       		.byte	1
 256 0001 93       		.byte	-109
 257 0002 1300     		.short	19
 258              		.section	.rodata._ZL18CFG_NMEA_FILT_QZSS,"a"
 259              		.align	2
 262              	_ZL18CFG_NMEA_FILT_QZSS:
 263 0000 01       		.byte	1
 264 0001 93       		.byte	-109
 265 0002 1500     		.short	21
 266              		.section	.rodata._ZL17CFG_NMEA_FILT_GLO,"a"
 267              		.align	2
 270              	_ZL17CFG_NMEA_FILT_GLO:
 271 0000 01       		.byte	1
 272 0001 93       		.byte	-109
 273 0002 1600     		.short	22
 274              		.section	.rodata._ZL17CFG_NMEA_FILT_BDS,"a"
 275              		.align	2
 278              	_ZL17CFG_NMEA_FILT_BDS:
 279 0000 01       		.byte	1
 280 0001 93       		.byte	-109
 281 0002 1700     		.short	23
 282              		.section	.rodata._ZL19CFG_NMEA_OUT_INVFIX,"a"
ARM GAS  /var/folders/bb/dhrb69655gd8t4nf464nxc_00000gn/T//ccJ8l31o.s 			page 9


 283              		.align	2
 286              	_ZL19CFG_NMEA_OUT_INVFIX:
 287 0000 01       		.byte	1
 288 0001 93       		.byte	-109
 289 0002 2100     		.short	33
 290              		.section	.rodata._ZL19CFG_NMEA_OUT_MSKFIX,"a"
 291              		.align	2
 294              	_ZL19CFG_NMEA_OUT_MSKFIX:
 295 0000 01       		.byte	1
 296 0001 93       		.byte	-109
 297 0002 2200     		.short	34
 298              		.section	.rodata._ZL20CFG_NMEA_OUT_INVTIME,"a"
 299              		.align	2
 302              	_ZL20CFG_NMEA_OUT_INVTIME:
 303 0000 01       		.byte	1
 304 0001 93       		.byte	-109
 305 0002 2300     		.short	35
 306              		.section	.rodata._ZL20CFG_NMEA_OUT_INVDATE,"a"
 307              		.align	2
 310              	_ZL20CFG_NMEA_OUT_INVDATE:
 311 0000 01       		.byte	1
 312 0001 93       		.byte	-109
 313 0002 2400     		.short	36
 314              		.section	.rodata._ZL20CFG_NMEA_OUT_ONLYGPS,"a"
 315              		.align	2
 318              	_ZL20CFG_NMEA_OUT_ONLYGPS:
 319 0000 01       		.byte	1
 320 0001 93       		.byte	-109
 321 0002 2500     		.short	37
 322              		.section	.rodata._ZL22CFG_NMEA_OUT_FROZENCOG,"a"
 323              		.align	2
 326              	_ZL22CFG_NMEA_OUT_FROZENCOG:
 327 0000 01       		.byte	1
 328 0001 93       		.byte	-109
 329 0002 2600     		.short	38
 330              		.section	.rodata._ZL21CFG_NMEA_MAINTALKERID,"a"
 331              		.align	2
 334              	_ZL21CFG_NMEA_MAINTALKERID:
 335 0000 02       		.byte	2
 336 0001 93       		.byte	-109
 337 0002 3100     		.short	49
 338              		.section	.rodata._ZL20CFG_NMEA_GSVTALKERID,"a"
 339              		.align	2
 342              	_ZL20CFG_NMEA_GSVTALKERID:
 343 0000 02       		.byte	2
 344 0001 93       		.byte	-109
 345 0002 3200     		.short	50
 346              		.section	.rodata._ZL20CFG_NMEA_BDSTALKERID,"a"
 347              		.align	2
 350              	_ZL20CFG_NMEA_BDSTALKERID:
 351 0000 02       		.byte	2
 352 0001 93       		.byte	-109
 353 0002 3300     		.short	51
 354              		.section	.text._ZN12StaticStringC2EPKc,"axG",%progbits,_ZN12StaticStringC5EPKc,comdat
 355              		.align	1
 356              		.weak	_ZN12StaticStringC2EPKc
 357              		.syntax unified
ARM GAS  /var/folders/bb/dhrb69655gd8t4nf464nxc_00000gn/T//ccJ8l31o.s 			page 10


 358              		.thumb
 359              		.thumb_func
 361              	_ZN12StaticStringC2EPKc:
 362              		.fnstart
 363              	.LFB1887:
 364              		.file 2 "Core/Inc/StaticString.hpp"
   1:Core/Inc/StaticString.hpp **** /**
   2:Core/Inc/StaticString.hpp ****   ******************************************************************************
   3:Core/Inc/StaticString.hpp ****   * @file			: StaticString.hpp
   4:Core/Inc/StaticString.hpp ****   * @brief			: Structure for Stack-Based Static String with Helper Functions
   5:Core/Inc/StaticString.hpp ****   * @author			: Lawrence Stanton
   6:Core/Inc/StaticString.hpp ****   ******************************************************************************
   7:Core/Inc/StaticString.hpp ****   * @attention
   8:Core/Inc/StaticString.hpp ****   *
   9:Core/Inc/StaticString.hpp ****   *  LD Stanton 2022
  10:Core/Inc/StaticString.hpp ****   * 
  11:Core/Inc/StaticString.hpp ****   * This file and its content are the copyright property of the author. All 
  12:Core/Inc/StaticString.hpp ****   * rights are reserved. No warranty is given. No liability is assumed.
  13:Core/Inc/StaticString.hpp ****   * Confidential unless licensed otherwise. If licensed, refer to the 
  14:Core/Inc/StaticString.hpp ****   * accompanying file "LICENCE" for license details.
  15:Core/Inc/StaticString.hpp ****   * 
  16:Core/Inc/StaticString.hpp ****   ******************************************************************************
  17:Core/Inc/StaticString.hpp ****   */
  18:Core/Inc/StaticString.hpp **** 
  19:Core/Inc/StaticString.hpp **** #pragma once
  20:Core/Inc/StaticString.hpp **** 
  21:Core/Inc/StaticString.hpp **** #include <stdint.h>
  22:Core/Inc/StaticString.hpp **** #include <string.h>
  23:Core/Inc/StaticString.hpp **** 
  24:Core/Inc/StaticString.hpp **** #include <algorithm>
  25:Core/Inc/StaticString.hpp **** 
  26:Core/Inc/StaticString.hpp **** class StaticString{
  27:Core/Inc/StaticString.hpp **** private:
  28:Core/Inc/StaticString.hpp **** 	const char * s;
  29:Core/Inc/StaticString.hpp **** 	size_t l;
  30:Core/Inc/StaticString.hpp **** 
  31:Core/Inc/StaticString.hpp **** 
  32:Core/Inc/StaticString.hpp **** public:
  33:Core/Inc/StaticString.hpp **** 	StaticString() : s(nullptr), l(0u){}
  34:Core/Inc/StaticString.hpp **** 
  35:Core/Inc/StaticString.hpp **** 	template<typename C>
  36:Core/Inc/StaticString.hpp **** 	StaticString(C * c_str, size_t len) : s(c_str), l(len){}
  37:Core/Inc/StaticString.hpp **** 
  38:Core/Inc/StaticString.hpp **** 	template<typename C>
  39:Core/Inc/StaticString.hpp **** 	StaticString(C * begin, C * end) : s((char *)begin), l(end-begin){}
  40:Core/Inc/StaticString.hpp **** 
  41:Core/Inc/StaticString.hpp **** 	StaticString(const char * c_str) : s(c_str), l(strlen(c_str)){}
 365              		.loc 2 41 2
 366              		.cfi_startproc
 367              		@ args = 0, pretend = 0, frame = 8
 368              		@ frame_needed = 1, uses_anonymous_args = 0
 369 0000 80B5     		push	{r7, lr}
 370              		.cfi_def_cfa_offset 8
 371              		.cfi_offset 7, -8
 372              		.cfi_offset 14, -4
 373 0002 82B0     		sub	sp, sp, #8
 374              		.cfi_def_cfa_offset 16
ARM GAS  /var/folders/bb/dhrb69655gd8t4nf464nxc_00000gn/T//ccJ8l31o.s 			page 11


 375 0004 00AF     		add	r7, sp, #0
 376              		.cfi_def_cfa_register 7
 377 0006 7860     		str	r0, [r7, #4]
 378 0008 3960     		str	r1, [r7]
 379              	.LBB2:
 380              		.loc 2 41 62
 381 000a 7B68     		ldr	r3, [r7, #4]
 382 000c 3A68     		ldr	r2, [r7]
 383 000e 1A60     		str	r2, [r3]
 384              		.loc 2 41 55
 385 0010 3868     		ldr	r0, [r7]
 386 0012 FFF7FEFF 		bl	strlen
 387 0016 0246     		mov	r2, r0
 388              		.loc 2 41 62
 389 0018 7B68     		ldr	r3, [r7, #4]
 390 001a 5A60     		str	r2, [r3, #4]
 391              	.LBE2:
 392              		.loc 2 41 64
 393 001c 7B68     		ldr	r3, [r7, #4]
 394 001e 1846     		mov	r0, r3
 395 0020 0837     		adds	r7, r7, #8
 396              		.cfi_def_cfa_offset 8
 397 0022 BD46     		mov	sp, r7
 398              		.cfi_def_cfa_register 13
 399              		@ sp needed
 400 0024 80BD     		pop	{r7, pc}
 401              		.cfi_endproc
 402              	.LFE1887:
 403              		.cantunwind
 404              		.fnend
 406              		.weak	_ZN12StaticStringC1EPKc
 407              		.thumb_set _ZN12StaticStringC1EPKc,_ZN12StaticStringC2EPKc
 408              		.section	.rodata
 409              		.align	2
 410              	.LC0:
 411 0000 00       		.ascii	"\000"
 412              		.section	.text._ZN13NMEA_Standard3GLL8toStringEPc,"axG",%progbits,_ZN13NMEA_Standard3GLL8toStringE
 413              		.align	1
 414              		.weak	_ZN13NMEA_Standard3GLL8toStringEPc
 415              		.syntax unified
 416              		.thumb
 417              		.thumb_func
 419              	_ZN13NMEA_Standard3GLL8toStringEPc:
 420              		.fnstart
 421              	.LFB1901:
 422              		.file 3 "Core/Inc/NMEA_Standard.hpp"
   1:Core/Inc/NMEA_Standard.hpp **** /**
   2:Core/Inc/NMEA_Standard.hpp ****   ******************************************************************************
   3:Core/Inc/NMEA_Standard.hpp ****   * @file           : NMEA.hpp
   4:Core/Inc/NMEA_Standard.hpp ****   * @brief          : NMEA Protocol Standard Driver
   5:Core/Inc/NMEA_Standard.hpp ****   * @author			: Lawrence Stanton
   6:Core/Inc/NMEA_Standard.hpp ****   ******************************************************************************
   7:Core/Inc/NMEA_Standard.hpp ****   * @attention
   8:Core/Inc/NMEA_Standard.hpp ****   *
   9:Core/Inc/NMEA_Standard.hpp ****   *  LD Stanton 2022
  10:Core/Inc/NMEA_Standard.hpp ****   * 
  11:Core/Inc/NMEA_Standard.hpp ****   * This file and its content are the copyright property of the author. All 
ARM GAS  /var/folders/bb/dhrb69655gd8t4nf464nxc_00000gn/T//ccJ8l31o.s 			page 12


  12:Core/Inc/NMEA_Standard.hpp ****   * rights are reserved. No warranty is given. No liability is assumed.
  13:Core/Inc/NMEA_Standard.hpp ****   * Confidential unless licensed otherwise. If licensed, refer to the 
  14:Core/Inc/NMEA_Standard.hpp ****   * accompanying file "LICENCE" for license details.
  15:Core/Inc/NMEA_Standard.hpp ****   * 
  16:Core/Inc/NMEA_Standard.hpp ****   ******************************************************************************
  17:Core/Inc/NMEA_Standard.hpp ****   */
  18:Core/Inc/NMEA_Standard.hpp **** 
  19:Core/Inc/NMEA_Standard.hpp **** #pragma once
  20:Core/Inc/NMEA_Standard.hpp **** 
  21:Core/Inc/NMEA_Standard.hpp **** #include <array>
  22:Core/Inc/NMEA_Standard.hpp **** #include <stdint.h>
  23:Core/Inc/NMEA_Standard.hpp **** 
  24:Core/Inc/NMEA_Standard.hpp **** #include "StaticString.hpp"
  25:Core/Inc/NMEA_Standard.hpp **** 
  26:Core/Inc/NMEA_Standard.hpp **** using string = StaticString;
  27:Core/Inc/NMEA_Standard.hpp **** 
  28:Core/Inc/NMEA_Standard.hpp **** class NMEA_Standard{
  29:Core/Inc/NMEA_Standard.hpp **** protected:
  30:Core/Inc/NMEA_Standard.hpp **** 	struct Address;
  31:Core/Inc/NMEA_Standard.hpp **** 	struct Checksum;
  32:Core/Inc/NMEA_Standard.hpp **** 
  33:Core/Inc/NMEA_Standard.hpp **** public:
  34:Core/Inc/NMEA_Standard.hpp **** 	enum class TalkerID;
  35:Core/Inc/NMEA_Standard.hpp **** 	enum class Message;
  36:Core/Inc/NMEA_Standard.hpp **** 
  37:Core/Inc/NMEA_Standard.hpp **** 	class DTM;
  38:Core/Inc/NMEA_Standard.hpp **** 	class GBS;
  39:Core/Inc/NMEA_Standard.hpp **** 	class GGA;
  40:Core/Inc/NMEA_Standard.hpp **** 	class GLL;
  41:Core/Inc/NMEA_Standard.hpp **** 	class GNS;
  42:Core/Inc/NMEA_Standard.hpp **** 	class GRS;
  43:Core/Inc/NMEA_Standard.hpp **** 	class GSA;
  44:Core/Inc/NMEA_Standard.hpp **** 	class GST;
  45:Core/Inc/NMEA_Standard.hpp **** 	class GSV;
  46:Core/Inc/NMEA_Standard.hpp **** 	class RLM;
  47:Core/Inc/NMEA_Standard.hpp **** 	class RMC;
  48:Core/Inc/NMEA_Standard.hpp **** 	class TXT;
  49:Core/Inc/NMEA_Standard.hpp **** 	class VLW;
  50:Core/Inc/NMEA_Standard.hpp **** 	class VTG;
  51:Core/Inc/NMEA_Standard.hpp **** 	class ZDA;
  52:Core/Inc/NMEA_Standard.hpp **** 
  53:Core/Inc/NMEA_Standard.hpp **** 	class BAD;	// NOT a real NMEA object. Returned by factory when an invalid NMEA sentence is passed.
  54:Core/Inc/NMEA_Standard.hpp **** 	
  55:Core/Inc/NMEA_Standard.hpp **** 	virtual ~NMEA_Standard() = default;
  56:Core/Inc/NMEA_Standard.hpp **** 
  57:Core/Inc/NMEA_Standard.hpp **** 	virtual string toString(char * buff) = 0;	// Generates the NMEA Sentence representing teh NMEA obj
  58:Core/Inc/NMEA_Standard.hpp **** 
  59:Core/Inc/NMEA_Standard.hpp **** 	inline static bool valid(const string & nmea) {return Checksum::valid(nmea);}
  60:Core/Inc/NMEA_Standard.hpp **** 
  61:Core/Inc/NMEA_Standard.hpp **** protected:
  62:Core/Inc/NMEA_Standard.hpp **** 	struct Address{
  63:Core/Inc/NMEA_Standard.hpp **** 		string tt;	// Talker Identifier (string format)
  64:Core/Inc/NMEA_Standard.hpp **** 		string sss;	// Sentence Formatter
  65:Core/Inc/NMEA_Standard.hpp **** 		// Note: tt and sss are typically that many characters long but proprietary messages can be diffe
  66:Core/Inc/NMEA_Standard.hpp **** 		
  67:Core/Inc/NMEA_Standard.hpp **** 		Address() = default;
  68:Core/Inc/NMEA_Standard.hpp **** 		Address(const string & s);
ARM GAS  /var/folders/bb/dhrb69655gd8t4nf464nxc_00000gn/T//ccJ8l31o.s 			page 13


  69:Core/Inc/NMEA_Standard.hpp **** 		Address(const string & tt, const string & sss);
  70:Core/Inc/NMEA_Standard.hpp **** 		string toString();
  71:Core/Inc/NMEA_Standard.hpp **** 	};
  72:Core/Inc/NMEA_Standard.hpp **** 	
  73:Core/Inc/NMEA_Standard.hpp **** 	struct Checksum{
  74:Core/Inc/NMEA_Standard.hpp **** 		static const char ast = '*';	// Checksum Prefix
  75:Core/Inc/NMEA_Standard.hpp **** 		uint8_t cs;						// Checksum Value
  76:Core/Inc/NMEA_Standard.hpp **** 
  77:Core/Inc/NMEA_Standard.hpp **** 		Checksum() = default;
  78:Core/Inc/NMEA_Standard.hpp **** 		Checksum(const string & s);		// s is the checksum substring including the '*'.
  79:Core/Inc/NMEA_Standard.hpp **** 		Checksum(uint8_t cs);			// Set a hexadecimal value for cs.
  80:Core/Inc/NMEA_Standard.hpp **** 		
  81:Core/Inc/NMEA_Standard.hpp **** 		static uint8_t checksum(const string & nmea);	// Calculates and sets the checksum based upon a NM
  82:Core/Inc/NMEA_Standard.hpp **** 		static bool valid(const string & nmea);
  83:Core/Inc/NMEA_Standard.hpp **** 		string toString(char cStr[4]);
  84:Core/Inc/NMEA_Standard.hpp **** 	};
  85:Core/Inc/NMEA_Standard.hpp **** 
  86:Core/Inc/NMEA_Standard.hpp **** 	struct UTC_Time{
  87:Core/Inc/NMEA_Standard.hpp **** 		uint8_t hh;	// Hours
  88:Core/Inc/NMEA_Standard.hpp **** 		uint8_t mm;	// Minutes
  89:Core/Inc/NMEA_Standard.hpp **** 		float ss;	// Seconds (2 or 3 decimal points of precision)
  90:Core/Inc/NMEA_Standard.hpp **** 
  91:Core/Inc/NMEA_Standard.hpp **** 		UTC_Time() = default;
  92:Core/Inc/NMEA_Standard.hpp **** 		UTC_Time(const string & tStr);
  93:Core/Inc/NMEA_Standard.hpp **** 		UTC_Time(const UTC_Time & t) = default;
  94:Core/Inc/NMEA_Standard.hpp **** 		string toString();
  95:Core/Inc/NMEA_Standard.hpp **** 
  96:Core/Inc/NMEA_Standard.hpp **** 		// uint32_t operator = (const UTC_Time & t);	// Time in ms since Jan 1 1980
  97:Core/Inc/NMEA_Standard.hpp **** 	};
  98:Core/Inc/NMEA_Standard.hpp **** 
  99:Core/Inc/NMEA_Standard.hpp **** 	struct Coordinate{
 100:Core/Inc/NMEA_Standard.hpp **** 		uint16_t deg;
 101:Core/Inc/NMEA_Standard.hpp **** 		float min;
 102:Core/Inc/NMEA_Standard.hpp **** 
 103:Core/Inc/NMEA_Standard.hpp **** 		Coordinate() = default;
 104:Core/Inc/NMEA_Standard.hpp **** 		Coordinate(const string & s);
 105:Core/Inc/NMEA_Standard.hpp **** 		Coordinate(const Coordinate & c) = default;
 106:Core/Inc/NMEA_Standard.hpp **** 
 107:Core/Inc/NMEA_Standard.hpp **** 		string toString(char cStr[11]);
 108:Core/Inc/NMEA_Standard.hpp **** 
 109:Core/Inc/NMEA_Standard.hpp **** 		float operator = (const Coordinate c);
 110:Core/Inc/NMEA_Standard.hpp **** 
 111:Core/Inc/NMEA_Standard.hpp **** 	};
 112:Core/Inc/NMEA_Standard.hpp **** 
 113:Core/Inc/NMEA_Standard.hpp **** 	NMEA_Standard() = default;	// Derived classes shall be responsible for all base member initialisat
 114:Core/Inc/NMEA_Standard.hpp **** 
 115:Core/Inc/NMEA_Standard.hpp **** 	void setChecksum();	// Sets the checksum from the member toString representation.
 116:Core/Inc/NMEA_Standard.hpp **** 	
 117:Core/Inc/NMEA_Standard.hpp **** 	/* Static helper functions */
 118:Core/Inc/NMEA_Standard.hpp **** 	template<size_t N>
 119:Core/Inc/NMEA_Standard.hpp **** 	static std::array<StaticString, N> parseFields(const string & nmea);
 120:Core/Inc/NMEA_Standard.hpp **** 	static string toString(const Message msg);
 121:Core/Inc/NMEA_Standard.hpp **** 	static string toString(const TalkerID tId);
 122:Core/Inc/NMEA_Standard.hpp **** 
 123:Core/Inc/NMEA_Standard.hpp **** 									// Address below.
 124:Core/Inc/NMEA_Standard.hpp **** 	const char start = '$';	// Start Character
 125:Core/Inc/NMEA_Standard.hpp **** 									// Payload defined in derived class.
ARM GAS  /var/folders/bb/dhrb69655gd8t4nf464nxc_00000gn/T//ccJ8l31o.s 			page 14


 126:Core/Inc/NMEA_Standard.hpp **** 	Checksum cs;					// Checksum
 127:Core/Inc/NMEA_Standard.hpp **** 	const string crlf = "\r\n";		// Carriage Return, Line Forward
 128:Core/Inc/NMEA_Standard.hpp **** };
 129:Core/Inc/NMEA_Standard.hpp **** 
 130:Core/Inc/NMEA_Standard.hpp **** enum class NMEA_Standard::TalkerID {
 131:Core/Inc/NMEA_Standard.hpp **** 	GP,	// GPS, SBAS
 132:Core/Inc/NMEA_Standard.hpp **** 	GL, // GLONASS
 133:Core/Inc/NMEA_Standard.hpp **** 	GA,	// Galileo
 134:Core/Inc/NMEA_Standard.hpp **** 	GB,	// BeiDou
 135:Core/Inc/NMEA_Standard.hpp **** 	GQ,	// QZSS
 136:Core/Inc/NMEA_Standard.hpp **** 	GN,	// Any Combination
 137:Core/Inc/NMEA_Standard.hpp **** };
 138:Core/Inc/NMEA_Standard.hpp **** 
 139:Core/Inc/NMEA_Standard.hpp **** enum class NMEA_Standard::Message{
 140:Core/Inc/NMEA_Standard.hpp **** 	DTM,	// Datum Reference
 141:Core/Inc/NMEA_Standard.hpp **** 	GAQ,	// GA Poll
 142:Core/Inc/NMEA_Standard.hpp **** 	GBQ,	// GB Poll
 143:Core/Inc/NMEA_Standard.hpp **** 	GBS,	// Satellite Fault Detection
 144:Core/Inc/NMEA_Standard.hpp **** 	GGA,	// GPS Fix Data
 145:Core/Inc/NMEA_Standard.hpp **** 	GLL,	// Location with Time and Fix Status
 146:Core/Inc/NMEA_Standard.hpp **** 	GLQ,	// GL Poll
 147:Core/Inc/NMEA_Standard.hpp **** 	GNQ,	// GN Poll
 148:Core/Inc/NMEA_Standard.hpp **** 	GNS,	// GNSS Fix Data
 149:Core/Inc/NMEA_Standard.hpp **** 	GPQ,	// GP Poll
 150:Core/Inc/NMEA_Standard.hpp **** 	GRS,	// GNSS Range Residuals
 151:Core/Inc/NMEA_Standard.hpp **** 	GSA,	// GNSS Dilution of Precision
 152:Core/Inc/NMEA_Standard.hpp **** 	GST,	// GNSS Pseudorange Error Statistics
 153:Core/Inc/NMEA_Standard.hpp **** 	GSV,	// GNSS Satellites in View
 154:Core/Inc/NMEA_Standard.hpp **** 	RLM,	// Return Link Message
 155:Core/Inc/NMEA_Standard.hpp **** 	RMC,	// Recommended Minimum Data
 156:Core/Inc/NMEA_Standard.hpp **** 	TXT,	// Test transmission
 157:Core/Inc/NMEA_Standard.hpp **** 	VLW,	// Dual Ground/Water Distance
 158:Core/Inc/NMEA_Standard.hpp **** 	VTG,	// Course over Ground and Speed
 159:Core/Inc/NMEA_Standard.hpp **** 	ZDA 	// Time and Date
 160:Core/Inc/NMEA_Standard.hpp **** };
 161:Core/Inc/NMEA_Standard.hpp **** 
 162:Core/Inc/NMEA_Standard.hpp **** class NMEA_Standard::GNS : public NMEA_Standard{
 163:Core/Inc/NMEA_Standard.hpp **** private:
 164:Core/Inc/NMEA_Standard.hpp **** 	Address addr;
 165:Core/Inc/NMEA_Standard.hpp **** 	UTC_Time time;	// GNSS UTC Time
 166:Core/Inc/NMEA_Standard.hpp **** 	Coordinate lat;	// Latitude
 167:Core/Inc/NMEA_Standard.hpp **** 	char NS;	// North / South
 168:Core/Inc/NMEA_Standard.hpp **** 	Coordinate lon;	// Longitude
 169:Core/Inc/NMEA_Standard.hpp **** 	char EW;	// East / West
 170:Core/Inc/NMEA_Standard.hpp **** 	string posMode;	// Positioning Mode
 171:Core/Inc/NMEA_Standard.hpp **** 	uint8_t numSV;	// Number of Satellites
 172:Core/Inc/NMEA_Standard.hpp **** 	float hdop;	// Horizontal Dilution of Precision
 173:Core/Inc/NMEA_Standard.hpp **** 	float alt;	// Altitude
 174:Core/Inc/NMEA_Standard.hpp **** 	float sep;	// Geoid Separation
 175:Core/Inc/NMEA_Standard.hpp **** 	float diffAge;	// Age of Differential Corrections
 176:Core/Inc/NMEA_Standard.hpp **** 	uint16_t diffStation;	// Differential Correction Station ID
 177:Core/Inc/NMEA_Standard.hpp **** 	char navStatus;	// Navigational Status Indicator
 178:Core/Inc/NMEA_Standard.hpp **** 	
 179:Core/Inc/NMEA_Standard.hpp **** public:
 180:Core/Inc/NMEA_Standard.hpp **** 	GNS(const std::array<StaticString, 15> & fields);
 181:Core/Inc/NMEA_Standard.hpp **** 	GNS(const string & nmea);
 182:Core/Inc/NMEA_Standard.hpp **** 	virtual ~GNS() = default;
ARM GAS  /var/folders/bb/dhrb69655gd8t4nf464nxc_00000gn/T//ccJ8l31o.s 			page 15


 183:Core/Inc/NMEA_Standard.hpp **** 
 184:Core/Inc/NMEA_Standard.hpp **** 	virtual string toString() final { return ""; }	// Unimplemented
 185:Core/Inc/NMEA_Standard.hpp **** };
 186:Core/Inc/NMEA_Standard.hpp **** 
 187:Core/Inc/NMEA_Standard.hpp **** class NMEA_Standard::GLL : public NMEA_Standard{
 188:Core/Inc/NMEA_Standard.hpp **** private:
 189:Core/Inc/NMEA_Standard.hpp **** 	Address addr;
 190:Core/Inc/NMEA_Standard.hpp **** 	Coordinate lat;
 191:Core/Inc/NMEA_Standard.hpp **** 	char NS;
 192:Core/Inc/NMEA_Standard.hpp **** 	Coordinate lon;
 193:Core/Inc/NMEA_Standard.hpp **** 	char EW;
 194:Core/Inc/NMEA_Standard.hpp **** 	UTC_Time time;
 195:Core/Inc/NMEA_Standard.hpp **** 	char status;
 196:Core/Inc/NMEA_Standard.hpp **** 	char posMode;
 197:Core/Inc/NMEA_Standard.hpp **** 
 198:Core/Inc/NMEA_Standard.hpp **** public:
 199:Core/Inc/NMEA_Standard.hpp **** 	GLL(const std::array<StaticString, 9> & fields);
 200:Core/Inc/NMEA_Standard.hpp **** 	GLL(const string & nmea);
 201:Core/Inc/NMEA_Standard.hpp **** 	virtual string toString(char *) final{return "";}
 423              		.loc 3 201 17
 424              		.cfi_startproc
 425              		@ args = 0, pretend = 0, frame = 16
 426              		@ frame_needed = 1, uses_anonymous_args = 0
 427 0000 80B5     		push	{r7, lr}
 428              		.cfi_def_cfa_offset 8
 429              		.cfi_offset 7, -8
 430              		.cfi_offset 14, -4
 431 0002 84B0     		sub	sp, sp, #16
 432              		.cfi_def_cfa_offset 24
 433 0004 00AF     		add	r7, sp, #0
 434              		.cfi_def_cfa_register 7
 435 0006 F860     		str	r0, [r7, #12]
 436 0008 B960     		str	r1, [r7, #8]
 437 000a 7A60     		str	r2, [r7, #4]
 438              		.loc 3 201 47
 439 000c 0349     		ldr	r1, .L7
 440 000e F868     		ldr	r0, [r7, #12]
 441 0010 FFF7FEFF 		bl	_ZN12StaticStringC1EPKc
 442              		.loc 3 201 50
 443 0014 F868     		ldr	r0, [r7, #12]
 444 0016 1037     		adds	r7, r7, #16
 445              		.cfi_def_cfa_offset 8
 446 0018 BD46     		mov	sp, r7
 447              		.cfi_def_cfa_register 13
 448              		@ sp needed
 449 001a 80BD     		pop	{r7, pc}
 450              	.L8:
 451              		.align	2
 452              	.L7:
 453 001c 00000000 		.word	.LC0
 454              		.cfi_endproc
 455              	.LFE1901:
 456              		.cantunwind
 457              		.fnend
 459              		.section	.text._ZN13NMEA_StandardD2Ev,"axG",%progbits,_ZN13NMEA_StandardD5Ev,comdat
 460              		.align	1
 461              		.weak	_ZN13NMEA_StandardD2Ev
ARM GAS  /var/folders/bb/dhrb69655gd8t4nf464nxc_00000gn/T//ccJ8l31o.s 			page 16


 462              		.syntax unified
 463              		.thumb
 464              		.thumb_func
 466              	_ZN13NMEA_StandardD2Ev:
 467              		.fnstart
 468              	.LFB1909:
  55:Core/Inc/NMEA_Standard.hpp **** 
 469              		.loc 3 55 10
 470              		.cfi_startproc
 471              		@ args = 0, pretend = 0, frame = 8
 472              		@ frame_needed = 1, uses_anonymous_args = 0
 473              		@ link register save eliminated.
 474 0000 80B4     		push	{r7}
 475              		.cfi_def_cfa_offset 4
 476              		.cfi_offset 7, -4
 477 0002 83B0     		sub	sp, sp, #12
 478              		.cfi_def_cfa_offset 16
 479 0004 00AF     		add	r7, sp, #0
 480              		.cfi_def_cfa_register 7
 481 0006 7860     		str	r0, [r7, #4]
 482              	.LBB3:
  55:Core/Inc/NMEA_Standard.hpp **** 
 483              		.loc 3 55 10
 484 0008 044A     		ldr	r2, .L11
 485 000a 7B68     		ldr	r3, [r7, #4]
 486 000c 1A60     		str	r2, [r3]
 487              	.LBE3:
 488 000e 7B68     		ldr	r3, [r7, #4]
 489 0010 1846     		mov	r0, r3
 490 0012 0C37     		adds	r7, r7, #12
 491              		.cfi_def_cfa_offset 4
 492 0014 BD46     		mov	sp, r7
 493              		.cfi_def_cfa_register 13
 494              		@ sp needed
 495 0016 5DF8047B 		ldr	r7, [sp], #4
 496              		.cfi_restore 7
 497              		.cfi_def_cfa_offset 0
 498 001a 7047     		bx	lr
 499              	.L12:
 500              		.align	2
 501              	.L11:
 502 001c 08000000 		.word	_ZTV13NMEA_Standard+8
 503              		.cfi_endproc
 504              	.LFE1909:
 505              		.cantunwind
 506              		.fnend
 508              		.weak	_ZN13NMEA_StandardD1Ev
 509              		.thumb_set _ZN13NMEA_StandardD1Ev,_ZN13NMEA_StandardD2Ev
 510              		.section	.text._ZN13NMEA_StandardD0Ev,"axG",%progbits,_ZN13NMEA_StandardD5Ev,comdat
 511              		.align	1
 512              		.weak	_ZN13NMEA_StandardD0Ev
 513              		.syntax unified
 514              		.thumb
 515              		.thumb_func
 517              	_ZN13NMEA_StandardD0Ev:
 518              		.fnstart
 519              	.LFB1911:
ARM GAS  /var/folders/bb/dhrb69655gd8t4nf464nxc_00000gn/T//ccJ8l31o.s 			page 17


  55:Core/Inc/NMEA_Standard.hpp **** 
 520              		.loc 3 55 10
 521              		.cfi_startproc
 522              		@ args = 0, pretend = 0, frame = 8
 523              		@ frame_needed = 1, uses_anonymous_args = 0
 524 0000 80B5     		push	{r7, lr}
 525              		.cfi_def_cfa_offset 8
 526              		.cfi_offset 7, -8
 527              		.cfi_offset 14, -4
 528 0002 82B0     		sub	sp, sp, #8
 529              		.cfi_def_cfa_offset 16
 530 0004 00AF     		add	r7, sp, #0
 531              		.cfi_def_cfa_register 7
 532 0006 7860     		str	r0, [r7, #4]
  55:Core/Inc/NMEA_Standard.hpp **** 
 533              		.loc 3 55 10
 534 0008 7868     		ldr	r0, [r7, #4]
 535 000a FFF7FEFF 		bl	_ZN13NMEA_StandardD1Ev
 536 000e 1021     		movs	r1, #16
 537 0010 7868     		ldr	r0, [r7, #4]
 538 0012 FFF7FEFF 		bl	_ZdlPvj
 539 0016 7B68     		ldr	r3, [r7, #4]
 540 0018 1846     		mov	r0, r3
 541 001a 0837     		adds	r7, r7, #8
 542              		.cfi_def_cfa_offset 8
 543 001c BD46     		mov	sp, r7
 544              		.cfi_def_cfa_register 13
 545              		@ sp needed
 546 001e 80BD     		pop	{r7, pc}
 547              		.cfi_endproc
 548              	.LFE1911:
 549              		.cantunwind
 550              		.fnend
 552              		.section	.text._ZN8M9N_BaseC2Ev,"axG",%progbits,_ZN8M9N_BaseC5Ev,comdat
 553              		.align	1
 554              		.weak	_ZN8M9N_BaseC2Ev
 555              		.syntax unified
 556              		.thumb
 557              		.thumb_func
 559              	_ZN8M9N_BaseC2Ev:
 560              		.fnstart
 561              	.LFB2242:
 562              		.file 4 "Core/Inc/M9N_Base.hpp"
   1:Core/Inc/M9N_Base.hpp **** /**
   2:Core/Inc/M9N_Base.hpp ****   ******************************************************************************
   3:Core/Inc/M9N_Base.hpp ****   * @file           : M9N.hpp
   4:Core/Inc/M9N_Base.hpp ****   * @brief          : Header file for uBlox M9N Base Driver.
   5:Core/Inc/M9N_Base.hpp ****   * @author			: Lawrence Stanton
   6:Core/Inc/M9N_Base.hpp ****   ******************************************************************************
   7:Core/Inc/M9N_Base.hpp ****   * @attention
   8:Core/Inc/M9N_Base.hpp ****   *
   9:Core/Inc/M9N_Base.hpp ****   *  LD Stanton 2022
  10:Core/Inc/M9N_Base.hpp ****   * 
  11:Core/Inc/M9N_Base.hpp ****   * This file and its content are the copyright property of the author. All 
  12:Core/Inc/M9N_Base.hpp ****   * rights are reserved. No warranty is given. No liability is assumed.
  13:Core/Inc/M9N_Base.hpp ****   * Confidential unless licensed otherwise. If licensed, refer to the 
  14:Core/Inc/M9N_Base.hpp ****   * accompanying file "LICENCE" for license details.
ARM GAS  /var/folders/bb/dhrb69655gd8t4nf464nxc_00000gn/T//ccJ8l31o.s 			page 18


  15:Core/Inc/M9N_Base.hpp ****   * 
  16:Core/Inc/M9N_Base.hpp ****   ******************************************************************************
  17:Core/Inc/M9N_Base.hpp ****   */
  18:Core/Inc/M9N_Base.hpp **** 
  19:Core/Inc/M9N_Base.hpp **** #pragma once
  20:Core/Inc/M9N_Base.hpp **** 
  21:Core/Inc/M9N_Base.hpp **** #include <stdio.h>
  22:Core/Inc/M9N_Base.hpp **** #include <string>
  23:Core/Inc/M9N_Base.hpp **** #include <vector>
  24:Core/Inc/M9N_Base.hpp **** 
  25:Core/Inc/M9N_Base.hpp **** #include "UBX.hpp"
  26:Core/Inc/M9N_Base.hpp **** #include "NMEA_Standard.hpp"
  27:Core/Inc/M9N_Base.hpp **** #include "StaticString.hpp"
  28:Core/Inc/M9N_Base.hpp **** 
  29:Core/Inc/M9N_Base.hpp **** 
  30:Core/Inc/M9N_Base.hpp **** class M9N_Base{
 563              		.loc 4 30 7
 564              		.cfi_startproc
 565              		@ args = 0, pretend = 0, frame = 8
 566              		@ frame_needed = 1, uses_anonymous_args = 0
 567              		@ link register save eliminated.
 568 0000 80B4     		push	{r7}
 569              		.cfi_def_cfa_offset 4
 570              		.cfi_offset 7, -4
 571 0002 83B0     		sub	sp, sp, #12
 572              		.cfi_def_cfa_offset 16
 573 0004 00AF     		add	r7, sp, #0
 574              		.cfi_def_cfa_register 7
 575 0006 7860     		str	r0, [r7, #4]
 576              	.LBB4:
 577              		.loc 4 30 7
 578 0008 064A     		ldr	r2, .L17
 579 000a 7B68     		ldr	r3, [r7, #4]
 580 000c 1A60     		str	r2, [r3]
 581 000e 7B68     		ldr	r3, [r7, #4]
 582 0010 4FF41642 		mov	r2, #38400
 583 0014 5A60     		str	r2, [r3, #4]
 584              	.LBE4:
 585 0016 7B68     		ldr	r3, [r7, #4]
 586 0018 1846     		mov	r0, r3
 587 001a 0C37     		adds	r7, r7, #12
 588              		.cfi_def_cfa_offset 4
 589 001c BD46     		mov	sp, r7
 590              		.cfi_def_cfa_register 13
 591              		@ sp needed
 592 001e 5DF8047B 		ldr	r7, [sp], #4
 593              		.cfi_restore 7
 594              		.cfi_def_cfa_offset 0
 595 0022 7047     		bx	lr
 596              	.L18:
 597              		.align	2
 598              	.L17:
 599 0024 08000000 		.word	_ZTV8M9N_Base+8
 600              		.cfi_endproc
 601              	.LFE2242:
 602              		.cantunwind
 603              		.fnend
ARM GAS  /var/folders/bb/dhrb69655gd8t4nf464nxc_00000gn/T//ccJ8l31o.s 			page 19


 605              		.weak	_ZN8M9N_BaseC1Ev
 606              		.thumb_set _ZN8M9N_BaseC1Ev,_ZN8M9N_BaseC2Ev
 607              		.section	.text._ZN3M9NC2EP20__UART_HandleTypeDef9IRQn_TypeS2_S2_,"ax",%progbits
 608              		.align	1
 609              		.global	_ZN3M9NC2EP20__UART_HandleTypeDef9IRQn_TypeS2_S2_
 610              		.syntax unified
 611              		.thumb
 612              		.thumb_func
 614              	_ZN3M9NC2EP20__UART_HandleTypeDef9IRQn_TypeS2_S2_:
 615              		.fnstart
 616              	.LFB2244:
 617              		.file 5 "Core/Src/M9N_STM32.cpp"
   1:Core/Src/M9N_STM32.cpp **** /**
   2:Core/Src/M9N_STM32.cpp ****   ******************************************************************************
   3:Core/Src/M9N_STM32.cpp ****   * @file           : M9N_STM32.cpp
   4:Core/Src/M9N_STM32.cpp ****   * @brief          : Source / Header file for M9N_STM32.c/.h
   5:Core/Src/M9N_STM32.cpp ****   * @author			: Lawrence Stanton
   6:Core/Src/M9N_STM32.cpp ****   ******************************************************************************
   7:Core/Src/M9N_STM32.cpp ****   * @attention
   8:Core/Src/M9N_STM32.cpp ****   *
   9:Core/Src/M9N_STM32.cpp ****   *  LD Stanton 2022
  10:Core/Src/M9N_STM32.cpp ****   *
  11:Core/Src/M9N_STM32.cpp ****   * This file and its content are the copyright property of the author. All
  12:Core/Src/M9N_STM32.cpp ****   * rights are reserved. No warranty is given. No liability is assumed.
  13:Core/Src/M9N_STM32.cpp ****   * Confidential unless licensed otherwise. If licensed, refer to the
  14:Core/Src/M9N_STM32.cpp ****   * accompanying file "LICENCE" for license details.
  15:Core/Src/M9N_STM32.cpp ****   *
  16:Core/Src/M9N_STM32.cpp ****   ******************************************************************************
  17:Core/Src/M9N_STM32.cpp ****   */
  18:Core/Src/M9N_STM32.cpp **** 
  19:Core/Src/M9N_STM32.cpp **** 
  20:Core/Src/M9N_STM32.cpp **** #include "M9N_STM32.hpp"
  21:Core/Src/M9N_STM32.cpp **** #include <array>
  22:Core/Src/M9N_STM32.cpp **** #include <algorithm>
  23:Core/Src/M9N_STM32.cpp **** #include <string>
  24:Core/Src/M9N_STM32.cpp **** #include <vector>
  25:Core/Src/M9N_STM32.cpp **** 
  26:Core/Src/M9N_STM32.cpp **** M9N::M9N(UART_HandleTypeDef * h, IRQn_Type uartIrq, IRQn_Type dmaTxIrq, IRQn_Type dmaRxIrq) :
 618              		.loc 5 26 1
 619              		.cfi_startproc
 620              		@ args = 4, pretend = 0, frame = 16
 621              		@ frame_needed = 1, uses_anonymous_args = 0
 622 0000 80B5     		push	{r7, lr}
 623              		.save {r7, lr}
 624              		.cfi_def_cfa_offset 8
 625              		.cfi_offset 7, -8
 626              		.cfi_offset 14, -4
 627              		.pad #24
 628 0002 86B0     		sub	sp, sp, #24
 629              		.cfi_def_cfa_offset 32
 630              		.setfp r7, sp, #8
 631 0004 02AF     		add	r7, sp, #8
 632              		.cfi_def_cfa 7, 24
 633 0006 F860     		str	r0, [r7, #12]
 634 0008 B960     		str	r1, [r7, #8]
 635 000a 1146     		mov	r1, r2
 636 000c 1A46     		mov	r2, r3
ARM GAS  /var/folders/bb/dhrb69655gd8t4nf464nxc_00000gn/T//ccJ8l31o.s 			page 20


 637 000e 0B46     		mov	r3, r1
 638 0010 FB71     		strb	r3, [r7, #7]
 639 0012 1346     		mov	r3, r2
 640 0014 BB71     		strb	r3, [r7, #6]
 641              	.LBB5:
  27:Core/Src/M9N_STM32.cpp **** 	uart(h, uartIrq, dmaTxIrq, dmaRxIrq) {}
 642              		.loc 5 27 37
 643 0016 FB68     		ldr	r3, [r7, #12]
 644 0018 1846     		mov	r0, r3
 645 001a FFF7FEFF 		bl	_ZN8M9N_BaseC2Ev
 646 001e 0B4A     		ldr	r2, .L21
 647 0020 FB68     		ldr	r3, [r7, #12]
 648 0022 1A60     		str	r2, [r3]
 649 0024 FB68     		ldr	r3, [r7, #12]
 650 0026 03F10800 		add	r0, r3, #8
 651 002a 97F90610 		ldrsb	r1, [r7, #6]
 652 002e 97F90720 		ldrsb	r2, [r7, #7]
 653 0032 97F91830 		ldrsb	r3, [r7, #24]
 654 0036 0093     		str	r3, [sp]
 655 0038 0B46     		mov	r3, r1
 656 003a B968     		ldr	r1, [r7, #8]
 657 003c FFF7FEFF 		bl	_ZN4UARTC1EP20__UART_HandleTypeDef9IRQn_TypeS2_S2_
 658              	.LBE5:
 659              		.loc 5 27 40
 660 0040 FB68     		ldr	r3, [r7, #12]
 661 0042 1846     		mov	r0, r3
 662 0044 1037     		adds	r7, r7, #16
 663              		.cfi_def_cfa_offset 8
 664 0046 BD46     		mov	sp, r7
 665              		.cfi_def_cfa_register 13
 666              		@ sp needed
 667 0048 80BD     		pop	{r7, pc}
 668              	.L22:
 669 004a 00BF     		.align	2
 670              	.L21:
 671 004c 08000000 		.word	_ZTV3M9N+8
 672              		.cfi_endproc
 673              	.LFE2244:
 674              		.fnend
 676              		.global	_ZN3M9NC1EP20__UART_HandleTypeDef9IRQn_TypeS2_S2_
 677              		.thumb_set _ZN3M9NC1EP20__UART_HandleTypeDef9IRQn_TypeS2_S2_,_ZN3M9NC2EP20__UART_HandleTypeDef9IRQ
 678              		.section	.text._ZN3M9N4initEv,"ax",%progbits
 679              		.align	1
 680              		.global	_ZN3M9N4initEv
 681              		.syntax unified
 682              		.thumb
 683              		.thumb_func
 685              	_ZN3M9N4initEv:
 686              		.fnstart
 687              	.LFB2246:
  28:Core/Src/M9N_STM32.cpp **** 
  29:Core/Src/M9N_STM32.cpp **** void M9N::init(){
 688              		.loc 5 29 17
 689              		.cfi_startproc
 690              		@ args = 0, pretend = 0, frame = 8
 691              		@ frame_needed = 1, uses_anonymous_args = 0
 692 0000 80B5     		push	{r7, lr}
ARM GAS  /var/folders/bb/dhrb69655gd8t4nf464nxc_00000gn/T//ccJ8l31o.s 			page 21


 693              		.save {r7, lr}
 694              		.cfi_def_cfa_offset 8
 695              		.cfi_offset 7, -8
 696              		.cfi_offset 14, -4
 697              		.pad #8
 698 0002 82B0     		sub	sp, sp, #8
 699              		.cfi_def_cfa_offset 16
 700              		.setfp r7, sp, #0
 701 0004 00AF     		add	r7, sp, #0
 702              		.cfi_def_cfa_register 7
 703 0006 7860     		str	r0, [r7, #4]
  30:Core/Src/M9N_STM32.cpp **** 	uart.rx.beginReceive();
 704              		.loc 5 30 22
 705 0008 7B68     		ldr	r3, [r7, #4]
 706 000a 03F50A73 		add	r3, r3, #552
 707 000e 1846     		mov	r0, r3
 708 0010 FFF7FEFF 		bl	_ZN4UART2Rx12beginReceiveEv
  31:Core/Src/M9N_STM32.cpp **** }
 709              		.loc 5 31 1
 710 0014 00BF     		nop
 711 0016 0837     		adds	r7, r7, #8
 712              		.cfi_def_cfa_offset 8
 713 0018 BD46     		mov	sp, r7
 714              		.cfi_def_cfa_register 13
 715              		@ sp needed
 716 001a 80BD     		pop	{r7, pc}
 717              		.cfi_endproc
 718              	.LFE2246:
 719              		.fnend
 721              		.section	.text._ZN3M9N8transmitEPKhS1_,"ax",%progbits
 722              		.align	1
 723              		.global	_ZN3M9N8transmitEPKhS1_
 724              		.syntax unified
 725              		.thumb
 726              		.thumb_func
 728              	_ZN3M9N8transmitEPKhS1_:
 729              		.fnstart
 730              	.LFB2247:
  32:Core/Src/M9N_STM32.cpp **** 
  33:Core/Src/M9N_STM32.cpp **** void M9N::transmit(const uint8_t * first, const uint8_t * last){
 731              		.loc 5 33 64
 732              		.cfi_startproc
 733              		@ args = 0, pretend = 0, frame = 16
 734              		@ frame_needed = 1, uses_anonymous_args = 0
 735 0000 80B5     		push	{r7, lr}
 736              		.save {r7, lr}
 737              		.cfi_def_cfa_offset 8
 738              		.cfi_offset 7, -8
 739              		.cfi_offset 14, -4
 740              		.pad #16
 741 0002 84B0     		sub	sp, sp, #16
 742              		.cfi_def_cfa_offset 24
 743              		.setfp r7, sp, #0
 744 0004 00AF     		add	r7, sp, #0
 745              		.cfi_def_cfa_register 7
 746 0006 F860     		str	r0, [r7, #12]
 747 0008 B960     		str	r1, [r7, #8]
ARM GAS  /var/folders/bb/dhrb69655gd8t4nf464nxc_00000gn/T//ccJ8l31o.s 			page 22


 748 000a 7A60     		str	r2, [r7, #4]
  34:Core/Src/M9N_STM32.cpp **** 	uart.tx.transmit(first, last);	// Delegate
 749              		.loc 5 34 18
 750 000c FB68     		ldr	r3, [r7, #12]
 751 000e 1033     		adds	r3, r3, #16
 752 0010 7A68     		ldr	r2, [r7, #4]
 753 0012 B968     		ldr	r1, [r7, #8]
 754 0014 1846     		mov	r0, r3
 755 0016 FFF7FEFF 		bl	_ZN4UART2Tx8transmitIhEEvPKT_S4_
  35:Core/Src/M9N_STM32.cpp **** }
 756              		.loc 5 35 1
 757 001a 00BF     		nop
 758 001c 1037     		adds	r7, r7, #16
 759              		.cfi_def_cfa_offset 8
 760 001e BD46     		mov	sp, r7
 761              		.cfi_def_cfa_register 13
 762              		@ sp needed
 763 0020 80BD     		pop	{r7, pc}
 764              		.cfi_endproc
 765              	.LFE2247:
 766              		.fnend
 768              		.section	.text._ZN3M9N5delayEm,"axG",%progbits,_ZN3M9N5delayEm,comdat
 769              		.align	1
 770              		.weak	_ZN3M9N5delayEm
 771              		.syntax unified
 772              		.thumb
 773              		.thumb_func
 775              	_ZN3M9N5delayEm:
 776              		.fnstart
 777              	.LFB2248:
  36:Core/Src/M9N_STM32.cpp **** 
  37:Core/Src/M9N_STM32.cpp **** 
  38:Core/Src/M9N_STM32.cpp **** inline void M9N::delay(uint32_t delay){ HAL_Delay(delay); }
 778              		.loc 5 38 39
 779              		.cfi_startproc
 780              		@ args = 0, pretend = 0, frame = 8
 781              		@ frame_needed = 1, uses_anonymous_args = 0
 782 0000 80B5     		push	{r7, lr}
 783              		.save {r7, lr}
 784              		.cfi_def_cfa_offset 8
 785              		.cfi_offset 7, -8
 786              		.cfi_offset 14, -4
 787              		.pad #8
 788 0002 82B0     		sub	sp, sp, #8
 789              		.cfi_def_cfa_offset 16
 790              		.setfp r7, sp, #0
 791 0004 00AF     		add	r7, sp, #0
 792              		.cfi_def_cfa_register 7
 793 0006 7860     		str	r0, [r7, #4]
 794 0008 3960     		str	r1, [r7]
 795              		.loc 5 38 50
 796 000a 3868     		ldr	r0, [r7]
 797 000c FFF7FEFF 		bl	HAL_Delay
 798              		.loc 5 38 59
 799 0010 00BF     		nop
 800 0012 0837     		adds	r7, r7, #8
 801              		.cfi_def_cfa_offset 8
ARM GAS  /var/folders/bb/dhrb69655gd8t4nf464nxc_00000gn/T//ccJ8l31o.s 			page 23


 802 0014 BD46     		mov	sp, r7
 803              		.cfi_def_cfa_register 13
 804              		@ sp needed
 805 0016 80BD     		pop	{r7, pc}
 806              		.cfi_endproc
 807              	.LFE2248:
 808              		.fnend
 810              		.section	.text._ZN3M9N11setBaudrateEN8M9N_Base4BaudENS0_6PortIDE,"ax",%progbits
 811              		.align	1
 812              		.global	_ZN3M9N11setBaudrateEN8M9N_Base4BaudENS0_6PortIDE
 813              		.syntax unified
 814              		.thumb
 815              		.thumb_func
 817              	_ZN3M9N11setBaudrateEN8M9N_Base4BaudENS0_6PortIDE:
 818              		.fnstart
 819              	.LFB2249:
  39:Core/Src/M9N_STM32.cpp **** 
  40:Core/Src/M9N_STM32.cpp **** void M9N::setBaudrate(Baud baud, PortID portId){
 820              		.loc 5 40 48
 821              		.cfi_startproc
 822              		@ args = 0, pretend = 0, frame = 16
 823              		@ frame_needed = 1, uses_anonymous_args = 0
 824 0000 80B5     		push	{r7, lr}
 825              		.save {r7, lr}
 826              		.cfi_def_cfa_offset 8
 827              		.cfi_offset 7, -8
 828              		.cfi_offset 14, -4
 829              		.pad #16
 830 0002 84B0     		sub	sp, sp, #16
 831              		.cfi_def_cfa_offset 24
 832              		.setfp r7, sp, #0
 833 0004 00AF     		add	r7, sp, #0
 834              		.cfi_def_cfa_register 7
 835 0006 F860     		str	r0, [r7, #12]
 836 0008 B960     		str	r1, [r7, #8]
 837 000a 1346     		mov	r3, r2
 838 000c FB71     		strb	r3, [r7, #7]
  41:Core/Src/M9N_STM32.cpp **** 	switch (portId){
 839              		.loc 5 41 2
 840 000e FB79     		ldrb	r3, [r7, #7]	@ zero_extendqisi2
 841 0010 012B     		cmp	r3, #1
 842 0012 03D0     		beq	.L27
 843 0014 FB79     		ldrb	r3, [r7, #7]	@ zero_extendqisi2
 844 0016 032B     		cmp	r3, #3
 845 0018 0FD0     		beq	.L32
  42:Core/Src/M9N_STM32.cpp **** 		case PortID::UART1:
  43:Core/Src/M9N_STM32.cpp **** 			if(this->baud != baud){
  44:Core/Src/M9N_STM32.cpp **** 				uart.setBaudrate(static_cast<uint32_t>(baud));
  45:Core/Src/M9N_STM32.cpp **** 				this->baud = baud;
  46:Core/Src/M9N_STM32.cpp **** 			}
  47:Core/Src/M9N_STM32.cpp **** 			break;
  48:Core/Src/M9N_STM32.cpp **** 		case PortID::USB:
  49:Core/Src/M9N_STM32.cpp **** 			// Unimplemented
  50:Core/Src/M9N_STM32.cpp **** 			break;
  51:Core/Src/M9N_STM32.cpp **** 		default:
  52:Core/Src/M9N_STM32.cpp **** 			break;
 846              		.loc 5 52 4
ARM GAS  /var/folders/bb/dhrb69655gd8t4nf464nxc_00000gn/T//ccJ8l31o.s 			page 24


 847 001a 11E0     		b	.L31
 848              	.L27:
  43:Core/Src/M9N_STM32.cpp **** 				uart.setBaudrate(static_cast<uint32_t>(baud));
 849              		.loc 5 43 13
 850 001c FB68     		ldr	r3, [r7, #12]
 851 001e 5B68     		ldr	r3, [r3, #4]
  43:Core/Src/M9N_STM32.cpp **** 				uart.setBaudrate(static_cast<uint32_t>(baud));
 852              		.loc 5 43 4
 853 0020 BA68     		ldr	r2, [r7, #8]
 854 0022 9A42     		cmp	r2, r3
 855 0024 0BD0     		beq	.L33
  44:Core/Src/M9N_STM32.cpp **** 				this->baud = baud;
 856              		.loc 5 44 21
 857 0026 FB68     		ldr	r3, [r7, #12]
 858 0028 0833     		adds	r3, r3, #8
 859 002a B968     		ldr	r1, [r7, #8]
 860 002c 1846     		mov	r0, r3
 861 002e FFF7FEFF 		bl	_ZNK4UART11setBaudrateEm
  45:Core/Src/M9N_STM32.cpp **** 			}
 862              		.loc 5 45 16
 863 0032 FB68     		ldr	r3, [r7, #12]
 864 0034 BA68     		ldr	r2, [r7, #8]
 865 0036 5A60     		str	r2, [r3, #4]
  47:Core/Src/M9N_STM32.cpp **** 		case PortID::USB:
 866              		.loc 5 47 4
 867 0038 01E0     		b	.L33
 868              	.L32:
  50:Core/Src/M9N_STM32.cpp **** 		default:
 869              		.loc 5 50 4
 870 003a 00BF     		nop
 871 003c 00E0     		b	.L34
 872              	.L33:
  47:Core/Src/M9N_STM32.cpp **** 		case PortID::USB:
 873              		.loc 5 47 4
 874 003e 00BF     		nop
 875              	.L31:
 876              	.L34:
  53:Core/Src/M9N_STM32.cpp **** 	}
  54:Core/Src/M9N_STM32.cpp **** }
 877              		.loc 5 54 1
 878 0040 00BF     		nop
 879 0042 1037     		adds	r7, r7, #16
 880              		.cfi_def_cfa_offset 8
 881 0044 BD46     		mov	sp, r7
 882              		.cfi_def_cfa_register 13
 883              		@ sp needed
 884 0046 80BD     		pop	{r7, pc}
 885              		.cfi_endproc
 886              	.LFE2249:
 887              		.fnend
 889              		.section	.text._ZZN3M9N12scanMessagesEvENKUlhE_clEh,"ax",%progbits
 890              		.align	1
 891              		.syntax unified
 892              		.thumb
 893              		.thumb_func
 895              	_ZZN3M9N12scanMessagesEvENKUlhE_clEh:
 896              		.fnstart
ARM GAS  /var/folders/bb/dhrb69655gd8t4nf464nxc_00000gn/T//ccJ8l31o.s 			page 25


 897              	.LFB2256:
  55:Core/Src/M9N_STM32.cpp **** 
  56:Core/Src/M9N_STM32.cpp **** void M9N::scanMessages(){
  57:Core/Src/M9N_STM32.cpp **** 	std::pair<uint8_t *, uint16_t> s;	// {array, size}
  58:Core/Src/M9N_STM32.cpp **** 	s.second =  uart.rx.offloadBuff.tail;
  59:Core/Src/M9N_STM32.cpp **** 	if(s.second == 0) return;	// Nothing to do
  60:Core/Src/M9N_STM32.cpp **** 	uint8_t buffCopy[s.second];
  61:Core/Src/M9N_STM32.cpp **** 	s.first = buffCopy;
  62:Core/Src/M9N_STM32.cpp **** 
  63:Core/Src/M9N_STM32.cpp **** 	// The later processing will take a while. Pay copy expense in return for flushing the buffer ASAP
  64:Core/Src/M9N_STM32.cpp **** 	uart.interruptsOff();
  65:Core/Src/M9N_STM32.cpp **** 	std::copy(uart.rx.offloadBuff.buff, uart.rx.offloadBuff.buff + s.second, s.first);
  66:Core/Src/M9N_STM32.cpp **** 	uart.rx.offloadBuff.tail = 0;
  67:Core/Src/M9N_STM32.cpp **** 	uart.interruptsOn();
  68:Core/Src/M9N_STM32.cpp **** 
  69:Core/Src/M9N_STM32.cpp **** 	uint16_t lenD = std::count_if(s.first, s.first + s.second, [](uint8_t c) -> bool{ return c == '$';
 898              		.loc 5 69 61
 899              		.cfi_startproc
 900              		@ args = 0, pretend = 0, frame = 8
 901              		@ frame_needed = 1, uses_anonymous_args = 0
 902              		@ link register save eliminated.
 903 0000 80B4     		push	{r7}
 904              		.cfi_def_cfa_offset 4
 905              		.cfi_offset 7, -4
 906 0002 83B0     		sub	sp, sp, #12
 907              		.cfi_def_cfa_offset 16
 908 0004 00AF     		add	r7, sp, #0
 909              		.cfi_def_cfa_register 7
 910 0006 7860     		str	r0, [r7, #4]
 911 0008 0B46     		mov	r3, r1
 912 000a FB70     		strb	r3, [r7, #3]
 913              		.loc 5 69 96
 914 000c FB78     		ldrb	r3, [r7, #3]	@ zero_extendqisi2
 915 000e 242B     		cmp	r3, #36
 916 0010 0CBF     		ite	eq
 917 0012 0123     		moveq	r3, #1
 918 0014 0023     		movne	r3, #0
 919 0016 DBB2     		uxtb	r3, r3
 920              		.loc 5 69 101
 921 0018 1846     		mov	r0, r3
 922 001a 0C37     		adds	r7, r7, #12
 923              		.cfi_def_cfa_offset 4
 924 001c BD46     		mov	sp, r7
 925              		.cfi_def_cfa_register 13
 926              		@ sp needed
 927 001e 5DF8047B 		ldr	r7, [sp], #4
 928              		.cfi_restore 7
 929              		.cfi_def_cfa_offset 0
 930 0022 7047     		bx	lr
 931              		.cfi_endproc
 932              	.LFE2256:
 933              		.cantunwind
 934              		.fnend
 936              		.section	.text._ZZN3M9N12scanMessagesEvENKUlhE0_clEh,"ax",%progbits
 937              		.align	1
 938              		.syntax unified
 939              		.thumb
ARM GAS  /var/folders/bb/dhrb69655gd8t4nf464nxc_00000gn/T//ccJ8l31o.s 			page 26


 940              		.thumb_func
 942              	_ZZN3M9N12scanMessagesEvENKUlhE0_clEh:
 943              		.fnstart
 944              	.LFB2259:
  70:Core/Src/M9N_STM32.cpp **** 	uint16_t lenL = std::count_if(s.first, s.first + s.second, [](uint8_t c) -> bool{ return c == '\r'
 945              		.loc 5 70 61
 946              		.cfi_startproc
 947              		@ args = 0, pretend = 0, frame = 8
 948              		@ frame_needed = 1, uses_anonymous_args = 0
 949              		@ link register save eliminated.
 950 0000 80B4     		push	{r7}
 951              		.cfi_def_cfa_offset 4
 952              		.cfi_offset 7, -4
 953 0002 83B0     		sub	sp, sp, #12
 954              		.cfi_def_cfa_offset 16
 955 0004 00AF     		add	r7, sp, #0
 956              		.cfi_def_cfa_register 7
 957 0006 7860     		str	r0, [r7, #4]
 958 0008 0B46     		mov	r3, r1
 959 000a FB70     		strb	r3, [r7, #3]
 960              		.loc 5 70 96
 961 000c FB78     		ldrb	r3, [r7, #3]	@ zero_extendqisi2
 962 000e 0D2B     		cmp	r3, #13
 963 0010 0CBF     		ite	eq
 964 0012 0123     		moveq	r3, #1
 965 0014 0023     		movne	r3, #0
 966 0016 DBB2     		uxtb	r3, r3
 967              		.loc 5 70 102
 968 0018 1846     		mov	r0, r3
 969 001a 0C37     		adds	r7, r7, #12
 970              		.cfi_def_cfa_offset 4
 971 001c BD46     		mov	sp, r7
 972              		.cfi_def_cfa_register 13
 973              		@ sp needed
 974 001e 5DF8047B 		ldr	r7, [sp], #4
 975              		.cfi_restore 7
 976              		.cfi_def_cfa_offset 0
 977 0022 7047     		bx	lr
 978              		.cfi_endproc
 979              	.LFE2259:
 980              		.cantunwind
 981              		.fnend
 983              		.section	.text._ZZN3M9N12scanMessagesEvENKUlhE1_clEh,"ax",%progbits
 984              		.align	1
 985              		.syntax unified
 986              		.thumb
 987              		.thumb_func
 989              	_ZZN3M9N12scanMessagesEvENKUlhE1_clEh:
 990              		.fnstart
 991              	.LFB2262:
  71:Core/Src/M9N_STM32.cpp **** 	uint16_t lenU = std::count_if(s.first, s.first + s.second, [](uint8_t c) -> bool{ return c == 0xB5
 992              		.loc 5 71 61
 993              		.cfi_startproc
 994              		@ args = 0, pretend = 0, frame = 8
 995              		@ frame_needed = 1, uses_anonymous_args = 0
 996              		@ link register save eliminated.
 997 0000 80B4     		push	{r7}
ARM GAS  /var/folders/bb/dhrb69655gd8t4nf464nxc_00000gn/T//ccJ8l31o.s 			page 27


 998              		.cfi_def_cfa_offset 4
 999              		.cfi_offset 7, -4
 1000 0002 83B0     		sub	sp, sp, #12
 1001              		.cfi_def_cfa_offset 16
 1002 0004 00AF     		add	r7, sp, #0
 1003              		.cfi_def_cfa_register 7
 1004 0006 7860     		str	r0, [r7, #4]
 1005 0008 0B46     		mov	r3, r1
 1006 000a FB70     		strb	r3, [r7, #3]
 1007              		.loc 5 71 96
 1008 000c FB78     		ldrb	r3, [r7, #3]	@ zero_extendqisi2
 1009 000e B52B     		cmp	r3, #181
 1010 0010 0CBF     		ite	eq
 1011 0012 0123     		moveq	r3, #1
 1012 0014 0023     		movne	r3, #0
 1013 0016 DBB2     		uxtb	r3, r3
 1014              		.loc 5 71 102
 1015 0018 1846     		mov	r0, r3
 1016 001a 0C37     		adds	r7, r7, #12
 1017              		.cfi_def_cfa_offset 4
 1018 001c BD46     		mov	sp, r7
 1019              		.cfi_def_cfa_register 13
 1020              		@ sp needed
 1021 001e 5DF8047B 		ldr	r7, [sp], #4
 1022              		.cfi_restore 7
 1023              		.cfi_def_cfa_offset 0
 1024 0022 7047     		bx	lr
 1025              		.cfi_endproc
 1026              	.LFE2262:
 1027              		.cantunwind
 1028              		.fnend
 1030              		.section	.text._ZSt7forwardIjEOT_RNSt16remove_referenceIS0_E4typeE,"axG",%progbits,_ZSt7forwardIjE
 1031              		.align	1
 1032              		.weak	_ZSt7forwardIjEOT_RNSt16remove_referenceIS0_E4typeE
 1033              		.syntax unified
 1034              		.thumb
 1035              		.thumb_func
 1037              	_ZSt7forwardIjEOT_RNSt16remove_referenceIS0_E4typeE:
 1038              		.fnstart
 1039              	.LFB2271:
 1040              		.file 6 "/Users/lawrencestanton/Library/Application Support/Code/User/globalStorage/bmd.stm32-for-
   1:/Users/lawrencestanton/Library/Application Support/Code/User/globalStorage/bmd.stm32-for-vscode/@xpack-dev-tools/arm-none-eabi-gcc/10.3.1-2.3.1/.content/arm-none-eabi/include/c++/10.3.1/bits/move.h **** // Move, forward and identity for C++11 + swap -*- C++ -*-
   2:/Users/lawrencestanton/Library/Application Support/Code/User/globalStorage/bmd.stm32-for-vscode/@xpack-dev-tools/arm-none-eabi-gcc/10.3.1-2.3.1/.content/arm-none-eabi/include/c++/10.3.1/bits/move.h **** 
   3:/Users/lawrencestanton/Library/Application Support/Code/User/globalStorage/bmd.stm32-for-vscode/@xpack-dev-tools/arm-none-eabi-gcc/10.3.1-2.3.1/.content/arm-none-eabi/include/c++/10.3.1/bits/move.h **** // Copyright (C) 2007-2020 Free Software Foundation, Inc.
   4:/Users/lawrencestanton/Library/Application Support/Code/User/globalStorage/bmd.stm32-for-vscode/@xpack-dev-tools/arm-none-eabi-gcc/10.3.1-2.3.1/.content/arm-none-eabi/include/c++/10.3.1/bits/move.h **** //
   5:/Users/lawrencestanton/Library/Application Support/Code/User/globalStorage/bmd.stm32-for-vscode/@xpack-dev-tools/arm-none-eabi-gcc/10.3.1-2.3.1/.content/arm-none-eabi/include/c++/10.3.1/bits/move.h **** // This file is part of the GNU ISO C++ Library.  This library is free
   6:/Users/lawrencestanton/Library/Application Support/Code/User/globalStorage/bmd.stm32-for-vscode/@xpack-dev-tools/arm-none-eabi-gcc/10.3.1-2.3.1/.content/arm-none-eabi/include/c++/10.3.1/bits/move.h **** // software; you can redistribute it and/or modify it under the
   7:/Users/lawrencestanton/Library/Application Support/Code/User/globalStorage/bmd.stm32-for-vscode/@xpack-dev-tools/arm-none-eabi-gcc/10.3.1-2.3.1/.content/arm-none-eabi/include/c++/10.3.1/bits/move.h **** // terms of the GNU General Public License as published by the
   8:/Users/lawrencestanton/Library/Application Support/Code/User/globalStorage/bmd.stm32-for-vscode/@xpack-dev-tools/arm-none-eabi-gcc/10.3.1-2.3.1/.content/arm-none-eabi/include/c++/10.3.1/bits/move.h **** // Free Software Foundation; either version 3, or (at your option)
   9:/Users/lawrencestanton/Library/Application Support/Code/User/globalStorage/bmd.stm32-for-vscode/@xpack-dev-tools/arm-none-eabi-gcc/10.3.1-2.3.1/.content/arm-none-eabi/include/c++/10.3.1/bits/move.h **** // any later version.
  10:/Users/lawrencestanton/Library/Application Support/Code/User/globalStorage/bmd.stm32-for-vscode/@xpack-dev-tools/arm-none-eabi-gcc/10.3.1-2.3.1/.content/arm-none-eabi/include/c++/10.3.1/bits/move.h **** 
  11:/Users/lawrencestanton/Library/Application Support/Code/User/globalStorage/bmd.stm32-for-vscode/@xpack-dev-tools/arm-none-eabi-gcc/10.3.1-2.3.1/.content/arm-none-eabi/include/c++/10.3.1/bits/move.h **** // This library is distributed in the hope that it will be useful,
  12:/Users/lawrencestanton/Library/Application Support/Code/User/globalStorage/bmd.stm32-for-vscode/@xpack-dev-tools/arm-none-eabi-gcc/10.3.1-2.3.1/.content/arm-none-eabi/include/c++/10.3.1/bits/move.h **** // but WITHOUT ANY WARRANTY; without even the implied warranty of
  13:/Users/lawrencestanton/Library/Application Support/Code/User/globalStorage/bmd.stm32-for-vscode/@xpack-dev-tools/arm-none-eabi-gcc/10.3.1-2.3.1/.content/arm-none-eabi/include/c++/10.3.1/bits/move.h **** // MERCHANTABILITY or FITNESS FOR A PARTICULAR PURPOSE.  See the
  14:/Users/lawrencestanton/Library/Application Support/Code/User/globalStorage/bmd.stm32-for-vscode/@xpack-dev-tools/arm-none-eabi-gcc/10.3.1-2.3.1/.content/arm-none-eabi/include/c++/10.3.1/bits/move.h **** // GNU General Public License for more details.
  15:/Users/lawrencestanton/Library/Application Support/Code/User/globalStorage/bmd.stm32-for-vscode/@xpack-dev-tools/arm-none-eabi-gcc/10.3.1-2.3.1/.content/arm-none-eabi/include/c++/10.3.1/bits/move.h **** 
  16:/Users/lawrencestanton/Library/Application Support/Code/User/globalStorage/bmd.stm32-for-vscode/@xpack-dev-tools/arm-none-eabi-gcc/10.3.1-2.3.1/.content/arm-none-eabi/include/c++/10.3.1/bits/move.h **** // Under Section 7 of GPL version 3, you are granted additional
ARM GAS  /var/folders/bb/dhrb69655gd8t4nf464nxc_00000gn/T//ccJ8l31o.s 			page 28


  17:/Users/lawrencestanton/Library/Application Support/Code/User/globalStorage/bmd.stm32-for-vscode/@xpack-dev-tools/arm-none-eabi-gcc/10.3.1-2.3.1/.content/arm-none-eabi/include/c++/10.3.1/bits/move.h **** // permissions described in the GCC Runtime Library Exception, version
  18:/Users/lawrencestanton/Library/Application Support/Code/User/globalStorage/bmd.stm32-for-vscode/@xpack-dev-tools/arm-none-eabi-gcc/10.3.1-2.3.1/.content/arm-none-eabi/include/c++/10.3.1/bits/move.h **** // 3.1, as published by the Free Software Foundation.
  19:/Users/lawrencestanton/Library/Application Support/Code/User/globalStorage/bmd.stm32-for-vscode/@xpack-dev-tools/arm-none-eabi-gcc/10.3.1-2.3.1/.content/arm-none-eabi/include/c++/10.3.1/bits/move.h **** 
  20:/Users/lawrencestanton/Library/Application Support/Code/User/globalStorage/bmd.stm32-for-vscode/@xpack-dev-tools/arm-none-eabi-gcc/10.3.1-2.3.1/.content/arm-none-eabi/include/c++/10.3.1/bits/move.h **** // You should have received a copy of the GNU General Public License and
  21:/Users/lawrencestanton/Library/Application Support/Code/User/globalStorage/bmd.stm32-for-vscode/@xpack-dev-tools/arm-none-eabi-gcc/10.3.1-2.3.1/.content/arm-none-eabi/include/c++/10.3.1/bits/move.h **** // a copy of the GCC Runtime Library Exception along with this program;
  22:/Users/lawrencestanton/Library/Application Support/Code/User/globalStorage/bmd.stm32-for-vscode/@xpack-dev-tools/arm-none-eabi-gcc/10.3.1-2.3.1/.content/arm-none-eabi/include/c++/10.3.1/bits/move.h **** // see the files COPYING3 and COPYING.RUNTIME respectively.  If not, see
  23:/Users/lawrencestanton/Library/Application Support/Code/User/globalStorage/bmd.stm32-for-vscode/@xpack-dev-tools/arm-none-eabi-gcc/10.3.1-2.3.1/.content/arm-none-eabi/include/c++/10.3.1/bits/move.h **** // <http://www.gnu.org/licenses/>.
  24:/Users/lawrencestanton/Library/Application Support/Code/User/globalStorage/bmd.stm32-for-vscode/@xpack-dev-tools/arm-none-eabi-gcc/10.3.1-2.3.1/.content/arm-none-eabi/include/c++/10.3.1/bits/move.h **** 
  25:/Users/lawrencestanton/Library/Application Support/Code/User/globalStorage/bmd.stm32-for-vscode/@xpack-dev-tools/arm-none-eabi-gcc/10.3.1-2.3.1/.content/arm-none-eabi/include/c++/10.3.1/bits/move.h **** /** @file bits/move.h
  26:/Users/lawrencestanton/Library/Application Support/Code/User/globalStorage/bmd.stm32-for-vscode/@xpack-dev-tools/arm-none-eabi-gcc/10.3.1-2.3.1/.content/arm-none-eabi/include/c++/10.3.1/bits/move.h ****  *  This is an internal header file, included by other library headers.
  27:/Users/lawrencestanton/Library/Application Support/Code/User/globalStorage/bmd.stm32-for-vscode/@xpack-dev-tools/arm-none-eabi-gcc/10.3.1-2.3.1/.content/arm-none-eabi/include/c++/10.3.1/bits/move.h ****  *  Do not attempt to use it directly. @headername{utility}
  28:/Users/lawrencestanton/Library/Application Support/Code/User/globalStorage/bmd.stm32-for-vscode/@xpack-dev-tools/arm-none-eabi-gcc/10.3.1-2.3.1/.content/arm-none-eabi/include/c++/10.3.1/bits/move.h ****  */
  29:/Users/lawrencestanton/Library/Application Support/Code/User/globalStorage/bmd.stm32-for-vscode/@xpack-dev-tools/arm-none-eabi-gcc/10.3.1-2.3.1/.content/arm-none-eabi/include/c++/10.3.1/bits/move.h **** 
  30:/Users/lawrencestanton/Library/Application Support/Code/User/globalStorage/bmd.stm32-for-vscode/@xpack-dev-tools/arm-none-eabi-gcc/10.3.1-2.3.1/.content/arm-none-eabi/include/c++/10.3.1/bits/move.h **** #ifndef _MOVE_H
  31:/Users/lawrencestanton/Library/Application Support/Code/User/globalStorage/bmd.stm32-for-vscode/@xpack-dev-tools/arm-none-eabi-gcc/10.3.1-2.3.1/.content/arm-none-eabi/include/c++/10.3.1/bits/move.h **** #define _MOVE_H 1
  32:/Users/lawrencestanton/Library/Application Support/Code/User/globalStorage/bmd.stm32-for-vscode/@xpack-dev-tools/arm-none-eabi-gcc/10.3.1-2.3.1/.content/arm-none-eabi/include/c++/10.3.1/bits/move.h **** 
  33:/Users/lawrencestanton/Library/Application Support/Code/User/globalStorage/bmd.stm32-for-vscode/@xpack-dev-tools/arm-none-eabi-gcc/10.3.1-2.3.1/.content/arm-none-eabi/include/c++/10.3.1/bits/move.h **** #include <bits/c++config.h>
  34:/Users/lawrencestanton/Library/Application Support/Code/User/globalStorage/bmd.stm32-for-vscode/@xpack-dev-tools/arm-none-eabi-gcc/10.3.1-2.3.1/.content/arm-none-eabi/include/c++/10.3.1/bits/move.h **** #if __cplusplus < 201103L
  35:/Users/lawrencestanton/Library/Application Support/Code/User/globalStorage/bmd.stm32-for-vscode/@xpack-dev-tools/arm-none-eabi-gcc/10.3.1-2.3.1/.content/arm-none-eabi/include/c++/10.3.1/bits/move.h **** # include <bits/concept_check.h>
  36:/Users/lawrencestanton/Library/Application Support/Code/User/globalStorage/bmd.stm32-for-vscode/@xpack-dev-tools/arm-none-eabi-gcc/10.3.1-2.3.1/.content/arm-none-eabi/include/c++/10.3.1/bits/move.h **** #endif
  37:/Users/lawrencestanton/Library/Application Support/Code/User/globalStorage/bmd.stm32-for-vscode/@xpack-dev-tools/arm-none-eabi-gcc/10.3.1-2.3.1/.content/arm-none-eabi/include/c++/10.3.1/bits/move.h **** 
  38:/Users/lawrencestanton/Library/Application Support/Code/User/globalStorage/bmd.stm32-for-vscode/@xpack-dev-tools/arm-none-eabi-gcc/10.3.1-2.3.1/.content/arm-none-eabi/include/c++/10.3.1/bits/move.h **** namespace std _GLIBCXX_VISIBILITY(default)
  39:/Users/lawrencestanton/Library/Application Support/Code/User/globalStorage/bmd.stm32-for-vscode/@xpack-dev-tools/arm-none-eabi-gcc/10.3.1-2.3.1/.content/arm-none-eabi/include/c++/10.3.1/bits/move.h **** {
  40:/Users/lawrencestanton/Library/Application Support/Code/User/globalStorage/bmd.stm32-for-vscode/@xpack-dev-tools/arm-none-eabi-gcc/10.3.1-2.3.1/.content/arm-none-eabi/include/c++/10.3.1/bits/move.h **** _GLIBCXX_BEGIN_NAMESPACE_VERSION
  41:/Users/lawrencestanton/Library/Application Support/Code/User/globalStorage/bmd.stm32-for-vscode/@xpack-dev-tools/arm-none-eabi-gcc/10.3.1-2.3.1/.content/arm-none-eabi/include/c++/10.3.1/bits/move.h **** 
  42:/Users/lawrencestanton/Library/Application Support/Code/User/globalStorage/bmd.stm32-for-vscode/@xpack-dev-tools/arm-none-eabi-gcc/10.3.1-2.3.1/.content/arm-none-eabi/include/c++/10.3.1/bits/move.h ****   // Used, in C++03 mode too, by allocators, etc.
  43:/Users/lawrencestanton/Library/Application Support/Code/User/globalStorage/bmd.stm32-for-vscode/@xpack-dev-tools/arm-none-eabi-gcc/10.3.1-2.3.1/.content/arm-none-eabi/include/c++/10.3.1/bits/move.h ****   /**
  44:/Users/lawrencestanton/Library/Application Support/Code/User/globalStorage/bmd.stm32-for-vscode/@xpack-dev-tools/arm-none-eabi-gcc/10.3.1-2.3.1/.content/arm-none-eabi/include/c++/10.3.1/bits/move.h ****    *  @brief Same as C++11 std::addressof
  45:/Users/lawrencestanton/Library/Application Support/Code/User/globalStorage/bmd.stm32-for-vscode/@xpack-dev-tools/arm-none-eabi-gcc/10.3.1-2.3.1/.content/arm-none-eabi/include/c++/10.3.1/bits/move.h ****    *  @ingroup utilities
  46:/Users/lawrencestanton/Library/Application Support/Code/User/globalStorage/bmd.stm32-for-vscode/@xpack-dev-tools/arm-none-eabi-gcc/10.3.1-2.3.1/.content/arm-none-eabi/include/c++/10.3.1/bits/move.h ****    */
  47:/Users/lawrencestanton/Library/Application Support/Code/User/globalStorage/bmd.stm32-for-vscode/@xpack-dev-tools/arm-none-eabi-gcc/10.3.1-2.3.1/.content/arm-none-eabi/include/c++/10.3.1/bits/move.h ****   template<typename _Tp>
  48:/Users/lawrencestanton/Library/Application Support/Code/User/globalStorage/bmd.stm32-for-vscode/@xpack-dev-tools/arm-none-eabi-gcc/10.3.1-2.3.1/.content/arm-none-eabi/include/c++/10.3.1/bits/move.h ****     inline _GLIBCXX_CONSTEXPR _Tp*
  49:/Users/lawrencestanton/Library/Application Support/Code/User/globalStorage/bmd.stm32-for-vscode/@xpack-dev-tools/arm-none-eabi-gcc/10.3.1-2.3.1/.content/arm-none-eabi/include/c++/10.3.1/bits/move.h ****     __addressof(_Tp& __r) _GLIBCXX_NOEXCEPT
  50:/Users/lawrencestanton/Library/Application Support/Code/User/globalStorage/bmd.stm32-for-vscode/@xpack-dev-tools/arm-none-eabi-gcc/10.3.1-2.3.1/.content/arm-none-eabi/include/c++/10.3.1/bits/move.h ****     { return __builtin_addressof(__r); }
  51:/Users/lawrencestanton/Library/Application Support/Code/User/globalStorage/bmd.stm32-for-vscode/@xpack-dev-tools/arm-none-eabi-gcc/10.3.1-2.3.1/.content/arm-none-eabi/include/c++/10.3.1/bits/move.h **** 
  52:/Users/lawrencestanton/Library/Application Support/Code/User/globalStorage/bmd.stm32-for-vscode/@xpack-dev-tools/arm-none-eabi-gcc/10.3.1-2.3.1/.content/arm-none-eabi/include/c++/10.3.1/bits/move.h **** #if __cplusplus >= 201103L
  53:/Users/lawrencestanton/Library/Application Support/Code/User/globalStorage/bmd.stm32-for-vscode/@xpack-dev-tools/arm-none-eabi-gcc/10.3.1-2.3.1/.content/arm-none-eabi/include/c++/10.3.1/bits/move.h **** 
  54:/Users/lawrencestanton/Library/Application Support/Code/User/globalStorage/bmd.stm32-for-vscode/@xpack-dev-tools/arm-none-eabi-gcc/10.3.1-2.3.1/.content/arm-none-eabi/include/c++/10.3.1/bits/move.h **** _GLIBCXX_END_NAMESPACE_VERSION
  55:/Users/lawrencestanton/Library/Application Support/Code/User/globalStorage/bmd.stm32-for-vscode/@xpack-dev-tools/arm-none-eabi-gcc/10.3.1-2.3.1/.content/arm-none-eabi/include/c++/10.3.1/bits/move.h **** } // namespace
  56:/Users/lawrencestanton/Library/Application Support/Code/User/globalStorage/bmd.stm32-for-vscode/@xpack-dev-tools/arm-none-eabi-gcc/10.3.1-2.3.1/.content/arm-none-eabi/include/c++/10.3.1/bits/move.h **** 
  57:/Users/lawrencestanton/Library/Application Support/Code/User/globalStorage/bmd.stm32-for-vscode/@xpack-dev-tools/arm-none-eabi-gcc/10.3.1-2.3.1/.content/arm-none-eabi/include/c++/10.3.1/bits/move.h **** #include <type_traits> // Brings in std::declval too.
  58:/Users/lawrencestanton/Library/Application Support/Code/User/globalStorage/bmd.stm32-for-vscode/@xpack-dev-tools/arm-none-eabi-gcc/10.3.1-2.3.1/.content/arm-none-eabi/include/c++/10.3.1/bits/move.h **** 
  59:/Users/lawrencestanton/Library/Application Support/Code/User/globalStorage/bmd.stm32-for-vscode/@xpack-dev-tools/arm-none-eabi-gcc/10.3.1-2.3.1/.content/arm-none-eabi/include/c++/10.3.1/bits/move.h **** namespace std _GLIBCXX_VISIBILITY(default)
  60:/Users/lawrencestanton/Library/Application Support/Code/User/globalStorage/bmd.stm32-for-vscode/@xpack-dev-tools/arm-none-eabi-gcc/10.3.1-2.3.1/.content/arm-none-eabi/include/c++/10.3.1/bits/move.h **** {
  61:/Users/lawrencestanton/Library/Application Support/Code/User/globalStorage/bmd.stm32-for-vscode/@xpack-dev-tools/arm-none-eabi-gcc/10.3.1-2.3.1/.content/arm-none-eabi/include/c++/10.3.1/bits/move.h **** _GLIBCXX_BEGIN_NAMESPACE_VERSION
  62:/Users/lawrencestanton/Library/Application Support/Code/User/globalStorage/bmd.stm32-for-vscode/@xpack-dev-tools/arm-none-eabi-gcc/10.3.1-2.3.1/.content/arm-none-eabi/include/c++/10.3.1/bits/move.h **** 
  63:/Users/lawrencestanton/Library/Application Support/Code/User/globalStorage/bmd.stm32-for-vscode/@xpack-dev-tools/arm-none-eabi-gcc/10.3.1-2.3.1/.content/arm-none-eabi/include/c++/10.3.1/bits/move.h ****   /**
  64:/Users/lawrencestanton/Library/Application Support/Code/User/globalStorage/bmd.stm32-for-vscode/@xpack-dev-tools/arm-none-eabi-gcc/10.3.1-2.3.1/.content/arm-none-eabi/include/c++/10.3.1/bits/move.h ****    *  @addtogroup utilities
  65:/Users/lawrencestanton/Library/Application Support/Code/User/globalStorage/bmd.stm32-for-vscode/@xpack-dev-tools/arm-none-eabi-gcc/10.3.1-2.3.1/.content/arm-none-eabi/include/c++/10.3.1/bits/move.h ****    *  @{
  66:/Users/lawrencestanton/Library/Application Support/Code/User/globalStorage/bmd.stm32-for-vscode/@xpack-dev-tools/arm-none-eabi-gcc/10.3.1-2.3.1/.content/arm-none-eabi/include/c++/10.3.1/bits/move.h ****    */
  67:/Users/lawrencestanton/Library/Application Support/Code/User/globalStorage/bmd.stm32-for-vscode/@xpack-dev-tools/arm-none-eabi-gcc/10.3.1-2.3.1/.content/arm-none-eabi/include/c++/10.3.1/bits/move.h **** 
  68:/Users/lawrencestanton/Library/Application Support/Code/User/globalStorage/bmd.stm32-for-vscode/@xpack-dev-tools/arm-none-eabi-gcc/10.3.1-2.3.1/.content/arm-none-eabi/include/c++/10.3.1/bits/move.h ****   /**
  69:/Users/lawrencestanton/Library/Application Support/Code/User/globalStorage/bmd.stm32-for-vscode/@xpack-dev-tools/arm-none-eabi-gcc/10.3.1-2.3.1/.content/arm-none-eabi/include/c++/10.3.1/bits/move.h ****    *  @brief  Forward an lvalue.
  70:/Users/lawrencestanton/Library/Application Support/Code/User/globalStorage/bmd.stm32-for-vscode/@xpack-dev-tools/arm-none-eabi-gcc/10.3.1-2.3.1/.content/arm-none-eabi/include/c++/10.3.1/bits/move.h ****    *  @return The parameter cast to the specified type.
  71:/Users/lawrencestanton/Library/Application Support/Code/User/globalStorage/bmd.stm32-for-vscode/@xpack-dev-tools/arm-none-eabi-gcc/10.3.1-2.3.1/.content/arm-none-eabi/include/c++/10.3.1/bits/move.h ****    *
  72:/Users/lawrencestanton/Library/Application Support/Code/User/globalStorage/bmd.stm32-for-vscode/@xpack-dev-tools/arm-none-eabi-gcc/10.3.1-2.3.1/.content/arm-none-eabi/include/c++/10.3.1/bits/move.h ****    *  This function is used to implement "perfect forwarding".
  73:/Users/lawrencestanton/Library/Application Support/Code/User/globalStorage/bmd.stm32-for-vscode/@xpack-dev-tools/arm-none-eabi-gcc/10.3.1-2.3.1/.content/arm-none-eabi/include/c++/10.3.1/bits/move.h ****    */
ARM GAS  /var/folders/bb/dhrb69655gd8t4nf464nxc_00000gn/T//ccJ8l31o.s 			page 29


  74:/Users/lawrencestanton/Library/Application Support/Code/User/globalStorage/bmd.stm32-for-vscode/@xpack-dev-tools/arm-none-eabi-gcc/10.3.1-2.3.1/.content/arm-none-eabi/include/c++/10.3.1/bits/move.h ****   template<typename _Tp>
  75:/Users/lawrencestanton/Library/Application Support/Code/User/globalStorage/bmd.stm32-for-vscode/@xpack-dev-tools/arm-none-eabi-gcc/10.3.1-2.3.1/.content/arm-none-eabi/include/c++/10.3.1/bits/move.h ****     constexpr _Tp&&
  76:/Users/lawrencestanton/Library/Application Support/Code/User/globalStorage/bmd.stm32-for-vscode/@xpack-dev-tools/arm-none-eabi-gcc/10.3.1-2.3.1/.content/arm-none-eabi/include/c++/10.3.1/bits/move.h ****     forward(typename std::remove_reference<_Tp>::type& __t) noexcept
 1041              		.loc 6 76 5
 1042              		.cfi_startproc
 1043              		@ args = 0, pretend = 0, frame = 8
 1044              		@ frame_needed = 1, uses_anonymous_args = 0
 1045              		@ link register save eliminated.
 1046 0000 80B4     		push	{r7}
 1047              		.cfi_def_cfa_offset 4
 1048              		.cfi_offset 7, -4
 1049 0002 83B0     		sub	sp, sp, #12
 1050              		.cfi_def_cfa_offset 16
 1051 0004 00AF     		add	r7, sp, #0
 1052              		.cfi_def_cfa_register 7
 1053 0006 7860     		str	r0, [r7, #4]
  77:/Users/lawrencestanton/Library/Application Support/Code/User/globalStorage/bmd.stm32-for-vscode/@xpack-dev-tools/arm-none-eabi-gcc/10.3.1-2.3.1/.content/arm-none-eabi/include/c++/10.3.1/bits/move.h ****     { return static_cast<_Tp&&>(__t); }
 1054              		.loc 6 77 36
 1055 0008 7B68     		ldr	r3, [r7, #4]
 1056              		.loc 6 77 39
 1057 000a 1846     		mov	r0, r3
 1058 000c 0C37     		adds	r7, r7, #12
 1059              		.cfi_def_cfa_offset 4
 1060 000e BD46     		mov	sp, r7
 1061              		.cfi_def_cfa_register 13
 1062              		@ sp needed
 1063 0010 5DF8047B 		ldr	r7, [sp], #4
 1064              		.cfi_restore 7
 1065              		.cfi_def_cfa_offset 0
 1066 0014 7047     		bx	lr
 1067              		.cfi_endproc
 1068              	.LFE2271:
 1069              		.cantunwind
 1070              		.fnend
 1072              		.section	.text._ZNSt4pairIPttEC1IjLb1EEERKS0_OT_,"axG",%progbits,_ZNSt4pairIPttEC1IjLb1EEERKS0_OT_
 1073              		.align	1
 1074              		.weak	_ZNSt4pairIPttEC1IjLb1EEERKS0_OT_
 1075              		.syntax unified
 1076              		.thumb
 1077              		.thumb_func
 1079              	_ZNSt4pairIPttEC1IjLb1EEERKS0_OT_:
 1080              		.fnstart
 1081              	.LFB2273:
 1082              		.file 7 "/Users/lawrencestanton/Library/Application Support/Code/User/globalStorage/bmd.stm32-for-
   1:/Users/lawrencestanton/Library/Application Support/Code/User/globalStorage/bmd.stm32-for-vscode/@xpack-dev-tools/arm-none-eabi-gcc/10.3.1-2.3.1/.content/arm-none-eabi/include/c++/10.3.1/bits/stl_pair.h **** // Pair implementation -*- C++ -*-
   2:/Users/lawrencestanton/Library/Application Support/Code/User/globalStorage/bmd.stm32-for-vscode/@xpack-dev-tools/arm-none-eabi-gcc/10.3.1-2.3.1/.content/arm-none-eabi/include/c++/10.3.1/bits/stl_pair.h **** 
   3:/Users/lawrencestanton/Library/Application Support/Code/User/globalStorage/bmd.stm32-for-vscode/@xpack-dev-tools/arm-none-eabi-gcc/10.3.1-2.3.1/.content/arm-none-eabi/include/c++/10.3.1/bits/stl_pair.h **** // Copyright (C) 2001-2020 Free Software Foundation, Inc.
   4:/Users/lawrencestanton/Library/Application Support/Code/User/globalStorage/bmd.stm32-for-vscode/@xpack-dev-tools/arm-none-eabi-gcc/10.3.1-2.3.1/.content/arm-none-eabi/include/c++/10.3.1/bits/stl_pair.h **** //
   5:/Users/lawrencestanton/Library/Application Support/Code/User/globalStorage/bmd.stm32-for-vscode/@xpack-dev-tools/arm-none-eabi-gcc/10.3.1-2.3.1/.content/arm-none-eabi/include/c++/10.3.1/bits/stl_pair.h **** // This file is part of the GNU ISO C++ Library.  This library is free
   6:/Users/lawrencestanton/Library/Application Support/Code/User/globalStorage/bmd.stm32-for-vscode/@xpack-dev-tools/arm-none-eabi-gcc/10.3.1-2.3.1/.content/arm-none-eabi/include/c++/10.3.1/bits/stl_pair.h **** // software; you can redistribute it and/or modify it under the
   7:/Users/lawrencestanton/Library/Application Support/Code/User/globalStorage/bmd.stm32-for-vscode/@xpack-dev-tools/arm-none-eabi-gcc/10.3.1-2.3.1/.content/arm-none-eabi/include/c++/10.3.1/bits/stl_pair.h **** // terms of the GNU General Public License as published by the
   8:/Users/lawrencestanton/Library/Application Support/Code/User/globalStorage/bmd.stm32-for-vscode/@xpack-dev-tools/arm-none-eabi-gcc/10.3.1-2.3.1/.content/arm-none-eabi/include/c++/10.3.1/bits/stl_pair.h **** // Free Software Foundation; either version 3, or (at your option)
   9:/Users/lawrencestanton/Library/Application Support/Code/User/globalStorage/bmd.stm32-for-vscode/@xpack-dev-tools/arm-none-eabi-gcc/10.3.1-2.3.1/.content/arm-none-eabi/include/c++/10.3.1/bits/stl_pair.h **** // any later version.
  10:/Users/lawrencestanton/Library/Application Support/Code/User/globalStorage/bmd.stm32-for-vscode/@xpack-dev-tools/arm-none-eabi-gcc/10.3.1-2.3.1/.content/arm-none-eabi/include/c++/10.3.1/bits/stl_pair.h **** 
  11:/Users/lawrencestanton/Library/Application Support/Code/User/globalStorage/bmd.stm32-for-vscode/@xpack-dev-tools/arm-none-eabi-gcc/10.3.1-2.3.1/.content/arm-none-eabi/include/c++/10.3.1/bits/stl_pair.h **** // This library is distributed in the hope that it will be useful,
  12:/Users/lawrencestanton/Library/Application Support/Code/User/globalStorage/bmd.stm32-for-vscode/@xpack-dev-tools/arm-none-eabi-gcc/10.3.1-2.3.1/.content/arm-none-eabi/include/c++/10.3.1/bits/stl_pair.h **** // but WITHOUT ANY WARRANTY; without even the implied warranty of
  13:/Users/lawrencestanton/Library/Application Support/Code/User/globalStorage/bmd.stm32-for-vscode/@xpack-dev-tools/arm-none-eabi-gcc/10.3.1-2.3.1/.content/arm-none-eabi/include/c++/10.3.1/bits/stl_pair.h **** // MERCHANTABILITY or FITNESS FOR A PARTICULAR PURPOSE.  See the
ARM GAS  /var/folders/bb/dhrb69655gd8t4nf464nxc_00000gn/T//ccJ8l31o.s 			page 30


  14:/Users/lawrencestanton/Library/Application Support/Code/User/globalStorage/bmd.stm32-for-vscode/@xpack-dev-tools/arm-none-eabi-gcc/10.3.1-2.3.1/.content/arm-none-eabi/include/c++/10.3.1/bits/stl_pair.h **** // GNU General Public License for more details.
  15:/Users/lawrencestanton/Library/Application Support/Code/User/globalStorage/bmd.stm32-for-vscode/@xpack-dev-tools/arm-none-eabi-gcc/10.3.1-2.3.1/.content/arm-none-eabi/include/c++/10.3.1/bits/stl_pair.h **** 
  16:/Users/lawrencestanton/Library/Application Support/Code/User/globalStorage/bmd.stm32-for-vscode/@xpack-dev-tools/arm-none-eabi-gcc/10.3.1-2.3.1/.content/arm-none-eabi/include/c++/10.3.1/bits/stl_pair.h **** // Under Section 7 of GPL version 3, you are granted additional
  17:/Users/lawrencestanton/Library/Application Support/Code/User/globalStorage/bmd.stm32-for-vscode/@xpack-dev-tools/arm-none-eabi-gcc/10.3.1-2.3.1/.content/arm-none-eabi/include/c++/10.3.1/bits/stl_pair.h **** // permissions described in the GCC Runtime Library Exception, version
  18:/Users/lawrencestanton/Library/Application Support/Code/User/globalStorage/bmd.stm32-for-vscode/@xpack-dev-tools/arm-none-eabi-gcc/10.3.1-2.3.1/.content/arm-none-eabi/include/c++/10.3.1/bits/stl_pair.h **** // 3.1, as published by the Free Software Foundation.
  19:/Users/lawrencestanton/Library/Application Support/Code/User/globalStorage/bmd.stm32-for-vscode/@xpack-dev-tools/arm-none-eabi-gcc/10.3.1-2.3.1/.content/arm-none-eabi/include/c++/10.3.1/bits/stl_pair.h **** 
  20:/Users/lawrencestanton/Library/Application Support/Code/User/globalStorage/bmd.stm32-for-vscode/@xpack-dev-tools/arm-none-eabi-gcc/10.3.1-2.3.1/.content/arm-none-eabi/include/c++/10.3.1/bits/stl_pair.h **** // You should have received a copy of the GNU General Public License and
  21:/Users/lawrencestanton/Library/Application Support/Code/User/globalStorage/bmd.stm32-for-vscode/@xpack-dev-tools/arm-none-eabi-gcc/10.3.1-2.3.1/.content/arm-none-eabi/include/c++/10.3.1/bits/stl_pair.h **** // a copy of the GCC Runtime Library Exception along with this program;
  22:/Users/lawrencestanton/Library/Application Support/Code/User/globalStorage/bmd.stm32-for-vscode/@xpack-dev-tools/arm-none-eabi-gcc/10.3.1-2.3.1/.content/arm-none-eabi/include/c++/10.3.1/bits/stl_pair.h **** // see the files COPYING3 and COPYING.RUNTIME respectively.  If not, see
  23:/Users/lawrencestanton/Library/Application Support/Code/User/globalStorage/bmd.stm32-for-vscode/@xpack-dev-tools/arm-none-eabi-gcc/10.3.1-2.3.1/.content/arm-none-eabi/include/c++/10.3.1/bits/stl_pair.h **** // <http://www.gnu.org/licenses/>.
  24:/Users/lawrencestanton/Library/Application Support/Code/User/globalStorage/bmd.stm32-for-vscode/@xpack-dev-tools/arm-none-eabi-gcc/10.3.1-2.3.1/.content/arm-none-eabi/include/c++/10.3.1/bits/stl_pair.h **** 
  25:/Users/lawrencestanton/Library/Application Support/Code/User/globalStorage/bmd.stm32-for-vscode/@xpack-dev-tools/arm-none-eabi-gcc/10.3.1-2.3.1/.content/arm-none-eabi/include/c++/10.3.1/bits/stl_pair.h **** /*
  26:/Users/lawrencestanton/Library/Application Support/Code/User/globalStorage/bmd.stm32-for-vscode/@xpack-dev-tools/arm-none-eabi-gcc/10.3.1-2.3.1/.content/arm-none-eabi/include/c++/10.3.1/bits/stl_pair.h ****  *
  27:/Users/lawrencestanton/Library/Application Support/Code/User/globalStorage/bmd.stm32-for-vscode/@xpack-dev-tools/arm-none-eabi-gcc/10.3.1-2.3.1/.content/arm-none-eabi/include/c++/10.3.1/bits/stl_pair.h ****  * Copyright (c) 1994
  28:/Users/lawrencestanton/Library/Application Support/Code/User/globalStorage/bmd.stm32-for-vscode/@xpack-dev-tools/arm-none-eabi-gcc/10.3.1-2.3.1/.content/arm-none-eabi/include/c++/10.3.1/bits/stl_pair.h ****  * Hewlett-Packard Company
  29:/Users/lawrencestanton/Library/Application Support/Code/User/globalStorage/bmd.stm32-for-vscode/@xpack-dev-tools/arm-none-eabi-gcc/10.3.1-2.3.1/.content/arm-none-eabi/include/c++/10.3.1/bits/stl_pair.h ****  *
  30:/Users/lawrencestanton/Library/Application Support/Code/User/globalStorage/bmd.stm32-for-vscode/@xpack-dev-tools/arm-none-eabi-gcc/10.3.1-2.3.1/.content/arm-none-eabi/include/c++/10.3.1/bits/stl_pair.h ****  * Permission to use, copy, modify, distribute and sell this software
  31:/Users/lawrencestanton/Library/Application Support/Code/User/globalStorage/bmd.stm32-for-vscode/@xpack-dev-tools/arm-none-eabi-gcc/10.3.1-2.3.1/.content/arm-none-eabi/include/c++/10.3.1/bits/stl_pair.h ****  * and its documentation for any purpose is hereby granted without fee,
  32:/Users/lawrencestanton/Library/Application Support/Code/User/globalStorage/bmd.stm32-for-vscode/@xpack-dev-tools/arm-none-eabi-gcc/10.3.1-2.3.1/.content/arm-none-eabi/include/c++/10.3.1/bits/stl_pair.h ****  * provided that the above copyright notice appear in all copies and
  33:/Users/lawrencestanton/Library/Application Support/Code/User/globalStorage/bmd.stm32-for-vscode/@xpack-dev-tools/arm-none-eabi-gcc/10.3.1-2.3.1/.content/arm-none-eabi/include/c++/10.3.1/bits/stl_pair.h ****  * that both that copyright notice and this permission notice appear
  34:/Users/lawrencestanton/Library/Application Support/Code/User/globalStorage/bmd.stm32-for-vscode/@xpack-dev-tools/arm-none-eabi-gcc/10.3.1-2.3.1/.content/arm-none-eabi/include/c++/10.3.1/bits/stl_pair.h ****  * in supporting documentation.  Hewlett-Packard Company makes no
  35:/Users/lawrencestanton/Library/Application Support/Code/User/globalStorage/bmd.stm32-for-vscode/@xpack-dev-tools/arm-none-eabi-gcc/10.3.1-2.3.1/.content/arm-none-eabi/include/c++/10.3.1/bits/stl_pair.h ****  * representations about the suitability of this software for any
  36:/Users/lawrencestanton/Library/Application Support/Code/User/globalStorage/bmd.stm32-for-vscode/@xpack-dev-tools/arm-none-eabi-gcc/10.3.1-2.3.1/.content/arm-none-eabi/include/c++/10.3.1/bits/stl_pair.h ****  * purpose.  It is provided "as is" without express or implied warranty.
  37:/Users/lawrencestanton/Library/Application Support/Code/User/globalStorage/bmd.stm32-for-vscode/@xpack-dev-tools/arm-none-eabi-gcc/10.3.1-2.3.1/.content/arm-none-eabi/include/c++/10.3.1/bits/stl_pair.h ****  *
  38:/Users/lawrencestanton/Library/Application Support/Code/User/globalStorage/bmd.stm32-for-vscode/@xpack-dev-tools/arm-none-eabi-gcc/10.3.1-2.3.1/.content/arm-none-eabi/include/c++/10.3.1/bits/stl_pair.h ****  *
  39:/Users/lawrencestanton/Library/Application Support/Code/User/globalStorage/bmd.stm32-for-vscode/@xpack-dev-tools/arm-none-eabi-gcc/10.3.1-2.3.1/.content/arm-none-eabi/include/c++/10.3.1/bits/stl_pair.h ****  * Copyright (c) 1996,1997
  40:/Users/lawrencestanton/Library/Application Support/Code/User/globalStorage/bmd.stm32-for-vscode/@xpack-dev-tools/arm-none-eabi-gcc/10.3.1-2.3.1/.content/arm-none-eabi/include/c++/10.3.1/bits/stl_pair.h ****  * Silicon Graphics Computer Systems, Inc.
  41:/Users/lawrencestanton/Library/Application Support/Code/User/globalStorage/bmd.stm32-for-vscode/@xpack-dev-tools/arm-none-eabi-gcc/10.3.1-2.3.1/.content/arm-none-eabi/include/c++/10.3.1/bits/stl_pair.h ****  *
  42:/Users/lawrencestanton/Library/Application Support/Code/User/globalStorage/bmd.stm32-for-vscode/@xpack-dev-tools/arm-none-eabi-gcc/10.3.1-2.3.1/.content/arm-none-eabi/include/c++/10.3.1/bits/stl_pair.h ****  * Permission to use, copy, modify, distribute and sell this software
  43:/Users/lawrencestanton/Library/Application Support/Code/User/globalStorage/bmd.stm32-for-vscode/@xpack-dev-tools/arm-none-eabi-gcc/10.3.1-2.3.1/.content/arm-none-eabi/include/c++/10.3.1/bits/stl_pair.h ****  * and its documentation for any purpose is hereby granted without fee,
  44:/Users/lawrencestanton/Library/Application Support/Code/User/globalStorage/bmd.stm32-for-vscode/@xpack-dev-tools/arm-none-eabi-gcc/10.3.1-2.3.1/.content/arm-none-eabi/include/c++/10.3.1/bits/stl_pair.h ****  * provided that the above copyright notice appear in all copies and
  45:/Users/lawrencestanton/Library/Application Support/Code/User/globalStorage/bmd.stm32-for-vscode/@xpack-dev-tools/arm-none-eabi-gcc/10.3.1-2.3.1/.content/arm-none-eabi/include/c++/10.3.1/bits/stl_pair.h ****  * that both that copyright notice and this permission notice appear
  46:/Users/lawrencestanton/Library/Application Support/Code/User/globalStorage/bmd.stm32-for-vscode/@xpack-dev-tools/arm-none-eabi-gcc/10.3.1-2.3.1/.content/arm-none-eabi/include/c++/10.3.1/bits/stl_pair.h ****  * in supporting documentation.  Silicon Graphics makes no
  47:/Users/lawrencestanton/Library/Application Support/Code/User/globalStorage/bmd.stm32-for-vscode/@xpack-dev-tools/arm-none-eabi-gcc/10.3.1-2.3.1/.content/arm-none-eabi/include/c++/10.3.1/bits/stl_pair.h ****  * representations about the suitability of this software for any
  48:/Users/lawrencestanton/Library/Application Support/Code/User/globalStorage/bmd.stm32-for-vscode/@xpack-dev-tools/arm-none-eabi-gcc/10.3.1-2.3.1/.content/arm-none-eabi/include/c++/10.3.1/bits/stl_pair.h ****  * purpose.  It is provided "as is" without express or implied warranty.
  49:/Users/lawrencestanton/Library/Application Support/Code/User/globalStorage/bmd.stm32-for-vscode/@xpack-dev-tools/arm-none-eabi-gcc/10.3.1-2.3.1/.content/arm-none-eabi/include/c++/10.3.1/bits/stl_pair.h ****  */
  50:/Users/lawrencestanton/Library/Application Support/Code/User/globalStorage/bmd.stm32-for-vscode/@xpack-dev-tools/arm-none-eabi-gcc/10.3.1-2.3.1/.content/arm-none-eabi/include/c++/10.3.1/bits/stl_pair.h **** 
  51:/Users/lawrencestanton/Library/Application Support/Code/User/globalStorage/bmd.stm32-for-vscode/@xpack-dev-tools/arm-none-eabi-gcc/10.3.1-2.3.1/.content/arm-none-eabi/include/c++/10.3.1/bits/stl_pair.h **** /** @file bits/stl_pair.h
  52:/Users/lawrencestanton/Library/Application Support/Code/User/globalStorage/bmd.stm32-for-vscode/@xpack-dev-tools/arm-none-eabi-gcc/10.3.1-2.3.1/.content/arm-none-eabi/include/c++/10.3.1/bits/stl_pair.h ****  *  This is an internal header file, included by other library headers.
  53:/Users/lawrencestanton/Library/Application Support/Code/User/globalStorage/bmd.stm32-for-vscode/@xpack-dev-tools/arm-none-eabi-gcc/10.3.1-2.3.1/.content/arm-none-eabi/include/c++/10.3.1/bits/stl_pair.h ****  *  Do not attempt to use it directly. @headername{utility}
  54:/Users/lawrencestanton/Library/Application Support/Code/User/globalStorage/bmd.stm32-for-vscode/@xpack-dev-tools/arm-none-eabi-gcc/10.3.1-2.3.1/.content/arm-none-eabi/include/c++/10.3.1/bits/stl_pair.h ****  */
  55:/Users/lawrencestanton/Library/Application Support/Code/User/globalStorage/bmd.stm32-for-vscode/@xpack-dev-tools/arm-none-eabi-gcc/10.3.1-2.3.1/.content/arm-none-eabi/include/c++/10.3.1/bits/stl_pair.h **** 
  56:/Users/lawrencestanton/Library/Application Support/Code/User/globalStorage/bmd.stm32-for-vscode/@xpack-dev-tools/arm-none-eabi-gcc/10.3.1-2.3.1/.content/arm-none-eabi/include/c++/10.3.1/bits/stl_pair.h **** #ifndef _STL_PAIR_H
  57:/Users/lawrencestanton/Library/Application Support/Code/User/globalStorage/bmd.stm32-for-vscode/@xpack-dev-tools/arm-none-eabi-gcc/10.3.1-2.3.1/.content/arm-none-eabi/include/c++/10.3.1/bits/stl_pair.h **** #define _STL_PAIR_H 1
  58:/Users/lawrencestanton/Library/Application Support/Code/User/globalStorage/bmd.stm32-for-vscode/@xpack-dev-tools/arm-none-eabi-gcc/10.3.1-2.3.1/.content/arm-none-eabi/include/c++/10.3.1/bits/stl_pair.h **** 
  59:/Users/lawrencestanton/Library/Application Support/Code/User/globalStorage/bmd.stm32-for-vscode/@xpack-dev-tools/arm-none-eabi-gcc/10.3.1-2.3.1/.content/arm-none-eabi/include/c++/10.3.1/bits/stl_pair.h **** #include <bits/move.h> // for std::move / std::forward, and std::swap
  60:/Users/lawrencestanton/Library/Application Support/Code/User/globalStorage/bmd.stm32-for-vscode/@xpack-dev-tools/arm-none-eabi-gcc/10.3.1-2.3.1/.content/arm-none-eabi/include/c++/10.3.1/bits/stl_pair.h **** 
  61:/Users/lawrencestanton/Library/Application Support/Code/User/globalStorage/bmd.stm32-for-vscode/@xpack-dev-tools/arm-none-eabi-gcc/10.3.1-2.3.1/.content/arm-none-eabi/include/c++/10.3.1/bits/stl_pair.h **** #if __cplusplus >= 201103L
  62:/Users/lawrencestanton/Library/Application Support/Code/User/globalStorage/bmd.stm32-for-vscode/@xpack-dev-tools/arm-none-eabi-gcc/10.3.1-2.3.1/.content/arm-none-eabi/include/c++/10.3.1/bits/stl_pair.h **** # include <type_traits> // for std::__decay_and_strip, std::is_reference_v
  63:/Users/lawrencestanton/Library/Application Support/Code/User/globalStorage/bmd.stm32-for-vscode/@xpack-dev-tools/arm-none-eabi-gcc/10.3.1-2.3.1/.content/arm-none-eabi/include/c++/10.3.1/bits/stl_pair.h **** #endif
  64:/Users/lawrencestanton/Library/Application Support/Code/User/globalStorage/bmd.stm32-for-vscode/@xpack-dev-tools/arm-none-eabi-gcc/10.3.1-2.3.1/.content/arm-none-eabi/include/c++/10.3.1/bits/stl_pair.h **** #if __cplusplus > 201703L
  65:/Users/lawrencestanton/Library/Application Support/Code/User/globalStorage/bmd.stm32-for-vscode/@xpack-dev-tools/arm-none-eabi-gcc/10.3.1-2.3.1/.content/arm-none-eabi/include/c++/10.3.1/bits/stl_pair.h **** # include <compare>
  66:/Users/lawrencestanton/Library/Application Support/Code/User/globalStorage/bmd.stm32-for-vscode/@xpack-dev-tools/arm-none-eabi-gcc/10.3.1-2.3.1/.content/arm-none-eabi/include/c++/10.3.1/bits/stl_pair.h **** # define __cpp_lib_constexpr_utility 201811L
  67:/Users/lawrencestanton/Library/Application Support/Code/User/globalStorage/bmd.stm32-for-vscode/@xpack-dev-tools/arm-none-eabi-gcc/10.3.1-2.3.1/.content/arm-none-eabi/include/c++/10.3.1/bits/stl_pair.h **** #endif
  68:/Users/lawrencestanton/Library/Application Support/Code/User/globalStorage/bmd.stm32-for-vscode/@xpack-dev-tools/arm-none-eabi-gcc/10.3.1-2.3.1/.content/arm-none-eabi/include/c++/10.3.1/bits/stl_pair.h **** 
  69:/Users/lawrencestanton/Library/Application Support/Code/User/globalStorage/bmd.stm32-for-vscode/@xpack-dev-tools/arm-none-eabi-gcc/10.3.1-2.3.1/.content/arm-none-eabi/include/c++/10.3.1/bits/stl_pair.h **** namespace std _GLIBCXX_VISIBILITY(default)
  70:/Users/lawrencestanton/Library/Application Support/Code/User/globalStorage/bmd.stm32-for-vscode/@xpack-dev-tools/arm-none-eabi-gcc/10.3.1-2.3.1/.content/arm-none-eabi/include/c++/10.3.1/bits/stl_pair.h **** {
ARM GAS  /var/folders/bb/dhrb69655gd8t4nf464nxc_00000gn/T//ccJ8l31o.s 			page 31


  71:/Users/lawrencestanton/Library/Application Support/Code/User/globalStorage/bmd.stm32-for-vscode/@xpack-dev-tools/arm-none-eabi-gcc/10.3.1-2.3.1/.content/arm-none-eabi/include/c++/10.3.1/bits/stl_pair.h **** _GLIBCXX_BEGIN_NAMESPACE_VERSION
  72:/Users/lawrencestanton/Library/Application Support/Code/User/globalStorage/bmd.stm32-for-vscode/@xpack-dev-tools/arm-none-eabi-gcc/10.3.1-2.3.1/.content/arm-none-eabi/include/c++/10.3.1/bits/stl_pair.h **** 
  73:/Users/lawrencestanton/Library/Application Support/Code/User/globalStorage/bmd.stm32-for-vscode/@xpack-dev-tools/arm-none-eabi-gcc/10.3.1-2.3.1/.content/arm-none-eabi/include/c++/10.3.1/bits/stl_pair.h ****   /**
  74:/Users/lawrencestanton/Library/Application Support/Code/User/globalStorage/bmd.stm32-for-vscode/@xpack-dev-tools/arm-none-eabi-gcc/10.3.1-2.3.1/.content/arm-none-eabi/include/c++/10.3.1/bits/stl_pair.h ****    *  @addtogroup utilities
  75:/Users/lawrencestanton/Library/Application Support/Code/User/globalStorage/bmd.stm32-for-vscode/@xpack-dev-tools/arm-none-eabi-gcc/10.3.1-2.3.1/.content/arm-none-eabi/include/c++/10.3.1/bits/stl_pair.h ****    *  @{
  76:/Users/lawrencestanton/Library/Application Support/Code/User/globalStorage/bmd.stm32-for-vscode/@xpack-dev-tools/arm-none-eabi-gcc/10.3.1-2.3.1/.content/arm-none-eabi/include/c++/10.3.1/bits/stl_pair.h ****    */
  77:/Users/lawrencestanton/Library/Application Support/Code/User/globalStorage/bmd.stm32-for-vscode/@xpack-dev-tools/arm-none-eabi-gcc/10.3.1-2.3.1/.content/arm-none-eabi/include/c++/10.3.1/bits/stl_pair.h **** 
  78:/Users/lawrencestanton/Library/Application Support/Code/User/globalStorage/bmd.stm32-for-vscode/@xpack-dev-tools/arm-none-eabi-gcc/10.3.1-2.3.1/.content/arm-none-eabi/include/c++/10.3.1/bits/stl_pair.h **** #if __cplusplus >= 201103L
  79:/Users/lawrencestanton/Library/Application Support/Code/User/globalStorage/bmd.stm32-for-vscode/@xpack-dev-tools/arm-none-eabi-gcc/10.3.1-2.3.1/.content/arm-none-eabi/include/c++/10.3.1/bits/stl_pair.h ****   /// Tag type for piecewise construction of std::pair objects.
  80:/Users/lawrencestanton/Library/Application Support/Code/User/globalStorage/bmd.stm32-for-vscode/@xpack-dev-tools/arm-none-eabi-gcc/10.3.1-2.3.1/.content/arm-none-eabi/include/c++/10.3.1/bits/stl_pair.h ****   struct piecewise_construct_t { explicit piecewise_construct_t() = default; };
  81:/Users/lawrencestanton/Library/Application Support/Code/User/globalStorage/bmd.stm32-for-vscode/@xpack-dev-tools/arm-none-eabi-gcc/10.3.1-2.3.1/.content/arm-none-eabi/include/c++/10.3.1/bits/stl_pair.h **** 
  82:/Users/lawrencestanton/Library/Application Support/Code/User/globalStorage/bmd.stm32-for-vscode/@xpack-dev-tools/arm-none-eabi-gcc/10.3.1-2.3.1/.content/arm-none-eabi/include/c++/10.3.1/bits/stl_pair.h ****   /// Tag for piecewise construction of std::pair objects.
  83:/Users/lawrencestanton/Library/Application Support/Code/User/globalStorage/bmd.stm32-for-vscode/@xpack-dev-tools/arm-none-eabi-gcc/10.3.1-2.3.1/.content/arm-none-eabi/include/c++/10.3.1/bits/stl_pair.h ****   _GLIBCXX17_INLINE constexpr piecewise_construct_t piecewise_construct =
  84:/Users/lawrencestanton/Library/Application Support/Code/User/globalStorage/bmd.stm32-for-vscode/@xpack-dev-tools/arm-none-eabi-gcc/10.3.1-2.3.1/.content/arm-none-eabi/include/c++/10.3.1/bits/stl_pair.h ****     piecewise_construct_t();
  85:/Users/lawrencestanton/Library/Application Support/Code/User/globalStorage/bmd.stm32-for-vscode/@xpack-dev-tools/arm-none-eabi-gcc/10.3.1-2.3.1/.content/arm-none-eabi/include/c++/10.3.1/bits/stl_pair.h **** 
  86:/Users/lawrencestanton/Library/Application Support/Code/User/globalStorage/bmd.stm32-for-vscode/@xpack-dev-tools/arm-none-eabi-gcc/10.3.1-2.3.1/.content/arm-none-eabi/include/c++/10.3.1/bits/stl_pair.h ****   /// @cond undocumented
  87:/Users/lawrencestanton/Library/Application Support/Code/User/globalStorage/bmd.stm32-for-vscode/@xpack-dev-tools/arm-none-eabi-gcc/10.3.1-2.3.1/.content/arm-none-eabi/include/c++/10.3.1/bits/stl_pair.h **** 
  88:/Users/lawrencestanton/Library/Application Support/Code/User/globalStorage/bmd.stm32-for-vscode/@xpack-dev-tools/arm-none-eabi-gcc/10.3.1-2.3.1/.content/arm-none-eabi/include/c++/10.3.1/bits/stl_pair.h ****   // Forward declarations.
  89:/Users/lawrencestanton/Library/Application Support/Code/User/globalStorage/bmd.stm32-for-vscode/@xpack-dev-tools/arm-none-eabi-gcc/10.3.1-2.3.1/.content/arm-none-eabi/include/c++/10.3.1/bits/stl_pair.h ****   template<typename...>
  90:/Users/lawrencestanton/Library/Application Support/Code/User/globalStorage/bmd.stm32-for-vscode/@xpack-dev-tools/arm-none-eabi-gcc/10.3.1-2.3.1/.content/arm-none-eabi/include/c++/10.3.1/bits/stl_pair.h ****     class tuple;
  91:/Users/lawrencestanton/Library/Application Support/Code/User/globalStorage/bmd.stm32-for-vscode/@xpack-dev-tools/arm-none-eabi-gcc/10.3.1-2.3.1/.content/arm-none-eabi/include/c++/10.3.1/bits/stl_pair.h **** 
  92:/Users/lawrencestanton/Library/Application Support/Code/User/globalStorage/bmd.stm32-for-vscode/@xpack-dev-tools/arm-none-eabi-gcc/10.3.1-2.3.1/.content/arm-none-eabi/include/c++/10.3.1/bits/stl_pair.h ****   template<std::size_t...>
  93:/Users/lawrencestanton/Library/Application Support/Code/User/globalStorage/bmd.stm32-for-vscode/@xpack-dev-tools/arm-none-eabi-gcc/10.3.1-2.3.1/.content/arm-none-eabi/include/c++/10.3.1/bits/stl_pair.h ****     struct _Index_tuple;
  94:/Users/lawrencestanton/Library/Application Support/Code/User/globalStorage/bmd.stm32-for-vscode/@xpack-dev-tools/arm-none-eabi-gcc/10.3.1-2.3.1/.content/arm-none-eabi/include/c++/10.3.1/bits/stl_pair.h **** 
  95:/Users/lawrencestanton/Library/Application Support/Code/User/globalStorage/bmd.stm32-for-vscode/@xpack-dev-tools/arm-none-eabi-gcc/10.3.1-2.3.1/.content/arm-none-eabi/include/c++/10.3.1/bits/stl_pair.h ****   // Concept utility functions, reused in conditionally-explicit
  96:/Users/lawrencestanton/Library/Application Support/Code/User/globalStorage/bmd.stm32-for-vscode/@xpack-dev-tools/arm-none-eabi-gcc/10.3.1-2.3.1/.content/arm-none-eabi/include/c++/10.3.1/bits/stl_pair.h ****   // constructors.
  97:/Users/lawrencestanton/Library/Application Support/Code/User/globalStorage/bmd.stm32-for-vscode/@xpack-dev-tools/arm-none-eabi-gcc/10.3.1-2.3.1/.content/arm-none-eabi/include/c++/10.3.1/bits/stl_pair.h ****   // See PR 70437, don't look at is_constructible or
  98:/Users/lawrencestanton/Library/Application Support/Code/User/globalStorage/bmd.stm32-for-vscode/@xpack-dev-tools/arm-none-eabi-gcc/10.3.1-2.3.1/.content/arm-none-eabi/include/c++/10.3.1/bits/stl_pair.h ****   // is_convertible if the types are the same to
  99:/Users/lawrencestanton/Library/Application Support/Code/User/globalStorage/bmd.stm32-for-vscode/@xpack-dev-tools/arm-none-eabi-gcc/10.3.1-2.3.1/.content/arm-none-eabi/include/c++/10.3.1/bits/stl_pair.h ****   // avoid querying those properties for incomplete types.
 100:/Users/lawrencestanton/Library/Application Support/Code/User/globalStorage/bmd.stm32-for-vscode/@xpack-dev-tools/arm-none-eabi-gcc/10.3.1-2.3.1/.content/arm-none-eabi/include/c++/10.3.1/bits/stl_pair.h ****   template <bool, typename _T1, typename _T2>
 101:/Users/lawrencestanton/Library/Application Support/Code/User/globalStorage/bmd.stm32-for-vscode/@xpack-dev-tools/arm-none-eabi-gcc/10.3.1-2.3.1/.content/arm-none-eabi/include/c++/10.3.1/bits/stl_pair.h ****     struct _PCC
 102:/Users/lawrencestanton/Library/Application Support/Code/User/globalStorage/bmd.stm32-for-vscode/@xpack-dev-tools/arm-none-eabi-gcc/10.3.1-2.3.1/.content/arm-none-eabi/include/c++/10.3.1/bits/stl_pair.h ****     {
 103:/Users/lawrencestanton/Library/Application Support/Code/User/globalStorage/bmd.stm32-for-vscode/@xpack-dev-tools/arm-none-eabi-gcc/10.3.1-2.3.1/.content/arm-none-eabi/include/c++/10.3.1/bits/stl_pair.h ****       template <typename _U1, typename _U2>
 104:/Users/lawrencestanton/Library/Application Support/Code/User/globalStorage/bmd.stm32-for-vscode/@xpack-dev-tools/arm-none-eabi-gcc/10.3.1-2.3.1/.content/arm-none-eabi/include/c++/10.3.1/bits/stl_pair.h ****       static constexpr bool _ConstructiblePair()
 105:/Users/lawrencestanton/Library/Application Support/Code/User/globalStorage/bmd.stm32-for-vscode/@xpack-dev-tools/arm-none-eabi-gcc/10.3.1-2.3.1/.content/arm-none-eabi/include/c++/10.3.1/bits/stl_pair.h ****       {
 106:/Users/lawrencestanton/Library/Application Support/Code/User/globalStorage/bmd.stm32-for-vscode/@xpack-dev-tools/arm-none-eabi-gcc/10.3.1-2.3.1/.content/arm-none-eabi/include/c++/10.3.1/bits/stl_pair.h **** 	return __and_<is_constructible<_T1, const _U1&>,
 107:/Users/lawrencestanton/Library/Application Support/Code/User/globalStorage/bmd.stm32-for-vscode/@xpack-dev-tools/arm-none-eabi-gcc/10.3.1-2.3.1/.content/arm-none-eabi/include/c++/10.3.1/bits/stl_pair.h **** 		      is_constructible<_T2, const _U2&>>::value;
 108:/Users/lawrencestanton/Library/Application Support/Code/User/globalStorage/bmd.stm32-for-vscode/@xpack-dev-tools/arm-none-eabi-gcc/10.3.1-2.3.1/.content/arm-none-eabi/include/c++/10.3.1/bits/stl_pair.h ****       }
 109:/Users/lawrencestanton/Library/Application Support/Code/User/globalStorage/bmd.stm32-for-vscode/@xpack-dev-tools/arm-none-eabi-gcc/10.3.1-2.3.1/.content/arm-none-eabi/include/c++/10.3.1/bits/stl_pair.h **** 
 110:/Users/lawrencestanton/Library/Application Support/Code/User/globalStorage/bmd.stm32-for-vscode/@xpack-dev-tools/arm-none-eabi-gcc/10.3.1-2.3.1/.content/arm-none-eabi/include/c++/10.3.1/bits/stl_pair.h ****       template <typename _U1, typename _U2>
 111:/Users/lawrencestanton/Library/Application Support/Code/User/globalStorage/bmd.stm32-for-vscode/@xpack-dev-tools/arm-none-eabi-gcc/10.3.1-2.3.1/.content/arm-none-eabi/include/c++/10.3.1/bits/stl_pair.h ****       static constexpr bool _ImplicitlyConvertiblePair()
 112:/Users/lawrencestanton/Library/Application Support/Code/User/globalStorage/bmd.stm32-for-vscode/@xpack-dev-tools/arm-none-eabi-gcc/10.3.1-2.3.1/.content/arm-none-eabi/include/c++/10.3.1/bits/stl_pair.h ****       {
 113:/Users/lawrencestanton/Library/Application Support/Code/User/globalStorage/bmd.stm32-for-vscode/@xpack-dev-tools/arm-none-eabi-gcc/10.3.1-2.3.1/.content/arm-none-eabi/include/c++/10.3.1/bits/stl_pair.h **** 	return __and_<is_convertible<const _U1&, _T1>,
 114:/Users/lawrencestanton/Library/Application Support/Code/User/globalStorage/bmd.stm32-for-vscode/@xpack-dev-tools/arm-none-eabi-gcc/10.3.1-2.3.1/.content/arm-none-eabi/include/c++/10.3.1/bits/stl_pair.h **** 		      is_convertible<const _U2&, _T2>>::value;
 115:/Users/lawrencestanton/Library/Application Support/Code/User/globalStorage/bmd.stm32-for-vscode/@xpack-dev-tools/arm-none-eabi-gcc/10.3.1-2.3.1/.content/arm-none-eabi/include/c++/10.3.1/bits/stl_pair.h ****       }
 116:/Users/lawrencestanton/Library/Application Support/Code/User/globalStorage/bmd.stm32-for-vscode/@xpack-dev-tools/arm-none-eabi-gcc/10.3.1-2.3.1/.content/arm-none-eabi/include/c++/10.3.1/bits/stl_pair.h **** 
 117:/Users/lawrencestanton/Library/Application Support/Code/User/globalStorage/bmd.stm32-for-vscode/@xpack-dev-tools/arm-none-eabi-gcc/10.3.1-2.3.1/.content/arm-none-eabi/include/c++/10.3.1/bits/stl_pair.h ****       template <typename _U1, typename _U2>
 118:/Users/lawrencestanton/Library/Application Support/Code/User/globalStorage/bmd.stm32-for-vscode/@xpack-dev-tools/arm-none-eabi-gcc/10.3.1-2.3.1/.content/arm-none-eabi/include/c++/10.3.1/bits/stl_pair.h ****       static constexpr bool _MoveConstructiblePair()
 119:/Users/lawrencestanton/Library/Application Support/Code/User/globalStorage/bmd.stm32-for-vscode/@xpack-dev-tools/arm-none-eabi-gcc/10.3.1-2.3.1/.content/arm-none-eabi/include/c++/10.3.1/bits/stl_pair.h ****       {
 120:/Users/lawrencestanton/Library/Application Support/Code/User/globalStorage/bmd.stm32-for-vscode/@xpack-dev-tools/arm-none-eabi-gcc/10.3.1-2.3.1/.content/arm-none-eabi/include/c++/10.3.1/bits/stl_pair.h **** 	return __and_<is_constructible<_T1, _U1&&>,
 121:/Users/lawrencestanton/Library/Application Support/Code/User/globalStorage/bmd.stm32-for-vscode/@xpack-dev-tools/arm-none-eabi-gcc/10.3.1-2.3.1/.content/arm-none-eabi/include/c++/10.3.1/bits/stl_pair.h **** 		      is_constructible<_T2, _U2&&>>::value;
 122:/Users/lawrencestanton/Library/Application Support/Code/User/globalStorage/bmd.stm32-for-vscode/@xpack-dev-tools/arm-none-eabi-gcc/10.3.1-2.3.1/.content/arm-none-eabi/include/c++/10.3.1/bits/stl_pair.h ****       }
 123:/Users/lawrencestanton/Library/Application Support/Code/User/globalStorage/bmd.stm32-for-vscode/@xpack-dev-tools/arm-none-eabi-gcc/10.3.1-2.3.1/.content/arm-none-eabi/include/c++/10.3.1/bits/stl_pair.h **** 
 124:/Users/lawrencestanton/Library/Application Support/Code/User/globalStorage/bmd.stm32-for-vscode/@xpack-dev-tools/arm-none-eabi-gcc/10.3.1-2.3.1/.content/arm-none-eabi/include/c++/10.3.1/bits/stl_pair.h ****       template <typename _U1, typename _U2>
 125:/Users/lawrencestanton/Library/Application Support/Code/User/globalStorage/bmd.stm32-for-vscode/@xpack-dev-tools/arm-none-eabi-gcc/10.3.1-2.3.1/.content/arm-none-eabi/include/c++/10.3.1/bits/stl_pair.h ****       static constexpr bool _ImplicitlyMoveConvertiblePair()
 126:/Users/lawrencestanton/Library/Application Support/Code/User/globalStorage/bmd.stm32-for-vscode/@xpack-dev-tools/arm-none-eabi-gcc/10.3.1-2.3.1/.content/arm-none-eabi/include/c++/10.3.1/bits/stl_pair.h ****       {
 127:/Users/lawrencestanton/Library/Application Support/Code/User/globalStorage/bmd.stm32-for-vscode/@xpack-dev-tools/arm-none-eabi-gcc/10.3.1-2.3.1/.content/arm-none-eabi/include/c++/10.3.1/bits/stl_pair.h **** 	return __and_<is_convertible<_U1&&, _T1>,
ARM GAS  /var/folders/bb/dhrb69655gd8t4nf464nxc_00000gn/T//ccJ8l31o.s 			page 32


 128:/Users/lawrencestanton/Library/Application Support/Code/User/globalStorage/bmd.stm32-for-vscode/@xpack-dev-tools/arm-none-eabi-gcc/10.3.1-2.3.1/.content/arm-none-eabi/include/c++/10.3.1/bits/stl_pair.h **** 		      is_convertible<_U2&&, _T2>>::value;
 129:/Users/lawrencestanton/Library/Application Support/Code/User/globalStorage/bmd.stm32-for-vscode/@xpack-dev-tools/arm-none-eabi-gcc/10.3.1-2.3.1/.content/arm-none-eabi/include/c++/10.3.1/bits/stl_pair.h ****       }
 130:/Users/lawrencestanton/Library/Application Support/Code/User/globalStorage/bmd.stm32-for-vscode/@xpack-dev-tools/arm-none-eabi-gcc/10.3.1-2.3.1/.content/arm-none-eabi/include/c++/10.3.1/bits/stl_pair.h **** 
 131:/Users/lawrencestanton/Library/Application Support/Code/User/globalStorage/bmd.stm32-for-vscode/@xpack-dev-tools/arm-none-eabi-gcc/10.3.1-2.3.1/.content/arm-none-eabi/include/c++/10.3.1/bits/stl_pair.h ****       template <bool __implicit, typename _U1, typename _U2>
 132:/Users/lawrencestanton/Library/Application Support/Code/User/globalStorage/bmd.stm32-for-vscode/@xpack-dev-tools/arm-none-eabi-gcc/10.3.1-2.3.1/.content/arm-none-eabi/include/c++/10.3.1/bits/stl_pair.h ****       static constexpr bool _CopyMovePair()
 133:/Users/lawrencestanton/Library/Application Support/Code/User/globalStorage/bmd.stm32-for-vscode/@xpack-dev-tools/arm-none-eabi-gcc/10.3.1-2.3.1/.content/arm-none-eabi/include/c++/10.3.1/bits/stl_pair.h ****       {
 134:/Users/lawrencestanton/Library/Application Support/Code/User/globalStorage/bmd.stm32-for-vscode/@xpack-dev-tools/arm-none-eabi-gcc/10.3.1-2.3.1/.content/arm-none-eabi/include/c++/10.3.1/bits/stl_pair.h **** 	using __do_converts = __and_<is_convertible<const _U1&, _T1>,
 135:/Users/lawrencestanton/Library/Application Support/Code/User/globalStorage/bmd.stm32-for-vscode/@xpack-dev-tools/arm-none-eabi-gcc/10.3.1-2.3.1/.content/arm-none-eabi/include/c++/10.3.1/bits/stl_pair.h **** 				  is_convertible<_U2&&, _T2>>;
 136:/Users/lawrencestanton/Library/Application Support/Code/User/globalStorage/bmd.stm32-for-vscode/@xpack-dev-tools/arm-none-eabi-gcc/10.3.1-2.3.1/.content/arm-none-eabi/include/c++/10.3.1/bits/stl_pair.h **** 	using __converts = typename conditional<__implicit,
 137:/Users/lawrencestanton/Library/Application Support/Code/User/globalStorage/bmd.stm32-for-vscode/@xpack-dev-tools/arm-none-eabi-gcc/10.3.1-2.3.1/.content/arm-none-eabi/include/c++/10.3.1/bits/stl_pair.h **** 				       __do_converts,
 138:/Users/lawrencestanton/Library/Application Support/Code/User/globalStorage/bmd.stm32-for-vscode/@xpack-dev-tools/arm-none-eabi-gcc/10.3.1-2.3.1/.content/arm-none-eabi/include/c++/10.3.1/bits/stl_pair.h **** 				       __not_<__do_converts>>::type;
 139:/Users/lawrencestanton/Library/Application Support/Code/User/globalStorage/bmd.stm32-for-vscode/@xpack-dev-tools/arm-none-eabi-gcc/10.3.1-2.3.1/.content/arm-none-eabi/include/c++/10.3.1/bits/stl_pair.h **** 	return __and_<is_constructible<_T1, const _U1&>,
 140:/Users/lawrencestanton/Library/Application Support/Code/User/globalStorage/bmd.stm32-for-vscode/@xpack-dev-tools/arm-none-eabi-gcc/10.3.1-2.3.1/.content/arm-none-eabi/include/c++/10.3.1/bits/stl_pair.h **** 		      is_constructible<_T2, _U2&&>,
 141:/Users/lawrencestanton/Library/Application Support/Code/User/globalStorage/bmd.stm32-for-vscode/@xpack-dev-tools/arm-none-eabi-gcc/10.3.1-2.3.1/.content/arm-none-eabi/include/c++/10.3.1/bits/stl_pair.h **** 		      __converts
 142:/Users/lawrencestanton/Library/Application Support/Code/User/globalStorage/bmd.stm32-for-vscode/@xpack-dev-tools/arm-none-eabi-gcc/10.3.1-2.3.1/.content/arm-none-eabi/include/c++/10.3.1/bits/stl_pair.h **** 		      >::value;
 143:/Users/lawrencestanton/Library/Application Support/Code/User/globalStorage/bmd.stm32-for-vscode/@xpack-dev-tools/arm-none-eabi-gcc/10.3.1-2.3.1/.content/arm-none-eabi/include/c++/10.3.1/bits/stl_pair.h ****       }
 144:/Users/lawrencestanton/Library/Application Support/Code/User/globalStorage/bmd.stm32-for-vscode/@xpack-dev-tools/arm-none-eabi-gcc/10.3.1-2.3.1/.content/arm-none-eabi/include/c++/10.3.1/bits/stl_pair.h **** 
 145:/Users/lawrencestanton/Library/Application Support/Code/User/globalStorage/bmd.stm32-for-vscode/@xpack-dev-tools/arm-none-eabi-gcc/10.3.1-2.3.1/.content/arm-none-eabi/include/c++/10.3.1/bits/stl_pair.h ****       template <bool __implicit, typename _U1, typename _U2>
 146:/Users/lawrencestanton/Library/Application Support/Code/User/globalStorage/bmd.stm32-for-vscode/@xpack-dev-tools/arm-none-eabi-gcc/10.3.1-2.3.1/.content/arm-none-eabi/include/c++/10.3.1/bits/stl_pair.h ****       static constexpr bool _MoveCopyPair()
 147:/Users/lawrencestanton/Library/Application Support/Code/User/globalStorage/bmd.stm32-for-vscode/@xpack-dev-tools/arm-none-eabi-gcc/10.3.1-2.3.1/.content/arm-none-eabi/include/c++/10.3.1/bits/stl_pair.h ****       {
 148:/Users/lawrencestanton/Library/Application Support/Code/User/globalStorage/bmd.stm32-for-vscode/@xpack-dev-tools/arm-none-eabi-gcc/10.3.1-2.3.1/.content/arm-none-eabi/include/c++/10.3.1/bits/stl_pair.h **** 	using __do_converts = __and_<is_convertible<_U1&&, _T1>,
 149:/Users/lawrencestanton/Library/Application Support/Code/User/globalStorage/bmd.stm32-for-vscode/@xpack-dev-tools/arm-none-eabi-gcc/10.3.1-2.3.1/.content/arm-none-eabi/include/c++/10.3.1/bits/stl_pair.h **** 				  is_convertible<const _U2&, _T2>>;
 150:/Users/lawrencestanton/Library/Application Support/Code/User/globalStorage/bmd.stm32-for-vscode/@xpack-dev-tools/arm-none-eabi-gcc/10.3.1-2.3.1/.content/arm-none-eabi/include/c++/10.3.1/bits/stl_pair.h **** 	using __converts = typename conditional<__implicit,
 151:/Users/lawrencestanton/Library/Application Support/Code/User/globalStorage/bmd.stm32-for-vscode/@xpack-dev-tools/arm-none-eabi-gcc/10.3.1-2.3.1/.content/arm-none-eabi/include/c++/10.3.1/bits/stl_pair.h **** 				       __do_converts,
 152:/Users/lawrencestanton/Library/Application Support/Code/User/globalStorage/bmd.stm32-for-vscode/@xpack-dev-tools/arm-none-eabi-gcc/10.3.1-2.3.1/.content/arm-none-eabi/include/c++/10.3.1/bits/stl_pair.h **** 				       __not_<__do_converts>>::type;
 153:/Users/lawrencestanton/Library/Application Support/Code/User/globalStorage/bmd.stm32-for-vscode/@xpack-dev-tools/arm-none-eabi-gcc/10.3.1-2.3.1/.content/arm-none-eabi/include/c++/10.3.1/bits/stl_pair.h **** 	return __and_<is_constructible<_T1, _U1&&>,
 154:/Users/lawrencestanton/Library/Application Support/Code/User/globalStorage/bmd.stm32-for-vscode/@xpack-dev-tools/arm-none-eabi-gcc/10.3.1-2.3.1/.content/arm-none-eabi/include/c++/10.3.1/bits/stl_pair.h **** 		      is_constructible<_T2, const _U2&&>,
 155:/Users/lawrencestanton/Library/Application Support/Code/User/globalStorage/bmd.stm32-for-vscode/@xpack-dev-tools/arm-none-eabi-gcc/10.3.1-2.3.1/.content/arm-none-eabi/include/c++/10.3.1/bits/stl_pair.h **** 		      __converts
 156:/Users/lawrencestanton/Library/Application Support/Code/User/globalStorage/bmd.stm32-for-vscode/@xpack-dev-tools/arm-none-eabi-gcc/10.3.1-2.3.1/.content/arm-none-eabi/include/c++/10.3.1/bits/stl_pair.h **** 		      >::value;
 157:/Users/lawrencestanton/Library/Application Support/Code/User/globalStorage/bmd.stm32-for-vscode/@xpack-dev-tools/arm-none-eabi-gcc/10.3.1-2.3.1/.content/arm-none-eabi/include/c++/10.3.1/bits/stl_pair.h ****       }
 158:/Users/lawrencestanton/Library/Application Support/Code/User/globalStorage/bmd.stm32-for-vscode/@xpack-dev-tools/arm-none-eabi-gcc/10.3.1-2.3.1/.content/arm-none-eabi/include/c++/10.3.1/bits/stl_pair.h ****   };
 159:/Users/lawrencestanton/Library/Application Support/Code/User/globalStorage/bmd.stm32-for-vscode/@xpack-dev-tools/arm-none-eabi-gcc/10.3.1-2.3.1/.content/arm-none-eabi/include/c++/10.3.1/bits/stl_pair.h **** 
 160:/Users/lawrencestanton/Library/Application Support/Code/User/globalStorage/bmd.stm32-for-vscode/@xpack-dev-tools/arm-none-eabi-gcc/10.3.1-2.3.1/.content/arm-none-eabi/include/c++/10.3.1/bits/stl_pair.h ****   template <typename _T1, typename _T2>
 161:/Users/lawrencestanton/Library/Application Support/Code/User/globalStorage/bmd.stm32-for-vscode/@xpack-dev-tools/arm-none-eabi-gcc/10.3.1-2.3.1/.content/arm-none-eabi/include/c++/10.3.1/bits/stl_pair.h ****     struct _PCC<false, _T1, _T2>
 162:/Users/lawrencestanton/Library/Application Support/Code/User/globalStorage/bmd.stm32-for-vscode/@xpack-dev-tools/arm-none-eabi-gcc/10.3.1-2.3.1/.content/arm-none-eabi/include/c++/10.3.1/bits/stl_pair.h ****     {
 163:/Users/lawrencestanton/Library/Application Support/Code/User/globalStorage/bmd.stm32-for-vscode/@xpack-dev-tools/arm-none-eabi-gcc/10.3.1-2.3.1/.content/arm-none-eabi/include/c++/10.3.1/bits/stl_pair.h ****       template <typename _U1, typename _U2>
 164:/Users/lawrencestanton/Library/Application Support/Code/User/globalStorage/bmd.stm32-for-vscode/@xpack-dev-tools/arm-none-eabi-gcc/10.3.1-2.3.1/.content/arm-none-eabi/include/c++/10.3.1/bits/stl_pair.h ****       static constexpr bool _ConstructiblePair()
 165:/Users/lawrencestanton/Library/Application Support/Code/User/globalStorage/bmd.stm32-for-vscode/@xpack-dev-tools/arm-none-eabi-gcc/10.3.1-2.3.1/.content/arm-none-eabi/include/c++/10.3.1/bits/stl_pair.h ****       {
 166:/Users/lawrencestanton/Library/Application Support/Code/User/globalStorage/bmd.stm32-for-vscode/@xpack-dev-tools/arm-none-eabi-gcc/10.3.1-2.3.1/.content/arm-none-eabi/include/c++/10.3.1/bits/stl_pair.h **** 	return false;
 167:/Users/lawrencestanton/Library/Application Support/Code/User/globalStorage/bmd.stm32-for-vscode/@xpack-dev-tools/arm-none-eabi-gcc/10.3.1-2.3.1/.content/arm-none-eabi/include/c++/10.3.1/bits/stl_pair.h ****       }
 168:/Users/lawrencestanton/Library/Application Support/Code/User/globalStorage/bmd.stm32-for-vscode/@xpack-dev-tools/arm-none-eabi-gcc/10.3.1-2.3.1/.content/arm-none-eabi/include/c++/10.3.1/bits/stl_pair.h **** 
 169:/Users/lawrencestanton/Library/Application Support/Code/User/globalStorage/bmd.stm32-for-vscode/@xpack-dev-tools/arm-none-eabi-gcc/10.3.1-2.3.1/.content/arm-none-eabi/include/c++/10.3.1/bits/stl_pair.h ****       template <typename _U1, typename _U2>
 170:/Users/lawrencestanton/Library/Application Support/Code/User/globalStorage/bmd.stm32-for-vscode/@xpack-dev-tools/arm-none-eabi-gcc/10.3.1-2.3.1/.content/arm-none-eabi/include/c++/10.3.1/bits/stl_pair.h ****       static constexpr bool _ImplicitlyConvertiblePair()
 171:/Users/lawrencestanton/Library/Application Support/Code/User/globalStorage/bmd.stm32-for-vscode/@xpack-dev-tools/arm-none-eabi-gcc/10.3.1-2.3.1/.content/arm-none-eabi/include/c++/10.3.1/bits/stl_pair.h ****       {
 172:/Users/lawrencestanton/Library/Application Support/Code/User/globalStorage/bmd.stm32-for-vscode/@xpack-dev-tools/arm-none-eabi-gcc/10.3.1-2.3.1/.content/arm-none-eabi/include/c++/10.3.1/bits/stl_pair.h **** 	return false;
 173:/Users/lawrencestanton/Library/Application Support/Code/User/globalStorage/bmd.stm32-for-vscode/@xpack-dev-tools/arm-none-eabi-gcc/10.3.1-2.3.1/.content/arm-none-eabi/include/c++/10.3.1/bits/stl_pair.h ****       }
 174:/Users/lawrencestanton/Library/Application Support/Code/User/globalStorage/bmd.stm32-for-vscode/@xpack-dev-tools/arm-none-eabi-gcc/10.3.1-2.3.1/.content/arm-none-eabi/include/c++/10.3.1/bits/stl_pair.h **** 
 175:/Users/lawrencestanton/Library/Application Support/Code/User/globalStorage/bmd.stm32-for-vscode/@xpack-dev-tools/arm-none-eabi-gcc/10.3.1-2.3.1/.content/arm-none-eabi/include/c++/10.3.1/bits/stl_pair.h ****       template <typename _U1, typename _U2>
 176:/Users/lawrencestanton/Library/Application Support/Code/User/globalStorage/bmd.stm32-for-vscode/@xpack-dev-tools/arm-none-eabi-gcc/10.3.1-2.3.1/.content/arm-none-eabi/include/c++/10.3.1/bits/stl_pair.h ****       static constexpr bool _MoveConstructiblePair()
 177:/Users/lawrencestanton/Library/Application Support/Code/User/globalStorage/bmd.stm32-for-vscode/@xpack-dev-tools/arm-none-eabi-gcc/10.3.1-2.3.1/.content/arm-none-eabi/include/c++/10.3.1/bits/stl_pair.h ****       {
 178:/Users/lawrencestanton/Library/Application Support/Code/User/globalStorage/bmd.stm32-for-vscode/@xpack-dev-tools/arm-none-eabi-gcc/10.3.1-2.3.1/.content/arm-none-eabi/include/c++/10.3.1/bits/stl_pair.h **** 	return false;
 179:/Users/lawrencestanton/Library/Application Support/Code/User/globalStorage/bmd.stm32-for-vscode/@xpack-dev-tools/arm-none-eabi-gcc/10.3.1-2.3.1/.content/arm-none-eabi/include/c++/10.3.1/bits/stl_pair.h ****       }
 180:/Users/lawrencestanton/Library/Application Support/Code/User/globalStorage/bmd.stm32-for-vscode/@xpack-dev-tools/arm-none-eabi-gcc/10.3.1-2.3.1/.content/arm-none-eabi/include/c++/10.3.1/bits/stl_pair.h **** 
 181:/Users/lawrencestanton/Library/Application Support/Code/User/globalStorage/bmd.stm32-for-vscode/@xpack-dev-tools/arm-none-eabi-gcc/10.3.1-2.3.1/.content/arm-none-eabi/include/c++/10.3.1/bits/stl_pair.h ****       template <typename _U1, typename _U2>
 182:/Users/lawrencestanton/Library/Application Support/Code/User/globalStorage/bmd.stm32-for-vscode/@xpack-dev-tools/arm-none-eabi-gcc/10.3.1-2.3.1/.content/arm-none-eabi/include/c++/10.3.1/bits/stl_pair.h ****       static constexpr bool _ImplicitlyMoveConvertiblePair()
 183:/Users/lawrencestanton/Library/Application Support/Code/User/globalStorage/bmd.stm32-for-vscode/@xpack-dev-tools/arm-none-eabi-gcc/10.3.1-2.3.1/.content/arm-none-eabi/include/c++/10.3.1/bits/stl_pair.h ****       {
 184:/Users/lawrencestanton/Library/Application Support/Code/User/globalStorage/bmd.stm32-for-vscode/@xpack-dev-tools/arm-none-eabi-gcc/10.3.1-2.3.1/.content/arm-none-eabi/include/c++/10.3.1/bits/stl_pair.h **** 	return false;
ARM GAS  /var/folders/bb/dhrb69655gd8t4nf464nxc_00000gn/T//ccJ8l31o.s 			page 33


 185:/Users/lawrencestanton/Library/Application Support/Code/User/globalStorage/bmd.stm32-for-vscode/@xpack-dev-tools/arm-none-eabi-gcc/10.3.1-2.3.1/.content/arm-none-eabi/include/c++/10.3.1/bits/stl_pair.h ****       }
 186:/Users/lawrencestanton/Library/Application Support/Code/User/globalStorage/bmd.stm32-for-vscode/@xpack-dev-tools/arm-none-eabi-gcc/10.3.1-2.3.1/.content/arm-none-eabi/include/c++/10.3.1/bits/stl_pair.h ****   };
 187:/Users/lawrencestanton/Library/Application Support/Code/User/globalStorage/bmd.stm32-for-vscode/@xpack-dev-tools/arm-none-eabi-gcc/10.3.1-2.3.1/.content/arm-none-eabi/include/c++/10.3.1/bits/stl_pair.h **** #endif // C++11
 188:/Users/lawrencestanton/Library/Application Support/Code/User/globalStorage/bmd.stm32-for-vscode/@xpack-dev-tools/arm-none-eabi-gcc/10.3.1-2.3.1/.content/arm-none-eabi/include/c++/10.3.1/bits/stl_pair.h **** 
 189:/Users/lawrencestanton/Library/Application Support/Code/User/globalStorage/bmd.stm32-for-vscode/@xpack-dev-tools/arm-none-eabi-gcc/10.3.1-2.3.1/.content/arm-none-eabi/include/c++/10.3.1/bits/stl_pair.h ****   template<typename _U1, typename _U2> class __pair_base
 190:/Users/lawrencestanton/Library/Application Support/Code/User/globalStorage/bmd.stm32-for-vscode/@xpack-dev-tools/arm-none-eabi-gcc/10.3.1-2.3.1/.content/arm-none-eabi/include/c++/10.3.1/bits/stl_pair.h ****   {
 191:/Users/lawrencestanton/Library/Application Support/Code/User/globalStorage/bmd.stm32-for-vscode/@xpack-dev-tools/arm-none-eabi-gcc/10.3.1-2.3.1/.content/arm-none-eabi/include/c++/10.3.1/bits/stl_pair.h **** #if __cplusplus >= 201103L
 192:/Users/lawrencestanton/Library/Application Support/Code/User/globalStorage/bmd.stm32-for-vscode/@xpack-dev-tools/arm-none-eabi-gcc/10.3.1-2.3.1/.content/arm-none-eabi/include/c++/10.3.1/bits/stl_pair.h ****     template<typename _T1, typename _T2> friend struct pair;
 193:/Users/lawrencestanton/Library/Application Support/Code/User/globalStorage/bmd.stm32-for-vscode/@xpack-dev-tools/arm-none-eabi-gcc/10.3.1-2.3.1/.content/arm-none-eabi/include/c++/10.3.1/bits/stl_pair.h ****     __pair_base() = default;
 194:/Users/lawrencestanton/Library/Application Support/Code/User/globalStorage/bmd.stm32-for-vscode/@xpack-dev-tools/arm-none-eabi-gcc/10.3.1-2.3.1/.content/arm-none-eabi/include/c++/10.3.1/bits/stl_pair.h ****     ~__pair_base() = default;
 195:/Users/lawrencestanton/Library/Application Support/Code/User/globalStorage/bmd.stm32-for-vscode/@xpack-dev-tools/arm-none-eabi-gcc/10.3.1-2.3.1/.content/arm-none-eabi/include/c++/10.3.1/bits/stl_pair.h ****     __pair_base(const __pair_base&) = default;
 196:/Users/lawrencestanton/Library/Application Support/Code/User/globalStorage/bmd.stm32-for-vscode/@xpack-dev-tools/arm-none-eabi-gcc/10.3.1-2.3.1/.content/arm-none-eabi/include/c++/10.3.1/bits/stl_pair.h ****     __pair_base& operator=(const __pair_base&) = delete;
 197:/Users/lawrencestanton/Library/Application Support/Code/User/globalStorage/bmd.stm32-for-vscode/@xpack-dev-tools/arm-none-eabi-gcc/10.3.1-2.3.1/.content/arm-none-eabi/include/c++/10.3.1/bits/stl_pair.h **** #endif // C++11
 198:/Users/lawrencestanton/Library/Application Support/Code/User/globalStorage/bmd.stm32-for-vscode/@xpack-dev-tools/arm-none-eabi-gcc/10.3.1-2.3.1/.content/arm-none-eabi/include/c++/10.3.1/bits/stl_pair.h ****   };
 199:/Users/lawrencestanton/Library/Application Support/Code/User/globalStorage/bmd.stm32-for-vscode/@xpack-dev-tools/arm-none-eabi-gcc/10.3.1-2.3.1/.content/arm-none-eabi/include/c++/10.3.1/bits/stl_pair.h **** 
 200:/Users/lawrencestanton/Library/Application Support/Code/User/globalStorage/bmd.stm32-for-vscode/@xpack-dev-tools/arm-none-eabi-gcc/10.3.1-2.3.1/.content/arm-none-eabi/include/c++/10.3.1/bits/stl_pair.h ****   /// @endcond
 201:/Users/lawrencestanton/Library/Application Support/Code/User/globalStorage/bmd.stm32-for-vscode/@xpack-dev-tools/arm-none-eabi-gcc/10.3.1-2.3.1/.content/arm-none-eabi/include/c++/10.3.1/bits/stl_pair.h **** 
 202:/Users/lawrencestanton/Library/Application Support/Code/User/globalStorage/bmd.stm32-for-vscode/@xpack-dev-tools/arm-none-eabi-gcc/10.3.1-2.3.1/.content/arm-none-eabi/include/c++/10.3.1/bits/stl_pair.h ****  /**
 203:/Users/lawrencestanton/Library/Application Support/Code/User/globalStorage/bmd.stm32-for-vscode/@xpack-dev-tools/arm-none-eabi-gcc/10.3.1-2.3.1/.content/arm-none-eabi/include/c++/10.3.1/bits/stl_pair.h ****    *  @brief Struct holding two objects of arbitrary type.
 204:/Users/lawrencestanton/Library/Application Support/Code/User/globalStorage/bmd.stm32-for-vscode/@xpack-dev-tools/arm-none-eabi-gcc/10.3.1-2.3.1/.content/arm-none-eabi/include/c++/10.3.1/bits/stl_pair.h ****    *
 205:/Users/lawrencestanton/Library/Application Support/Code/User/globalStorage/bmd.stm32-for-vscode/@xpack-dev-tools/arm-none-eabi-gcc/10.3.1-2.3.1/.content/arm-none-eabi/include/c++/10.3.1/bits/stl_pair.h ****    *  @tparam _T1  Type of first object.
 206:/Users/lawrencestanton/Library/Application Support/Code/User/globalStorage/bmd.stm32-for-vscode/@xpack-dev-tools/arm-none-eabi-gcc/10.3.1-2.3.1/.content/arm-none-eabi/include/c++/10.3.1/bits/stl_pair.h ****    *  @tparam _T2  Type of second object.
 207:/Users/lawrencestanton/Library/Application Support/Code/User/globalStorage/bmd.stm32-for-vscode/@xpack-dev-tools/arm-none-eabi-gcc/10.3.1-2.3.1/.content/arm-none-eabi/include/c++/10.3.1/bits/stl_pair.h ****    *
 208:/Users/lawrencestanton/Library/Application Support/Code/User/globalStorage/bmd.stm32-for-vscode/@xpack-dev-tools/arm-none-eabi-gcc/10.3.1-2.3.1/.content/arm-none-eabi/include/c++/10.3.1/bits/stl_pair.h ****    *  <https://gcc.gnu.org/onlinedocs/libstdc++/manual/utilities.html>
 209:/Users/lawrencestanton/Library/Application Support/Code/User/globalStorage/bmd.stm32-for-vscode/@xpack-dev-tools/arm-none-eabi-gcc/10.3.1-2.3.1/.content/arm-none-eabi/include/c++/10.3.1/bits/stl_pair.h ****    */
 210:/Users/lawrencestanton/Library/Application Support/Code/User/globalStorage/bmd.stm32-for-vscode/@xpack-dev-tools/arm-none-eabi-gcc/10.3.1-2.3.1/.content/arm-none-eabi/include/c++/10.3.1/bits/stl_pair.h ****   template<typename _T1, typename _T2>
 211:/Users/lawrencestanton/Library/Application Support/Code/User/globalStorage/bmd.stm32-for-vscode/@xpack-dev-tools/arm-none-eabi-gcc/10.3.1-2.3.1/.content/arm-none-eabi/include/c++/10.3.1/bits/stl_pair.h ****     struct pair
 212:/Users/lawrencestanton/Library/Application Support/Code/User/globalStorage/bmd.stm32-for-vscode/@xpack-dev-tools/arm-none-eabi-gcc/10.3.1-2.3.1/.content/arm-none-eabi/include/c++/10.3.1/bits/stl_pair.h ****     : private __pair_base<_T1, _T2>
 213:/Users/lawrencestanton/Library/Application Support/Code/User/globalStorage/bmd.stm32-for-vscode/@xpack-dev-tools/arm-none-eabi-gcc/10.3.1-2.3.1/.content/arm-none-eabi/include/c++/10.3.1/bits/stl_pair.h ****     {
 214:/Users/lawrencestanton/Library/Application Support/Code/User/globalStorage/bmd.stm32-for-vscode/@xpack-dev-tools/arm-none-eabi-gcc/10.3.1-2.3.1/.content/arm-none-eabi/include/c++/10.3.1/bits/stl_pair.h ****       typedef _T1 first_type;    ///< The type of the `first` member
 215:/Users/lawrencestanton/Library/Application Support/Code/User/globalStorage/bmd.stm32-for-vscode/@xpack-dev-tools/arm-none-eabi-gcc/10.3.1-2.3.1/.content/arm-none-eabi/include/c++/10.3.1/bits/stl_pair.h ****       typedef _T2 second_type;   ///< The type of the `second` member
 216:/Users/lawrencestanton/Library/Application Support/Code/User/globalStorage/bmd.stm32-for-vscode/@xpack-dev-tools/arm-none-eabi-gcc/10.3.1-2.3.1/.content/arm-none-eabi/include/c++/10.3.1/bits/stl_pair.h **** 
 217:/Users/lawrencestanton/Library/Application Support/Code/User/globalStorage/bmd.stm32-for-vscode/@xpack-dev-tools/arm-none-eabi-gcc/10.3.1-2.3.1/.content/arm-none-eabi/include/c++/10.3.1/bits/stl_pair.h ****       _T1 first;                 ///< The first member
 218:/Users/lawrencestanton/Library/Application Support/Code/User/globalStorage/bmd.stm32-for-vscode/@xpack-dev-tools/arm-none-eabi-gcc/10.3.1-2.3.1/.content/arm-none-eabi/include/c++/10.3.1/bits/stl_pair.h ****       _T2 second;                ///< The second member
 219:/Users/lawrencestanton/Library/Application Support/Code/User/globalStorage/bmd.stm32-for-vscode/@xpack-dev-tools/arm-none-eabi-gcc/10.3.1-2.3.1/.content/arm-none-eabi/include/c++/10.3.1/bits/stl_pair.h **** 
 220:/Users/lawrencestanton/Library/Application Support/Code/User/globalStorage/bmd.stm32-for-vscode/@xpack-dev-tools/arm-none-eabi-gcc/10.3.1-2.3.1/.content/arm-none-eabi/include/c++/10.3.1/bits/stl_pair.h ****       // _GLIBCXX_RESOLVE_LIB_DEFECTS
 221:/Users/lawrencestanton/Library/Application Support/Code/User/globalStorage/bmd.stm32-for-vscode/@xpack-dev-tools/arm-none-eabi-gcc/10.3.1-2.3.1/.content/arm-none-eabi/include/c++/10.3.1/bits/stl_pair.h ****       // 265.  std::pair::pair() effects overly restrictive
 222:/Users/lawrencestanton/Library/Application Support/Code/User/globalStorage/bmd.stm32-for-vscode/@xpack-dev-tools/arm-none-eabi-gcc/10.3.1-2.3.1/.content/arm-none-eabi/include/c++/10.3.1/bits/stl_pair.h ****       /** The default constructor creates @c first and @c second using their
 223:/Users/lawrencestanton/Library/Application Support/Code/User/globalStorage/bmd.stm32-for-vscode/@xpack-dev-tools/arm-none-eabi-gcc/10.3.1-2.3.1/.content/arm-none-eabi/include/c++/10.3.1/bits/stl_pair.h ****        *  respective default constructors.  */
 224:/Users/lawrencestanton/Library/Application Support/Code/User/globalStorage/bmd.stm32-for-vscode/@xpack-dev-tools/arm-none-eabi-gcc/10.3.1-2.3.1/.content/arm-none-eabi/include/c++/10.3.1/bits/stl_pair.h **** #if __cplusplus >= 201103L
 225:/Users/lawrencestanton/Library/Application Support/Code/User/globalStorage/bmd.stm32-for-vscode/@xpack-dev-tools/arm-none-eabi-gcc/10.3.1-2.3.1/.content/arm-none-eabi/include/c++/10.3.1/bits/stl_pair.h ****       template <typename _U1 = _T1,
 226:/Users/lawrencestanton/Library/Application Support/Code/User/globalStorage/bmd.stm32-for-vscode/@xpack-dev-tools/arm-none-eabi-gcc/10.3.1-2.3.1/.content/arm-none-eabi/include/c++/10.3.1/bits/stl_pair.h ****                 typename _U2 = _T2,
 227:/Users/lawrencestanton/Library/Application Support/Code/User/globalStorage/bmd.stm32-for-vscode/@xpack-dev-tools/arm-none-eabi-gcc/10.3.1-2.3.1/.content/arm-none-eabi/include/c++/10.3.1/bits/stl_pair.h ****                 typename enable_if<__and_<
 228:/Users/lawrencestanton/Library/Application Support/Code/User/globalStorage/bmd.stm32-for-vscode/@xpack-dev-tools/arm-none-eabi-gcc/10.3.1-2.3.1/.content/arm-none-eabi/include/c++/10.3.1/bits/stl_pair.h ****                                      __is_implicitly_default_constructible<_U1>,
 229:/Users/lawrencestanton/Library/Application Support/Code/User/globalStorage/bmd.stm32-for-vscode/@xpack-dev-tools/arm-none-eabi-gcc/10.3.1-2.3.1/.content/arm-none-eabi/include/c++/10.3.1/bits/stl_pair.h ****                                      __is_implicitly_default_constructible<_U2>>
 230:/Users/lawrencestanton/Library/Application Support/Code/User/globalStorage/bmd.stm32-for-vscode/@xpack-dev-tools/arm-none-eabi-gcc/10.3.1-2.3.1/.content/arm-none-eabi/include/c++/10.3.1/bits/stl_pair.h ****                                    ::value, bool>::type = true>
 231:/Users/lawrencestanton/Library/Application Support/Code/User/globalStorage/bmd.stm32-for-vscode/@xpack-dev-tools/arm-none-eabi-gcc/10.3.1-2.3.1/.content/arm-none-eabi/include/c++/10.3.1/bits/stl_pair.h **** #endif
 232:/Users/lawrencestanton/Library/Application Support/Code/User/globalStorage/bmd.stm32-for-vscode/@xpack-dev-tools/arm-none-eabi-gcc/10.3.1-2.3.1/.content/arm-none-eabi/include/c++/10.3.1/bits/stl_pair.h ****       _GLIBCXX_CONSTEXPR pair()
 233:/Users/lawrencestanton/Library/Application Support/Code/User/globalStorage/bmd.stm32-for-vscode/@xpack-dev-tools/arm-none-eabi-gcc/10.3.1-2.3.1/.content/arm-none-eabi/include/c++/10.3.1/bits/stl_pair.h ****       : first(), second() { }
 234:/Users/lawrencestanton/Library/Application Support/Code/User/globalStorage/bmd.stm32-for-vscode/@xpack-dev-tools/arm-none-eabi-gcc/10.3.1-2.3.1/.content/arm-none-eabi/include/c++/10.3.1/bits/stl_pair.h **** 
 235:/Users/lawrencestanton/Library/Application Support/Code/User/globalStorage/bmd.stm32-for-vscode/@xpack-dev-tools/arm-none-eabi-gcc/10.3.1-2.3.1/.content/arm-none-eabi/include/c++/10.3.1/bits/stl_pair.h **** #if __cplusplus >= 201103L
 236:/Users/lawrencestanton/Library/Application Support/Code/User/globalStorage/bmd.stm32-for-vscode/@xpack-dev-tools/arm-none-eabi-gcc/10.3.1-2.3.1/.content/arm-none-eabi/include/c++/10.3.1/bits/stl_pair.h ****       template <typename _U1 = _T1,
 237:/Users/lawrencestanton/Library/Application Support/Code/User/globalStorage/bmd.stm32-for-vscode/@xpack-dev-tools/arm-none-eabi-gcc/10.3.1-2.3.1/.content/arm-none-eabi/include/c++/10.3.1/bits/stl_pair.h ****                 typename _U2 = _T2,
 238:/Users/lawrencestanton/Library/Application Support/Code/User/globalStorage/bmd.stm32-for-vscode/@xpack-dev-tools/arm-none-eabi-gcc/10.3.1-2.3.1/.content/arm-none-eabi/include/c++/10.3.1/bits/stl_pair.h ****                 typename enable_if<__and_<
 239:/Users/lawrencestanton/Library/Application Support/Code/User/globalStorage/bmd.stm32-for-vscode/@xpack-dev-tools/arm-none-eabi-gcc/10.3.1-2.3.1/.content/arm-none-eabi/include/c++/10.3.1/bits/stl_pair.h ****                        is_default_constructible<_U1>,
 240:/Users/lawrencestanton/Library/Application Support/Code/User/globalStorage/bmd.stm32-for-vscode/@xpack-dev-tools/arm-none-eabi-gcc/10.3.1-2.3.1/.content/arm-none-eabi/include/c++/10.3.1/bits/stl_pair.h ****                        is_default_constructible<_U2>,
 241:/Users/lawrencestanton/Library/Application Support/Code/User/globalStorage/bmd.stm32-for-vscode/@xpack-dev-tools/arm-none-eabi-gcc/10.3.1-2.3.1/.content/arm-none-eabi/include/c++/10.3.1/bits/stl_pair.h ****                        __not_<
ARM GAS  /var/folders/bb/dhrb69655gd8t4nf464nxc_00000gn/T//ccJ8l31o.s 			page 34


 242:/Users/lawrencestanton/Library/Application Support/Code/User/globalStorage/bmd.stm32-for-vscode/@xpack-dev-tools/arm-none-eabi-gcc/10.3.1-2.3.1/.content/arm-none-eabi/include/c++/10.3.1/bits/stl_pair.h ****                          __and_<__is_implicitly_default_constructible<_U1>,
 243:/Users/lawrencestanton/Library/Application Support/Code/User/globalStorage/bmd.stm32-for-vscode/@xpack-dev-tools/arm-none-eabi-gcc/10.3.1-2.3.1/.content/arm-none-eabi/include/c++/10.3.1/bits/stl_pair.h ****                                 __is_implicitly_default_constructible<_U2>>>>
 244:/Users/lawrencestanton/Library/Application Support/Code/User/globalStorage/bmd.stm32-for-vscode/@xpack-dev-tools/arm-none-eabi-gcc/10.3.1-2.3.1/.content/arm-none-eabi/include/c++/10.3.1/bits/stl_pair.h ****                                    ::value, bool>::type = false>
 245:/Users/lawrencestanton/Library/Application Support/Code/User/globalStorage/bmd.stm32-for-vscode/@xpack-dev-tools/arm-none-eabi-gcc/10.3.1-2.3.1/.content/arm-none-eabi/include/c++/10.3.1/bits/stl_pair.h ****       explicit constexpr pair()
 246:/Users/lawrencestanton/Library/Application Support/Code/User/globalStorage/bmd.stm32-for-vscode/@xpack-dev-tools/arm-none-eabi-gcc/10.3.1-2.3.1/.content/arm-none-eabi/include/c++/10.3.1/bits/stl_pair.h ****       : first(), second() { }
 247:/Users/lawrencestanton/Library/Application Support/Code/User/globalStorage/bmd.stm32-for-vscode/@xpack-dev-tools/arm-none-eabi-gcc/10.3.1-2.3.1/.content/arm-none-eabi/include/c++/10.3.1/bits/stl_pair.h **** #endif
 248:/Users/lawrencestanton/Library/Application Support/Code/User/globalStorage/bmd.stm32-for-vscode/@xpack-dev-tools/arm-none-eabi-gcc/10.3.1-2.3.1/.content/arm-none-eabi/include/c++/10.3.1/bits/stl_pair.h **** 
 249:/Users/lawrencestanton/Library/Application Support/Code/User/globalStorage/bmd.stm32-for-vscode/@xpack-dev-tools/arm-none-eabi-gcc/10.3.1-2.3.1/.content/arm-none-eabi/include/c++/10.3.1/bits/stl_pair.h **** #if __cplusplus < 201103L
 250:/Users/lawrencestanton/Library/Application Support/Code/User/globalStorage/bmd.stm32-for-vscode/@xpack-dev-tools/arm-none-eabi-gcc/10.3.1-2.3.1/.content/arm-none-eabi/include/c++/10.3.1/bits/stl_pair.h ****       /// Two objects may be passed to a @c pair constructor to be copied.
 251:/Users/lawrencestanton/Library/Application Support/Code/User/globalStorage/bmd.stm32-for-vscode/@xpack-dev-tools/arm-none-eabi-gcc/10.3.1-2.3.1/.content/arm-none-eabi/include/c++/10.3.1/bits/stl_pair.h ****       pair(const _T1& __a, const _T2& __b)
 252:/Users/lawrencestanton/Library/Application Support/Code/User/globalStorage/bmd.stm32-for-vscode/@xpack-dev-tools/arm-none-eabi-gcc/10.3.1-2.3.1/.content/arm-none-eabi/include/c++/10.3.1/bits/stl_pair.h ****       : first(__a), second(__b) { }
 253:/Users/lawrencestanton/Library/Application Support/Code/User/globalStorage/bmd.stm32-for-vscode/@xpack-dev-tools/arm-none-eabi-gcc/10.3.1-2.3.1/.content/arm-none-eabi/include/c++/10.3.1/bits/stl_pair.h **** #else
 254:/Users/lawrencestanton/Library/Application Support/Code/User/globalStorage/bmd.stm32-for-vscode/@xpack-dev-tools/arm-none-eabi-gcc/10.3.1-2.3.1/.content/arm-none-eabi/include/c++/10.3.1/bits/stl_pair.h ****       // Shortcut for constraining the templates that don't take pairs.
 255:/Users/lawrencestanton/Library/Application Support/Code/User/globalStorage/bmd.stm32-for-vscode/@xpack-dev-tools/arm-none-eabi-gcc/10.3.1-2.3.1/.content/arm-none-eabi/include/c++/10.3.1/bits/stl_pair.h ****       /// @cond undocumented
 256:/Users/lawrencestanton/Library/Application Support/Code/User/globalStorage/bmd.stm32-for-vscode/@xpack-dev-tools/arm-none-eabi-gcc/10.3.1-2.3.1/.content/arm-none-eabi/include/c++/10.3.1/bits/stl_pair.h ****       using _PCCP = _PCC<true, _T1, _T2>;
 257:/Users/lawrencestanton/Library/Application Support/Code/User/globalStorage/bmd.stm32-for-vscode/@xpack-dev-tools/arm-none-eabi-gcc/10.3.1-2.3.1/.content/arm-none-eabi/include/c++/10.3.1/bits/stl_pair.h ****       /// @endcond
 258:/Users/lawrencestanton/Library/Application Support/Code/User/globalStorage/bmd.stm32-for-vscode/@xpack-dev-tools/arm-none-eabi-gcc/10.3.1-2.3.1/.content/arm-none-eabi/include/c++/10.3.1/bits/stl_pair.h **** 
 259:/Users/lawrencestanton/Library/Application Support/Code/User/globalStorage/bmd.stm32-for-vscode/@xpack-dev-tools/arm-none-eabi-gcc/10.3.1-2.3.1/.content/arm-none-eabi/include/c++/10.3.1/bits/stl_pair.h ****       /// Construct from two const lvalues, allowing implicit conversions.
 260:/Users/lawrencestanton/Library/Application Support/Code/User/globalStorage/bmd.stm32-for-vscode/@xpack-dev-tools/arm-none-eabi-gcc/10.3.1-2.3.1/.content/arm-none-eabi/include/c++/10.3.1/bits/stl_pair.h ****       template<typename _U1 = _T1, typename _U2=_T2, typename
 261:/Users/lawrencestanton/Library/Application Support/Code/User/globalStorage/bmd.stm32-for-vscode/@xpack-dev-tools/arm-none-eabi-gcc/10.3.1-2.3.1/.content/arm-none-eabi/include/c++/10.3.1/bits/stl_pair.h **** 	       enable_if<_PCCP::template
 262:/Users/lawrencestanton/Library/Application Support/Code/User/globalStorage/bmd.stm32-for-vscode/@xpack-dev-tools/arm-none-eabi-gcc/10.3.1-2.3.1/.content/arm-none-eabi/include/c++/10.3.1/bits/stl_pair.h **** 			   _ConstructiblePair<_U1, _U2>()
 263:/Users/lawrencestanton/Library/Application Support/Code/User/globalStorage/bmd.stm32-for-vscode/@xpack-dev-tools/arm-none-eabi-gcc/10.3.1-2.3.1/.content/arm-none-eabi/include/c++/10.3.1/bits/stl_pair.h **** 	                 && _PCCP::template
 264:/Users/lawrencestanton/Library/Application Support/Code/User/globalStorage/bmd.stm32-for-vscode/@xpack-dev-tools/arm-none-eabi-gcc/10.3.1-2.3.1/.content/arm-none-eabi/include/c++/10.3.1/bits/stl_pair.h **** 			   _ImplicitlyConvertiblePair<_U1, _U2>(),
 265:/Users/lawrencestanton/Library/Application Support/Code/User/globalStorage/bmd.stm32-for-vscode/@xpack-dev-tools/arm-none-eabi-gcc/10.3.1-2.3.1/.content/arm-none-eabi/include/c++/10.3.1/bits/stl_pair.h ****                          bool>::type=true>
 266:/Users/lawrencestanton/Library/Application Support/Code/User/globalStorage/bmd.stm32-for-vscode/@xpack-dev-tools/arm-none-eabi-gcc/10.3.1-2.3.1/.content/arm-none-eabi/include/c++/10.3.1/bits/stl_pair.h ****       constexpr pair(const _T1& __a, const _T2& __b)
 267:/Users/lawrencestanton/Library/Application Support/Code/User/globalStorage/bmd.stm32-for-vscode/@xpack-dev-tools/arm-none-eabi-gcc/10.3.1-2.3.1/.content/arm-none-eabi/include/c++/10.3.1/bits/stl_pair.h ****       : first(__a), second(__b) { }
 268:/Users/lawrencestanton/Library/Application Support/Code/User/globalStorage/bmd.stm32-for-vscode/@xpack-dev-tools/arm-none-eabi-gcc/10.3.1-2.3.1/.content/arm-none-eabi/include/c++/10.3.1/bits/stl_pair.h **** 
 269:/Users/lawrencestanton/Library/Application Support/Code/User/globalStorage/bmd.stm32-for-vscode/@xpack-dev-tools/arm-none-eabi-gcc/10.3.1-2.3.1/.content/arm-none-eabi/include/c++/10.3.1/bits/stl_pair.h ****       /// Construct from two const lvalues, disallowing implicit conversions.
 270:/Users/lawrencestanton/Library/Application Support/Code/User/globalStorage/bmd.stm32-for-vscode/@xpack-dev-tools/arm-none-eabi-gcc/10.3.1-2.3.1/.content/arm-none-eabi/include/c++/10.3.1/bits/stl_pair.h ****        template<typename _U1 = _T1, typename _U2=_T2, typename
 271:/Users/lawrencestanton/Library/Application Support/Code/User/globalStorage/bmd.stm32-for-vscode/@xpack-dev-tools/arm-none-eabi-gcc/10.3.1-2.3.1/.content/arm-none-eabi/include/c++/10.3.1/bits/stl_pair.h **** 		enable_if<_PCCP::template
 272:/Users/lawrencestanton/Library/Application Support/Code/User/globalStorage/bmd.stm32-for-vscode/@xpack-dev-tools/arm-none-eabi-gcc/10.3.1-2.3.1/.content/arm-none-eabi/include/c++/10.3.1/bits/stl_pair.h **** 			    _ConstructiblePair<_U1, _U2>()
 273:/Users/lawrencestanton/Library/Application Support/Code/User/globalStorage/bmd.stm32-for-vscode/@xpack-dev-tools/arm-none-eabi-gcc/10.3.1-2.3.1/.content/arm-none-eabi/include/c++/10.3.1/bits/stl_pair.h **** 	                  && !_PCCP::template
 274:/Users/lawrencestanton/Library/Application Support/Code/User/globalStorage/bmd.stm32-for-vscode/@xpack-dev-tools/arm-none-eabi-gcc/10.3.1-2.3.1/.content/arm-none-eabi/include/c++/10.3.1/bits/stl_pair.h **** 			    _ImplicitlyConvertiblePair<_U1, _U2>(),
 275:/Users/lawrencestanton/Library/Application Support/Code/User/globalStorage/bmd.stm32-for-vscode/@xpack-dev-tools/arm-none-eabi-gcc/10.3.1-2.3.1/.content/arm-none-eabi/include/c++/10.3.1/bits/stl_pair.h ****                          bool>::type=false>
 276:/Users/lawrencestanton/Library/Application Support/Code/User/globalStorage/bmd.stm32-for-vscode/@xpack-dev-tools/arm-none-eabi-gcc/10.3.1-2.3.1/.content/arm-none-eabi/include/c++/10.3.1/bits/stl_pair.h ****       explicit constexpr pair(const _T1& __a, const _T2& __b)
 277:/Users/lawrencestanton/Library/Application Support/Code/User/globalStorage/bmd.stm32-for-vscode/@xpack-dev-tools/arm-none-eabi-gcc/10.3.1-2.3.1/.content/arm-none-eabi/include/c++/10.3.1/bits/stl_pair.h ****       : first(__a), second(__b) { }
 278:/Users/lawrencestanton/Library/Application Support/Code/User/globalStorage/bmd.stm32-for-vscode/@xpack-dev-tools/arm-none-eabi-gcc/10.3.1-2.3.1/.content/arm-none-eabi/include/c++/10.3.1/bits/stl_pair.h **** #endif
 279:/Users/lawrencestanton/Library/Application Support/Code/User/globalStorage/bmd.stm32-for-vscode/@xpack-dev-tools/arm-none-eabi-gcc/10.3.1-2.3.1/.content/arm-none-eabi/include/c++/10.3.1/bits/stl_pair.h **** 
 280:/Users/lawrencestanton/Library/Application Support/Code/User/globalStorage/bmd.stm32-for-vscode/@xpack-dev-tools/arm-none-eabi-gcc/10.3.1-2.3.1/.content/arm-none-eabi/include/c++/10.3.1/bits/stl_pair.h **** #if __cplusplus < 201103L
 281:/Users/lawrencestanton/Library/Application Support/Code/User/globalStorage/bmd.stm32-for-vscode/@xpack-dev-tools/arm-none-eabi-gcc/10.3.1-2.3.1/.content/arm-none-eabi/include/c++/10.3.1/bits/stl_pair.h ****       /// There is also a templated constructor to convert from other pairs.
 282:/Users/lawrencestanton/Library/Application Support/Code/User/globalStorage/bmd.stm32-for-vscode/@xpack-dev-tools/arm-none-eabi-gcc/10.3.1-2.3.1/.content/arm-none-eabi/include/c++/10.3.1/bits/stl_pair.h ****       template<typename _U1, typename _U2>
 283:/Users/lawrencestanton/Library/Application Support/Code/User/globalStorage/bmd.stm32-for-vscode/@xpack-dev-tools/arm-none-eabi-gcc/10.3.1-2.3.1/.content/arm-none-eabi/include/c++/10.3.1/bits/stl_pair.h **** 	pair(const pair<_U1, _U2>& __p)
 284:/Users/lawrencestanton/Library/Application Support/Code/User/globalStorage/bmd.stm32-for-vscode/@xpack-dev-tools/arm-none-eabi-gcc/10.3.1-2.3.1/.content/arm-none-eabi/include/c++/10.3.1/bits/stl_pair.h **** 	: first(__p.first), second(__p.second) { }
 285:/Users/lawrencestanton/Library/Application Support/Code/User/globalStorage/bmd.stm32-for-vscode/@xpack-dev-tools/arm-none-eabi-gcc/10.3.1-2.3.1/.content/arm-none-eabi/include/c++/10.3.1/bits/stl_pair.h **** #else
 286:/Users/lawrencestanton/Library/Application Support/Code/User/globalStorage/bmd.stm32-for-vscode/@xpack-dev-tools/arm-none-eabi-gcc/10.3.1-2.3.1/.content/arm-none-eabi/include/c++/10.3.1/bits/stl_pair.h ****       // Shortcut for constraining the templates that take pairs.
 287:/Users/lawrencestanton/Library/Application Support/Code/User/globalStorage/bmd.stm32-for-vscode/@xpack-dev-tools/arm-none-eabi-gcc/10.3.1-2.3.1/.content/arm-none-eabi/include/c++/10.3.1/bits/stl_pair.h ****       /// @cond undocumented
 288:/Users/lawrencestanton/Library/Application Support/Code/User/globalStorage/bmd.stm32-for-vscode/@xpack-dev-tools/arm-none-eabi-gcc/10.3.1-2.3.1/.content/arm-none-eabi/include/c++/10.3.1/bits/stl_pair.h ****       template <typename _U1, typename _U2>
 289:/Users/lawrencestanton/Library/Application Support/Code/User/globalStorage/bmd.stm32-for-vscode/@xpack-dev-tools/arm-none-eabi-gcc/10.3.1-2.3.1/.content/arm-none-eabi/include/c++/10.3.1/bits/stl_pair.h ****         using _PCCFP = _PCC<!is_same<_T1, _U1>::value
 290:/Users/lawrencestanton/Library/Application Support/Code/User/globalStorage/bmd.stm32-for-vscode/@xpack-dev-tools/arm-none-eabi-gcc/10.3.1-2.3.1/.content/arm-none-eabi/include/c++/10.3.1/bits/stl_pair.h **** 			    || !is_same<_T2, _U2>::value,
 291:/Users/lawrencestanton/Library/Application Support/Code/User/globalStorage/bmd.stm32-for-vscode/@xpack-dev-tools/arm-none-eabi-gcc/10.3.1-2.3.1/.content/arm-none-eabi/include/c++/10.3.1/bits/stl_pair.h **** 			    _T1, _T2>;
 292:/Users/lawrencestanton/Library/Application Support/Code/User/globalStorage/bmd.stm32-for-vscode/@xpack-dev-tools/arm-none-eabi-gcc/10.3.1-2.3.1/.content/arm-none-eabi/include/c++/10.3.1/bits/stl_pair.h ****       /// @endcond
 293:/Users/lawrencestanton/Library/Application Support/Code/User/globalStorage/bmd.stm32-for-vscode/@xpack-dev-tools/arm-none-eabi-gcc/10.3.1-2.3.1/.content/arm-none-eabi/include/c++/10.3.1/bits/stl_pair.h **** 
 294:/Users/lawrencestanton/Library/Application Support/Code/User/globalStorage/bmd.stm32-for-vscode/@xpack-dev-tools/arm-none-eabi-gcc/10.3.1-2.3.1/.content/arm-none-eabi/include/c++/10.3.1/bits/stl_pair.h ****       template<typename _U1, typename _U2, typename
 295:/Users/lawrencestanton/Library/Application Support/Code/User/globalStorage/bmd.stm32-for-vscode/@xpack-dev-tools/arm-none-eabi-gcc/10.3.1-2.3.1/.content/arm-none-eabi/include/c++/10.3.1/bits/stl_pair.h **** 	       enable_if<_PCCFP<_U1, _U2>::template
 296:/Users/lawrencestanton/Library/Application Support/Code/User/globalStorage/bmd.stm32-for-vscode/@xpack-dev-tools/arm-none-eabi-gcc/10.3.1-2.3.1/.content/arm-none-eabi/include/c++/10.3.1/bits/stl_pair.h **** 			   _ConstructiblePair<_U1, _U2>()
 297:/Users/lawrencestanton/Library/Application Support/Code/User/globalStorage/bmd.stm32-for-vscode/@xpack-dev-tools/arm-none-eabi-gcc/10.3.1-2.3.1/.content/arm-none-eabi/include/c++/10.3.1/bits/stl_pair.h **** 	                 && _PCCFP<_U1, _U2>::template
 298:/Users/lawrencestanton/Library/Application Support/Code/User/globalStorage/bmd.stm32-for-vscode/@xpack-dev-tools/arm-none-eabi-gcc/10.3.1-2.3.1/.content/arm-none-eabi/include/c++/10.3.1/bits/stl_pair.h **** 			   _ImplicitlyConvertiblePair<_U1, _U2>(),
ARM GAS  /var/folders/bb/dhrb69655gd8t4nf464nxc_00000gn/T//ccJ8l31o.s 			page 35


 299:/Users/lawrencestanton/Library/Application Support/Code/User/globalStorage/bmd.stm32-for-vscode/@xpack-dev-tools/arm-none-eabi-gcc/10.3.1-2.3.1/.content/arm-none-eabi/include/c++/10.3.1/bits/stl_pair.h **** 			  bool>::type=true>
 300:/Users/lawrencestanton/Library/Application Support/Code/User/globalStorage/bmd.stm32-for-vscode/@xpack-dev-tools/arm-none-eabi-gcc/10.3.1-2.3.1/.content/arm-none-eabi/include/c++/10.3.1/bits/stl_pair.h ****         constexpr pair(const pair<_U1, _U2>& __p)
 301:/Users/lawrencestanton/Library/Application Support/Code/User/globalStorage/bmd.stm32-for-vscode/@xpack-dev-tools/arm-none-eabi-gcc/10.3.1-2.3.1/.content/arm-none-eabi/include/c++/10.3.1/bits/stl_pair.h ****         : first(__p.first), second(__p.second) { }
 302:/Users/lawrencestanton/Library/Application Support/Code/User/globalStorage/bmd.stm32-for-vscode/@xpack-dev-tools/arm-none-eabi-gcc/10.3.1-2.3.1/.content/arm-none-eabi/include/c++/10.3.1/bits/stl_pair.h **** 
 303:/Users/lawrencestanton/Library/Application Support/Code/User/globalStorage/bmd.stm32-for-vscode/@xpack-dev-tools/arm-none-eabi-gcc/10.3.1-2.3.1/.content/arm-none-eabi/include/c++/10.3.1/bits/stl_pair.h ****       template<typename _U1, typename _U2, typename
 304:/Users/lawrencestanton/Library/Application Support/Code/User/globalStorage/bmd.stm32-for-vscode/@xpack-dev-tools/arm-none-eabi-gcc/10.3.1-2.3.1/.content/arm-none-eabi/include/c++/10.3.1/bits/stl_pair.h **** 	       enable_if<_PCCFP<_U1, _U2>::template
 305:/Users/lawrencestanton/Library/Application Support/Code/User/globalStorage/bmd.stm32-for-vscode/@xpack-dev-tools/arm-none-eabi-gcc/10.3.1-2.3.1/.content/arm-none-eabi/include/c++/10.3.1/bits/stl_pair.h **** 			   _ConstructiblePair<_U1, _U2>()
 306:/Users/lawrencestanton/Library/Application Support/Code/User/globalStorage/bmd.stm32-for-vscode/@xpack-dev-tools/arm-none-eabi-gcc/10.3.1-2.3.1/.content/arm-none-eabi/include/c++/10.3.1/bits/stl_pair.h **** 			 && !_PCCFP<_U1, _U2>::template
 307:/Users/lawrencestanton/Library/Application Support/Code/User/globalStorage/bmd.stm32-for-vscode/@xpack-dev-tools/arm-none-eabi-gcc/10.3.1-2.3.1/.content/arm-none-eabi/include/c++/10.3.1/bits/stl_pair.h **** 			   _ImplicitlyConvertiblePair<_U1, _U2>(),
 308:/Users/lawrencestanton/Library/Application Support/Code/User/globalStorage/bmd.stm32-for-vscode/@xpack-dev-tools/arm-none-eabi-gcc/10.3.1-2.3.1/.content/arm-none-eabi/include/c++/10.3.1/bits/stl_pair.h ****                          bool>::type=false>
 309:/Users/lawrencestanton/Library/Application Support/Code/User/globalStorage/bmd.stm32-for-vscode/@xpack-dev-tools/arm-none-eabi-gcc/10.3.1-2.3.1/.content/arm-none-eabi/include/c++/10.3.1/bits/stl_pair.h **** 	explicit constexpr pair(const pair<_U1, _U2>& __p)
 310:/Users/lawrencestanton/Library/Application Support/Code/User/globalStorage/bmd.stm32-for-vscode/@xpack-dev-tools/arm-none-eabi-gcc/10.3.1-2.3.1/.content/arm-none-eabi/include/c++/10.3.1/bits/stl_pair.h **** 	: first(__p.first), second(__p.second) { }
 311:/Users/lawrencestanton/Library/Application Support/Code/User/globalStorage/bmd.stm32-for-vscode/@xpack-dev-tools/arm-none-eabi-gcc/10.3.1-2.3.1/.content/arm-none-eabi/include/c++/10.3.1/bits/stl_pair.h **** #endif
 312:/Users/lawrencestanton/Library/Application Support/Code/User/globalStorage/bmd.stm32-for-vscode/@xpack-dev-tools/arm-none-eabi-gcc/10.3.1-2.3.1/.content/arm-none-eabi/include/c++/10.3.1/bits/stl_pair.h **** 
 313:/Users/lawrencestanton/Library/Application Support/Code/User/globalStorage/bmd.stm32-for-vscode/@xpack-dev-tools/arm-none-eabi-gcc/10.3.1-2.3.1/.content/arm-none-eabi/include/c++/10.3.1/bits/stl_pair.h **** #if __cplusplus >= 201103L
 314:/Users/lawrencestanton/Library/Application Support/Code/User/globalStorage/bmd.stm32-for-vscode/@xpack-dev-tools/arm-none-eabi-gcc/10.3.1-2.3.1/.content/arm-none-eabi/include/c++/10.3.1/bits/stl_pair.h ****       constexpr pair(const pair&) = default;	///< Copy constructor
 315:/Users/lawrencestanton/Library/Application Support/Code/User/globalStorage/bmd.stm32-for-vscode/@xpack-dev-tools/arm-none-eabi-gcc/10.3.1-2.3.1/.content/arm-none-eabi/include/c++/10.3.1/bits/stl_pair.h ****       constexpr pair(pair&&) = default;		///< Move constructor
 316:/Users/lawrencestanton/Library/Application Support/Code/User/globalStorage/bmd.stm32-for-vscode/@xpack-dev-tools/arm-none-eabi-gcc/10.3.1-2.3.1/.content/arm-none-eabi/include/c++/10.3.1/bits/stl_pair.h **** 
 317:/Users/lawrencestanton/Library/Application Support/Code/User/globalStorage/bmd.stm32-for-vscode/@xpack-dev-tools/arm-none-eabi-gcc/10.3.1-2.3.1/.content/arm-none-eabi/include/c++/10.3.1/bits/stl_pair.h ****       // DR 811.
 318:/Users/lawrencestanton/Library/Application Support/Code/User/globalStorage/bmd.stm32-for-vscode/@xpack-dev-tools/arm-none-eabi-gcc/10.3.1-2.3.1/.content/arm-none-eabi/include/c++/10.3.1/bits/stl_pair.h ****       template<typename _U1, typename
 319:/Users/lawrencestanton/Library/Application Support/Code/User/globalStorage/bmd.stm32-for-vscode/@xpack-dev-tools/arm-none-eabi-gcc/10.3.1-2.3.1/.content/arm-none-eabi/include/c++/10.3.1/bits/stl_pair.h **** 	       enable_if<_PCCP::template
 320:/Users/lawrencestanton/Library/Application Support/Code/User/globalStorage/bmd.stm32-for-vscode/@xpack-dev-tools/arm-none-eabi-gcc/10.3.1-2.3.1/.content/arm-none-eabi/include/c++/10.3.1/bits/stl_pair.h **** 			   _MoveCopyPair<true, _U1, _T2>(),
 321:/Users/lawrencestanton/Library/Application Support/Code/User/globalStorage/bmd.stm32-for-vscode/@xpack-dev-tools/arm-none-eabi-gcc/10.3.1-2.3.1/.content/arm-none-eabi/include/c++/10.3.1/bits/stl_pair.h ****                          bool>::type=true>
 322:/Users/lawrencestanton/Library/Application Support/Code/User/globalStorage/bmd.stm32-for-vscode/@xpack-dev-tools/arm-none-eabi-gcc/10.3.1-2.3.1/.content/arm-none-eabi/include/c++/10.3.1/bits/stl_pair.h ****        constexpr pair(_U1&& __x, const _T2& __y)
 323:/Users/lawrencestanton/Library/Application Support/Code/User/globalStorage/bmd.stm32-for-vscode/@xpack-dev-tools/arm-none-eabi-gcc/10.3.1-2.3.1/.content/arm-none-eabi/include/c++/10.3.1/bits/stl_pair.h ****        : first(std::forward<_U1>(__x)), second(__y) { }
 324:/Users/lawrencestanton/Library/Application Support/Code/User/globalStorage/bmd.stm32-for-vscode/@xpack-dev-tools/arm-none-eabi-gcc/10.3.1-2.3.1/.content/arm-none-eabi/include/c++/10.3.1/bits/stl_pair.h **** 
 325:/Users/lawrencestanton/Library/Application Support/Code/User/globalStorage/bmd.stm32-for-vscode/@xpack-dev-tools/arm-none-eabi-gcc/10.3.1-2.3.1/.content/arm-none-eabi/include/c++/10.3.1/bits/stl_pair.h ****       template<typename _U1, typename
 326:/Users/lawrencestanton/Library/Application Support/Code/User/globalStorage/bmd.stm32-for-vscode/@xpack-dev-tools/arm-none-eabi-gcc/10.3.1-2.3.1/.content/arm-none-eabi/include/c++/10.3.1/bits/stl_pair.h **** 	       enable_if<_PCCP::template
 327:/Users/lawrencestanton/Library/Application Support/Code/User/globalStorage/bmd.stm32-for-vscode/@xpack-dev-tools/arm-none-eabi-gcc/10.3.1-2.3.1/.content/arm-none-eabi/include/c++/10.3.1/bits/stl_pair.h **** 			   _MoveCopyPair<false, _U1, _T2>(),
 328:/Users/lawrencestanton/Library/Application Support/Code/User/globalStorage/bmd.stm32-for-vscode/@xpack-dev-tools/arm-none-eabi-gcc/10.3.1-2.3.1/.content/arm-none-eabi/include/c++/10.3.1/bits/stl_pair.h ****                          bool>::type=false>
 329:/Users/lawrencestanton/Library/Application Support/Code/User/globalStorage/bmd.stm32-for-vscode/@xpack-dev-tools/arm-none-eabi-gcc/10.3.1-2.3.1/.content/arm-none-eabi/include/c++/10.3.1/bits/stl_pair.h ****        explicit constexpr pair(_U1&& __x, const _T2& __y)
 330:/Users/lawrencestanton/Library/Application Support/Code/User/globalStorage/bmd.stm32-for-vscode/@xpack-dev-tools/arm-none-eabi-gcc/10.3.1-2.3.1/.content/arm-none-eabi/include/c++/10.3.1/bits/stl_pair.h ****        : first(std::forward<_U1>(__x)), second(__y) { }
 331:/Users/lawrencestanton/Library/Application Support/Code/User/globalStorage/bmd.stm32-for-vscode/@xpack-dev-tools/arm-none-eabi-gcc/10.3.1-2.3.1/.content/arm-none-eabi/include/c++/10.3.1/bits/stl_pair.h **** 
 332:/Users/lawrencestanton/Library/Application Support/Code/User/globalStorage/bmd.stm32-for-vscode/@xpack-dev-tools/arm-none-eabi-gcc/10.3.1-2.3.1/.content/arm-none-eabi/include/c++/10.3.1/bits/stl_pair.h ****       template<typename _U2, typename
 333:/Users/lawrencestanton/Library/Application Support/Code/User/globalStorage/bmd.stm32-for-vscode/@xpack-dev-tools/arm-none-eabi-gcc/10.3.1-2.3.1/.content/arm-none-eabi/include/c++/10.3.1/bits/stl_pair.h **** 	       enable_if<_PCCP::template
 334:/Users/lawrencestanton/Library/Application Support/Code/User/globalStorage/bmd.stm32-for-vscode/@xpack-dev-tools/arm-none-eabi-gcc/10.3.1-2.3.1/.content/arm-none-eabi/include/c++/10.3.1/bits/stl_pair.h **** 			   _CopyMovePair<true, _T1, _U2>(),
 335:/Users/lawrencestanton/Library/Application Support/Code/User/globalStorage/bmd.stm32-for-vscode/@xpack-dev-tools/arm-none-eabi-gcc/10.3.1-2.3.1/.content/arm-none-eabi/include/c++/10.3.1/bits/stl_pair.h ****                          bool>::type=true>
 336:/Users/lawrencestanton/Library/Application Support/Code/User/globalStorage/bmd.stm32-for-vscode/@xpack-dev-tools/arm-none-eabi-gcc/10.3.1-2.3.1/.content/arm-none-eabi/include/c++/10.3.1/bits/stl_pair.h ****        constexpr pair(const _T1& __x, _U2&& __y)
 1083              		.loc 7 336 18
 1084              		.cfi_startproc
 1085              		@ args = 0, pretend = 0, frame = 16
 1086              		@ frame_needed = 1, uses_anonymous_args = 0
 1087 0000 80B5     		push	{r7, lr}
 1088              		.cfi_def_cfa_offset 8
 1089              		.cfi_offset 7, -8
 1090              		.cfi_offset 14, -4
 1091 0002 84B0     		sub	sp, sp, #16
 1092              		.cfi_def_cfa_offset 24
 1093 0004 00AF     		add	r7, sp, #0
 1094              		.cfi_def_cfa_register 7
 1095 0006 F860     		str	r0, [r7, #12]
 1096 0008 B960     		str	r1, [r7, #8]
 1097 000a 7A60     		str	r2, [r7, #4]
 1098              	.LBB6:
 337:/Users/lawrencestanton/Library/Application Support/Code/User/globalStorage/bmd.stm32-for-vscode/@xpack-dev-tools/arm-none-eabi-gcc/10.3.1-2.3.1/.content/arm-none-eabi/include/c++/10.3.1/bits/stl_pair.h ****        : first(__x), second(std::forward<_U2>(__y)) { }
 1099              		.loc 7 337 51
 1100 000c BB68     		ldr	r3, [r7, #8]
ARM GAS  /var/folders/bb/dhrb69655gd8t4nf464nxc_00000gn/T//ccJ8l31o.s 			page 36


 1101 000e 1A68     		ldr	r2, [r3]
 1102 0010 FB68     		ldr	r3, [r7, #12]
 1103 0012 1A60     		str	r2, [r3]
 1104              		.loc 7 337 46
 1105 0014 7868     		ldr	r0, [r7, #4]
 1106 0016 FFF7FEFF 		bl	_ZSt7forwardIjEOT_RNSt16remove_referenceIS0_E4typeE
 1107 001a 0346     		mov	r3, r0
 1108              		.loc 7 337 51
 1109 001c 1B68     		ldr	r3, [r3]
 1110 001e 9AB2     		uxth	r2, r3
 1111 0020 FB68     		ldr	r3, [r7, #12]
 1112 0022 9A80     		strh	r2, [r3, #4]	@ movhi
 1113              	.LBE6:
 1114              		.loc 7 337 55
 1115 0024 FB68     		ldr	r3, [r7, #12]
 1116 0026 1846     		mov	r0, r3
 1117 0028 1037     		adds	r7, r7, #16
 1118              		.cfi_def_cfa_offset 8
 1119 002a BD46     		mov	sp, r7
 1120              		.cfi_def_cfa_register 13
 1121              		@ sp needed
 1122 002c 80BD     		pop	{r7, pc}
 1123              		.cfi_endproc
 1124              	.LFE2273:
 1125              		.cantunwind
 1126              		.fnend
 1128              		.section	.text._ZN3M9N12scanMessagesEv,"ax",%progbits
 1129              		.align	1
 1130              		.global	_ZN3M9N12scanMessagesEv
 1131              		.syntax unified
 1132              		.thumb
 1133              		.thumb_func
 1135              	_ZN3M9N12scanMessagesEv:
 1136              		.fnstart
 1137              	.LFB2250:
  56:Core/Src/M9N_STM32.cpp **** 	std::pair<uint8_t *, uint16_t> s;	// {array, size}
 1138              		.loc 5 56 25
 1139              		.cfi_startproc
 1140              		@ args = 0, pretend = 0, frame = 248
 1141              		@ frame_needed = 1, uses_anonymous_args = 0
 1142 0000 2DE9F04F 		push	{r4, r5, r6, r7, r8, r9, r10, fp, lr}
 1143              		.save {r4, r5, r6, r7, r8, r9, r10, fp, lr}
 1144              		.cfi_def_cfa_offset 36
 1145              		.cfi_offset 4, -36
 1146              		.cfi_offset 5, -32
 1147              		.cfi_offset 6, -28
 1148              		.cfi_offset 7, -24
 1149              		.cfi_offset 8, -20
 1150              		.cfi_offset 9, -16
 1151              		.cfi_offset 10, -12
 1152              		.cfi_offset 11, -8
 1153              		.cfi_offset 14, -4
 1154              		.pad #252
 1155 0004 BFB0     		sub	sp, sp, #252
 1156              		.cfi_def_cfa_offset 288
 1157              		.setfp r7, sp, #0
 1158 0006 00AF     		add	r7, sp, #0
ARM GAS  /var/folders/bb/dhrb69655gd8t4nf464nxc_00000gn/T//ccJ8l31o.s 			page 37


 1159              		.cfi_def_cfa_register 7
 1160 0008 7865     		str	r0, [r7, #84]
  72:Core/Src/M9N_STM32.cpp **** 	uint16_t dollars[(lenD > 0) ? lenD : 1u];	// Will crash if zero-sized.
  73:Core/Src/M9N_STM32.cpp **** 	uint16_t lfcrs	[(lenL > 0) ? lenL : 1u];	// Will crash if zero-sized.
  74:Core/Src/M9N_STM32.cpp **** 	uint16_t mus	[(lenU > 0) ? lenU : 1u];	// Will crash if zero-sized.
  75:Core/Src/M9N_STM32.cpp **** 	std::pair<uint16_t*, uint16_t> d = {dollars	, 0u};	// {array, working index}
  76:Core/Src/M9N_STM32.cpp **** 	std::pair<uint16_t*, uint16_t> l = {lfcrs	, 0u};	// {array, working index}
  77:Core/Src/M9N_STM32.cpp **** 	std::pair<uint16_t*, uint16_t> u = {mus		, 0u};	// {array, working index}
  78:Core/Src/M9N_STM32.cpp **** 
  79:Core/Src/M9N_STM32.cpp **** 	for(uint16_t i = 0; i < s.second - 1; i++){
  80:Core/Src/M9N_STM32.cpp **** 		switch(s.first[i]){
  81:Core/Src/M9N_STM32.cpp **** 			case '$': {
  82:Core/Src/M9N_STM32.cpp **** 				d.first[d.second++] = i;
  83:Core/Src/M9N_STM32.cpp **** 				break;
  84:Core/Src/M9N_STM32.cpp **** 			}
  85:Core/Src/M9N_STM32.cpp **** 			case '\r':{
  86:Core/Src/M9N_STM32.cpp **** 				if(s.first[i+1] == '\n'){
  87:Core/Src/M9N_STM32.cpp **** 					l.first[l.second++] = i;
  88:Core/Src/M9N_STM32.cpp **** 				}
  89:Core/Src/M9N_STM32.cpp **** 				break;
  90:Core/Src/M9N_STM32.cpp **** 			} 
  91:Core/Src/M9N_STM32.cpp **** 			case 0xB5: {
  92:Core/Src/M9N_STM32.cpp **** 				if(s.first[i+1] == 0x62){
  93:Core/Src/M9N_STM32.cpp **** 					u.first[u.second++] = i;
  94:Core/Src/M9N_STM32.cpp **** 				}
  95:Core/Src/M9N_STM32.cpp **** 				break;
  96:Core/Src/M9N_STM32.cpp **** 			}
  97:Core/Src/M9N_STM32.cpp **** 			default: continue;
  98:Core/Src/M9N_STM32.cpp **** 		}
  99:Core/Src/M9N_STM32.cpp **** 	}
 100:Core/Src/M9N_STM32.cpp **** 
 101:Core/Src/M9N_STM32.cpp **** 	/* UBX Frame Identification */
 102:Core/Src/M9N_STM32.cpp **** 	// Drop any "b" indicies which are too close to the end of v such that the length specifier is n
 103:Core/Src/M9N_STM32.cpp **** 	for(auto i = u.second - 1; (u.second > 1u) && (i >= 0); i-- ){
 104:Core/Src/M9N_STM32.cpp **** 		if(u.first[i] > (s.second - 5)) lenU--;
 105:Core/Src/M9N_STM32.cpp **** 		else break;
 106:Core/Src/M9N_STM32.cpp **** 	}
 107:Core/Src/M9N_STM32.cpp **** 
 108:Core/Src/M9N_STM32.cpp **** 	// Construct pairs of UBX indicies and the length of that frame.
 109:Core/Src/M9N_STM32.cpp **** 	std::pair<uint16_t, uint16_t> ubxRanges[lenU];	// {Start, Length}
 110:Core/Src/M9N_STM32.cpp **** 
 111:Core/Src/M9N_STM32.cpp **** 	for(uint16_t i = 0u; i < lenU; i++){
 112:Core/Src/M9N_STM32.cpp **** 		// ubxRanges[i] = { u.first[i], UBX::getPayloadLen(std::vector<uint8_t>(s.first + u.first[i], s.f
 113:Core/Src/M9N_STM32.cpp **** 	}
 114:Core/Src/M9N_STM32.cpp **** 
 115:Core/Src/M9N_STM32.cpp **** 	// Filter pairs for which the entire frame is not within v.
 116:Core/Src/M9N_STM32.cpp **** 	// This will also happen to erase pairs with a corrupted and had a large length specifier.
 117:Core/Src/M9N_STM32.cpp **** 	for(size_t i = 0; (lenU > 0) && (i < lenU); i++) if(ubxRanges[i].first + ubxRanges[i].second > s.s
 118:Core/Src/M9N_STM32.cpp **** 
 119:Core/Src/M9N_STM32.cpp **** 
 120:Core/Src/M9N_STM32.cpp **** 	// TODO: Scan UBX Frames
 121:Core/Src/M9N_STM32.cpp **** 
 122:Core/Src/M9N_STM32.cpp **** 
 123:Core/Src/M9N_STM32.cpp **** 	/* NMEA Sentence Identification */
 124:Core/Src/M9N_STM32.cpp **** 	// Construct pairs of alternating dollar and lfcr characters.
 125:Core/Src/M9N_STM32.cpp **** 	// Filter non-alternating sequences of dollar and lfcr indecies.
 126:Core/Src/M9N_STM32.cpp **** 	size_t lenR = (d.second > l.second) ? d.second : l.second;
ARM GAS  /var/folders/bb/dhrb69655gd8t4nf464nxc_00000gn/T//ccJ8l31o.s 			page 38


 127:Core/Src/M9N_STM32.cpp **** 	std::pair<uint16_t, uint16_t> nmeaRanges[lenR]; // {begin, end}[]
 128:Core/Src/M9N_STM32.cpp **** 	lenD = d.second;
 129:Core/Src/M9N_STM32.cpp **** 	lenL = l.second;
 130:Core/Src/M9N_STM32.cpp **** 	d.second = l.second = 0u;
 131:Core/Src/M9N_STM32.cpp **** 	uint16_t k = 0u;
 132:Core/Src/M9N_STM32.cpp **** 	while( (d.second < lenD) && (l.second <lenL) ){
 133:Core/Src/M9N_STM32.cpp **** 		if(d.first[d.second] > l.first[l.second]){	// Discard LFCR index if no dollar index is less than 
 134:Core/Src/M9N_STM32.cpp **** 			l.second++;
 135:Core/Src/M9N_STM32.cpp **** 		}
 136:Core/Src/M9N_STM32.cpp **** 		else{	// Guaranteed that lfcr[j] > dollar[i]. lfcr[j] is asserted as a valid end index.
 137:Core/Src/M9N_STM32.cpp **** 			nmeaRanges[k++] = {d.first[d.second++], l.first[l.second++] + 2};
 138:Core/Src/M9N_STM32.cpp **** 
 139:Core/Src/M9N_STM32.cpp **** 			// Discard current dollar start index if there is a later dollar index that is also less than th
 140:Core/Src/M9N_STM32.cpp **** 			while((d.second < lenD) && (d.first[d.second] < nmeaRanges[k-1].second) ) {
 141:Core/Src/M9N_STM32.cpp **** 				nmeaRanges[k-1].first = d.first[d.second++];
 142:Core/Src/M9N_STM32.cpp **** 			}
 143:Core/Src/M9N_STM32.cpp **** 		}
 144:Core/Src/M9N_STM32.cpp **** 	}
 145:Core/Src/M9N_STM32.cpp **** 
 146:Core/Src/M9N_STM32.cpp **** 	/* Scan NMEA Frames */
 147:Core/Src/M9N_STM32.cpp **** 	for(uint16_t i = 0; i < k; i++){
 148:Core/Src/M9N_STM32.cpp **** 		interpretNmea(StaticString(s.first + nmeaRanges[i].first, s.first + nmeaRanges[i].second));
 149:Core/Src/M9N_STM32.cpp **** 		// __NOP();
 150:Core/Src/M9N_STM32.cpp **** 	}
 151:Core/Src/M9N_STM32.cpp **** 
 152:Core/Src/M9N_STM32.cpp **** 	/* Push remainder characters back to Rx */
 153:Core/Src/M9N_STM32.cpp **** 	auto lastUBX  = (lenU > 0) ? ubxRanges[lenU].first + ubxRanges[lenU].second : 0;
 154:Core/Src/M9N_STM32.cpp **** 	auto lastNmea = (k > 0) ? nmeaRanges[k-1].second + 2 : 0;
 155:Core/Src/M9N_STM32.cpp **** 	auto lastC = (lastUBX > lastNmea) ? lastUBX : lastNmea;
 156:Core/Src/M9N_STM32.cpp **** 
 157:Core/Src/M9N_STM32.cpp **** 	// If nothing was processed, or if all was processed, do nothing.
 158:Core/Src/M9N_STM32.cpp **** 	if( (lastC == 0) || (lastC = s.second) ) return;
 159:Core/Src/M9N_STM32.cpp **** 	// Add any characters that may have been received during the above processing.
 160:Core/Src/M9N_STM32.cpp **** 	else if(uart.rx.offloadBuff.tail > 0){	// More characters have been added during this function's c
 161:Core/Src/M9N_STM32.cpp **** 		if(s.second + uart.rx.offloadBuff.tail > uart.rx.offloadBuff.size ) return;	// Buffer will overfl
 162:Core/Src/M9N_STM32.cpp **** 		else{
 163:Core/Src/M9N_STM32.cpp **** 			uart.interruptsOff();
 164:Core/Src/M9N_STM32.cpp **** 			std::copy(uart.rx.offloadBuff.buff, uart.rx.offloadBuff.buff + uart.rx.offloadBuff.tail, s.first
 165:Core/Src/M9N_STM32.cpp **** 			s.second += uart.rx.offloadBuff.tail;
 166:Core/Src/M9N_STM32.cpp **** 			std::copy(s.first + lastC, s.first + s.second, uart.rx.offloadBuff.buff);
 167:Core/Src/M9N_STM32.cpp **** 			uart.rx.offloadBuff.tail = lastC;
 168:Core/Src/M9N_STM32.cpp **** 			uart.interruptsOn();
 169:Core/Src/M9N_STM32.cpp **** 		}
 170:Core/Src/M9N_STM32.cpp **** 	}
 171:Core/Src/M9N_STM32.cpp **** 	else{	// No characters were added. Copy directly into the buffer
 172:Core/Src/M9N_STM32.cpp **** 		uart.interruptsOff();
 173:Core/Src/M9N_STM32.cpp **** 		std::copy(s.first + lastC, s.first + s.second, uart.rx.offloadBuff.buff);
 174:Core/Src/M9N_STM32.cpp **** 		uart.rx.offloadBuff.tail = s.second;
 175:Core/Src/M9N_STM32.cpp **** 		uart.interruptsOn();
 176:Core/Src/M9N_STM32.cpp **** 	}
 1161              		.loc 5 176 2
 1162 000a 6B46     		mov	r3, sp
 1163 000c 3B65     		str	r3, [r7, #80]
  57:Core/Src/M9N_STM32.cpp **** 	s.second =  uart.rx.offloadBuff.tail;
 1164              		.loc 5 57 33
 1165 000e 0023     		movs	r3, #0
 1166 0010 3B67     		str	r3, [r7, #112]
ARM GAS  /var/folders/bb/dhrb69655gd8t4nf464nxc_00000gn/T//ccJ8l31o.s 			page 39


 1167 0012 0023     		movs	r3, #0
 1168 0014 A7F87430 		strh	r3, [r7, #116]	@ movhi
  58:Core/Src/M9N_STM32.cpp **** 	if(s.second == 0) return;	// Nothing to do
 1169              		.loc 5 58 34
 1170 0018 7B6D     		ldr	r3, [r7, #84]
 1171 001a B3F8203B 		ldrh	r3, [r3, #2848]	@ movhi
 1172 001e 9BB2     		uxth	r3, r3
  58:Core/Src/M9N_STM32.cpp **** 	if(s.second == 0) return;	// Nothing to do
 1173              		.loc 5 58 11
 1174 0020 A7F87430 		strh	r3, [r7, #116]	@ movhi
  59:Core/Src/M9N_STM32.cpp **** 	uint8_t buffCopy[s.second];
 1175              		.loc 5 59 7
 1176 0024 B7F87430 		ldrh	r3, [r7, #116]
  59:Core/Src/M9N_STM32.cpp **** 	uint8_t buffCopy[s.second];
 1177              		.loc 5 59 2
 1178 0028 002B     		cmp	r3, #0
 1179 002a 00F00E84 		beq	.L100
  60:Core/Src/M9N_STM32.cpp **** 	s.first = buffCopy;
 1180              		.loc 5 60 21
 1181 002e B7F87430 		ldrh	r3, [r7, #116]
  60:Core/Src/M9N_STM32.cpp **** 	s.first = buffCopy;
 1182              		.loc 5 60 27
 1183 0032 591E     		subs	r1, r3, #1
  60:Core/Src/M9N_STM32.cpp **** 	s.first = buffCopy;
 1184              		.loc 5 60 10
 1185 0034 C7F8DC10 		str	r1, [r7, #220]
 1186 0038 0B46     		mov	r3, r1
 1187 003a 0133     		adds	r3, r3, #1
 1188 003c 0022     		movs	r2, #0
 1189 003e 1C46     		mov	r4, r3
 1190 0040 1546     		mov	r5, r2
 1191 0042 4FF00002 		mov	r2, #0
 1192 0046 4FF00003 		mov	r3, #0
 1193 004a EB00     		lsls	r3, r5, #3
 1194 004c 43EA5473 		orr	r3, r3, r4, lsr #29
 1195 0050 E200     		lsls	r2, r4, #3
 1196 0052 0B46     		mov	r3, r1
 1197 0054 0133     		adds	r3, r3, #1
 1198 0056 0022     		movs	r2, #0
 1199 0058 9846     		mov	r8, r3
 1200 005a 9146     		mov	r9, r2
 1201 005c 4FF00002 		mov	r2, #0
 1202 0060 4FF00003 		mov	r3, #0
 1203 0064 4FEAC903 		lsl	r3, r9, #3
 1204 0068 43EA5873 		orr	r3, r3, r8, lsr #29
 1205 006c 4FEAC802 		lsl	r2, r8, #3
 1206 0070 0B46     		mov	r3, r1
 1207 0072 0133     		adds	r3, r3, #1
 1208 0074 0733     		adds	r3, r3, #7
 1209 0076 DB08     		lsrs	r3, r3, #3
 1210 0078 DB00     		lsls	r3, r3, #3
 1211 007a ADEB030D 		sub	sp, sp, r3
 1212 007e 6B46     		mov	r3, sp
 1213 0080 0033     		adds	r3, r3, #0
 1214 0082 C7F8D830 		str	r3, [r7, #216]
  61:Core/Src/M9N_STM32.cpp **** 
 1215              		.loc 5 61 10
ARM GAS  /var/folders/bb/dhrb69655gd8t4nf464nxc_00000gn/T//ccJ8l31o.s 			page 40


 1216 0086 D7F8D830 		ldr	r3, [r7, #216]
 1217 008a 3B67     		str	r3, [r7, #112]
  64:Core/Src/M9N_STM32.cpp **** 	std::copy(uart.rx.offloadBuff.buff, uart.rx.offloadBuff.buff + s.second, s.first);
 1218              		.loc 5 64 20
 1219 008c 7B6D     		ldr	r3, [r7, #84]
 1220 008e 0833     		adds	r3, r3, #8
 1221 0090 1846     		mov	r0, r3
 1222              	.LEHB0:
 1223 0092 FFF7FEFF 		bl	_ZNK4UART13interruptsOffEv
  65:Core/Src/M9N_STM32.cpp **** 	uart.rx.offloadBuff.tail = 0;
 1224              		.loc 5 65 32
 1225 0096 7B6D     		ldr	r3, [r7, #84]
 1226 0098 03F54C70 		add	r0, r3, #816
  65:Core/Src/M9N_STM32.cpp **** 	uart.rx.offloadBuff.tail = 0;
 1227              		.loc 5 65 58
 1228 009c 7B6D     		ldr	r3, [r7, #84]
 1229 009e 03F54C72 		add	r2, r3, #816
  65:Core/Src/M9N_STM32.cpp **** 	uart.rx.offloadBuff.tail = 0;
 1230              		.loc 5 65 67
 1231 00a2 B7F87430 		ldrh	r3, [r7, #116]
  65:Core/Src/M9N_STM32.cpp **** 	uart.rx.offloadBuff.tail = 0;
 1232              		.loc 5 65 11
 1233 00a6 D118     		adds	r1, r2, r3
 1234 00a8 3B6F     		ldr	r3, [r7, #112]
 1235 00aa 1A46     		mov	r2, r3
 1236 00ac FFF7FEFF 		bl	_ZSt4copyIPhS0_ET0_T_S2_S1_
  66:Core/Src/M9N_STM32.cpp **** 	uart.interruptsOn();
 1237              		.loc 5 66 27
 1238 00b0 7A6D     		ldr	r2, [r7, #84]
 1239 00b2 0023     		movs	r3, #0
 1240 00b4 A2F8203B 		strh	r3, [r2, #2848]	@ movhi
  67:Core/Src/M9N_STM32.cpp **** 
 1241              		.loc 5 67 19
 1242 00b8 7B6D     		ldr	r3, [r7, #84]
 1243 00ba 0833     		adds	r3, r3, #8
 1244 00bc 1846     		mov	r0, r3
 1245 00be FFF7FEFF 		bl	_ZNK4UART12interruptsOnEv
  69:Core/Src/M9N_STM32.cpp **** 	uint16_t lenL = std::count_if(s.first, s.first + s.second, [](uint8_t c) -> bool{ return c == '\r'
 1246              		.loc 5 69 31
 1247 00c2 386F     		ldr	r0, [r7, #112]
  69:Core/Src/M9N_STM32.cpp **** 	uint16_t lenL = std::count_if(s.first, s.first + s.second, [](uint8_t c) -> bool{ return c == '\r'
 1248              		.loc 5 69 43
 1249 00c4 3A6F     		ldr	r2, [r7, #112]
  69:Core/Src/M9N_STM32.cpp **** 	uint16_t lenL = std::count_if(s.first, s.first + s.second, [](uint8_t c) -> bool{ return c == '\r'
 1250              		.loc 5 69 53
 1251 00c6 B7F87430 		ldrh	r3, [r7, #116]
  69:Core/Src/M9N_STM32.cpp **** 	uint16_t lenL = std::count_if(s.first, s.first + s.second, [](uint8_t c) -> bool{ return c == '\r'
 1252              		.loc 5 69 31
 1253 00ca 1344     		add	r3, r3, r2
 1254 00cc 3246     		mov	r2, r6
 1255 00ce 1946     		mov	r1, r3
 1256 00d0 FFF7FEFF 		bl	_ZSt8count_ifIPhZN3M9N12scanMessagesEvEUlhE_ENSt15iterator_traitsIT_E15difference_typeES4_S4_T0
 1257 00d4 0346     		mov	r3, r0
  69:Core/Src/M9N_STM32.cpp **** 	uint16_t lenL = std::count_if(s.first, s.first + s.second, [](uint8_t c) -> bool{ return c == '\r'
 1258              		.loc 5 69 102
 1259 00d6 A7F8D630 		strh	r3, [r7, #214]	@ movhi
  70:Core/Src/M9N_STM32.cpp **** 	uint16_t lenU = std::count_if(s.first, s.first + s.second, [](uint8_t c) -> bool{ return c == 0xB5
ARM GAS  /var/folders/bb/dhrb69655gd8t4nf464nxc_00000gn/T//ccJ8l31o.s 			page 41


 1260              		.loc 5 70 31
 1261 00da 386F     		ldr	r0, [r7, #112]
  70:Core/Src/M9N_STM32.cpp **** 	uint16_t lenU = std::count_if(s.first, s.first + s.second, [](uint8_t c) -> bool{ return c == 0xB5
 1262              		.loc 5 70 43
 1263 00dc 3A6F     		ldr	r2, [r7, #112]
  70:Core/Src/M9N_STM32.cpp **** 	uint16_t lenU = std::count_if(s.first, s.first + s.second, [](uint8_t c) -> bool{ return c == 0xB5
 1264              		.loc 5 70 53
 1265 00de B7F87430 		ldrh	r3, [r7, #116]
  70:Core/Src/M9N_STM32.cpp **** 	uint16_t lenU = std::count_if(s.first, s.first + s.second, [](uint8_t c) -> bool{ return c == 0xB5
 1266              		.loc 5 70 31
 1267 00e2 1344     		add	r3, r3, r2
 1268 00e4 BA79     		ldrb	r2, [r7, #6]
 1269 00e6 1946     		mov	r1, r3
 1270 00e8 FFF7FEFF 		bl	_ZSt8count_ifIPhZN3M9N12scanMessagesEvEUlhE0_ENSt15iterator_traitsIT_E15difference_typeES4_S4_T
 1271 00ec 0346     		mov	r3, r0
  70:Core/Src/M9N_STM32.cpp **** 	uint16_t lenU = std::count_if(s.first, s.first + s.second, [](uint8_t c) -> bool{ return c == 0xB5
 1272              		.loc 5 70 103
 1273 00ee A7F8D430 		strh	r3, [r7, #212]	@ movhi
  71:Core/Src/M9N_STM32.cpp **** 	uint16_t dollars[(lenD > 0) ? lenD : 1u];	// Will crash if zero-sized.
 1274              		.loc 5 71 31
 1275 00f2 386F     		ldr	r0, [r7, #112]
  71:Core/Src/M9N_STM32.cpp **** 	uint16_t dollars[(lenD > 0) ? lenD : 1u];	// Will crash if zero-sized.
 1276              		.loc 5 71 43
 1277 00f4 3A6F     		ldr	r2, [r7, #112]
  71:Core/Src/M9N_STM32.cpp **** 	uint16_t dollars[(lenD > 0) ? lenD : 1u];	// Will crash if zero-sized.
 1278              		.loc 5 71 53
 1279 00f6 B7F87430 		ldrh	r3, [r7, #116]
  71:Core/Src/M9N_STM32.cpp **** 	uint16_t dollars[(lenD > 0) ? lenD : 1u];	// Will crash if zero-sized.
 1280              		.loc 5 71 31
 1281 00fa 1344     		add	r3, r3, r2
 1282 00fc FA79     		ldrb	r2, [r7, #7]
 1283 00fe 1946     		mov	r1, r3
 1284 0100 FFF7FEFF 		bl	_ZSt8count_ifIPhZN3M9N12scanMessagesEvEUlhE1_ENSt15iterator_traitsIT_E15difference_typeES4_S4_T
 1285              	.LEHE0:
 1286 0104 0346     		mov	r3, r0
  71:Core/Src/M9N_STM32.cpp **** 	uint16_t dollars[(lenD > 0) ? lenD : 1u];	// Will crash if zero-sized.
 1287              		.loc 5 71 103
 1288 0106 A7F8E030 		strh	r3, [r7, #224]	@ movhi
  72:Core/Src/M9N_STM32.cpp **** 	uint16_t lfcrs	[(lenL > 0) ? lenL : 1u];	// Will crash if zero-sized.
 1289              		.loc 5 72 41
 1290 010a B7F8D630 		ldrh	r3, [r7, #214]
 1291 010e 002B     		cmp	r3, #0
 1292 0110 03D0     		beq	.L48
  72:Core/Src/M9N_STM32.cpp **** 	uint16_t lfcrs	[(lenL > 0) ? lenL : 1u];	// Will crash if zero-sized.
 1293              		.loc 5 72 30 discriminator 1
 1294 0112 B7F8D630 		ldrh	r3, [r7, #214]
  72:Core/Src/M9N_STM32.cpp **** 	uint16_t lfcrs	[(lenL > 0) ? lenL : 1u];	// Will crash if zero-sized.
 1295              		.loc 5 72 41 discriminator 1
 1296 0116 591E     		subs	r1, r3, #1
 1297 0118 00E0     		b	.L49
 1298              	.L48:
  72:Core/Src/M9N_STM32.cpp **** 	uint16_t lfcrs	[(lenL > 0) ? lenL : 1u];	// Will crash if zero-sized.
 1299              		.loc 5 72 41 is_stmt 0 discriminator 2
 1300 011a 0021     		movs	r1, #0
 1301              	.L49:
  72:Core/Src/M9N_STM32.cpp **** 	uint16_t lfcrs	[(lenL > 0) ? lenL : 1u];	// Will crash if zero-sized.
 1302              		.loc 5 72 11 is_stmt 1 discriminator 4
ARM GAS  /var/folders/bb/dhrb69655gd8t4nf464nxc_00000gn/T//ccJ8l31o.s 			page 42


 1303 011c C7F8D010 		str	r1, [r7, #208]
 1304 0120 0B46     		mov	r3, r1
 1305 0122 0133     		adds	r3, r3, #1
 1306 0124 0022     		movs	r2, #0
 1307 0126 9A46     		mov	r10, r3
 1308 0128 9346     		mov	fp, r2
 1309 012a 4FF00002 		mov	r2, #0
 1310 012e 4FF00003 		mov	r3, #0
 1311 0132 4FEA0B13 		lsl	r3, fp, #4
 1312 0136 43EA1A73 		orr	r3, r3, r10, lsr #28
 1313 013a 4FEA0A12 		lsl	r2, r10, #4
 1314 013e 0B46     		mov	r3, r1
 1315 0140 0133     		adds	r3, r3, #1
 1316 0142 0022     		movs	r2, #0
 1317 0144 BB64     		str	r3, [r7, #72]
 1318 0146 FA64     		str	r2, [r7, #76]
 1319 0148 4FF00002 		mov	r2, #0
 1320 014c 4FF00003 		mov	r3, #0
 1321 0150 D7E91245 		ldrd	r4, [r7, #72]
 1322 0154 2846     		mov	r0, r5
 1323 0156 0301     		lsls	r3, r0, #4
 1324 0158 2046     		mov	r0, r4
 1325 015a 43EA1073 		orr	r3, r3, r0, lsr #28
 1326 015e 2046     		mov	r0, r4
 1327 0160 0201     		lsls	r2, r0, #4
 1328 0162 0B46     		mov	r3, r1
 1329 0164 0133     		adds	r3, r3, #1
 1330 0166 5B00     		lsls	r3, r3, #1
 1331 0168 0733     		adds	r3, r3, #7
 1332 016a DB08     		lsrs	r3, r3, #3
 1333 016c DB00     		lsls	r3, r3, #3
 1334 016e ADEB030D 		sub	sp, sp, r3
 1335 0172 6B46     		mov	r3, sp
 1336 0174 0133     		adds	r3, r3, #1
 1337 0176 5B08     		lsrs	r3, r3, #1
 1338 0178 5B00     		lsls	r3, r3, #1
 1339 017a C7F8CC30 		str	r3, [r7, #204]
  73:Core/Src/M9N_STM32.cpp **** 	uint16_t mus	[(lenU > 0) ? lenU : 1u];	// Will crash if zero-sized.
 1340              		.loc 5 73 40 discriminator 4
 1341 017e B7F8D430 		ldrh	r3, [r7, #212]
 1342 0182 002B     		cmp	r3, #0
 1343 0184 03D0     		beq	.L50
  73:Core/Src/M9N_STM32.cpp **** 	uint16_t mus	[(lenU > 0) ? lenU : 1u];	// Will crash if zero-sized.
 1344              		.loc 5 73 29 discriminator 1
 1345 0186 B7F8D430 		ldrh	r3, [r7, #212]
