ARM GAS  /var/folders/bb/dhrb69655gd8t4nf464nxc_00000gn/T//ccX9z21m.s 			page 1


   1              		.cpu cortex-m4
   2              		.arch armv7e-m
   3              		.fpu fpv4-sp-d16
   4              		.eabi_attribute 27, 1
   5              		.eabi_attribute 28, 1
   6              		.eabi_attribute 20, 1
   7              		.eabi_attribute 21, 1
   8              		.eabi_attribute 23, 3
   9              		.eabi_attribute 24, 1
  10              		.eabi_attribute 25, 1
  11              		.eabi_attribute 26, 1
  12              		.eabi_attribute 30, 6
  13              		.eabi_attribute 34, 1
  14              		.eabi_attribute 18, 4
  15              		.file	"M9N_Base.cpp"
  16              		.text
  17              	.Ltext0:
  18              		.cfi_sections	.debug_frame
  19              		.section	.rodata._ZStL19piecewise_construct,"a"
  20              		.align	2
  23              	_ZStL19piecewise_construct:
  24 0000 00       		.space	1
  25              		.section	.text._ZL20__gthread_key_deletei,"ax",%progbits
  26              		.align	1
  27              		.syntax unified
  28              		.thumb
  29              		.thumb_func
  31              	_ZL20__gthread_key_deletei:
  32              		.fnstart
  33              	.LFB653:
  34              		.file 1 "/Users/lawrencestanton/Library/Application Support/Code/User/globalStorage/bmd.stm32-for-
   1:/Users/lawrencestanton/Library/Application Support/Code/User/globalStorage/bmd.stm32-for-vscode/@xpack-dev-tools/arm-none-eabi-gcc/10.3.1-2.3.1/.content/arm-none-eabi/include/c++/10.3.1/arm-none-eabi/thumb/v7e-m+fp/hard/bits/gthr-default.h **** /* Threads compatibility routines for libgcc2 and libobjc.  */
   2:/Users/lawrencestanton/Library/Application Support/Code/User/globalStorage/bmd.stm32-for-vscode/@xpack-dev-tools/arm-none-eabi-gcc/10.3.1-2.3.1/.content/arm-none-eabi/include/c++/10.3.1/arm-none-eabi/thumb/v7e-m+fp/hard/bits/gthr-default.h **** /* Compile this one with gcc.  */
   3:/Users/lawrencestanton/Library/Application Support/Code/User/globalStorage/bmd.stm32-for-vscode/@xpack-dev-tools/arm-none-eabi-gcc/10.3.1-2.3.1/.content/arm-none-eabi/include/c++/10.3.1/arm-none-eabi/thumb/v7e-m+fp/hard/bits/gthr-default.h **** /* Copyright (C) 1997-2020 Free Software Foundation, Inc.
   4:/Users/lawrencestanton/Library/Application Support/Code/User/globalStorage/bmd.stm32-for-vscode/@xpack-dev-tools/arm-none-eabi-gcc/10.3.1-2.3.1/.content/arm-none-eabi/include/c++/10.3.1/arm-none-eabi/thumb/v7e-m+fp/hard/bits/gthr-default.h **** 
   5:/Users/lawrencestanton/Library/Application Support/Code/User/globalStorage/bmd.stm32-for-vscode/@xpack-dev-tools/arm-none-eabi-gcc/10.3.1-2.3.1/.content/arm-none-eabi/include/c++/10.3.1/arm-none-eabi/thumb/v7e-m+fp/hard/bits/gthr-default.h **** This file is part of GCC.
   6:/Users/lawrencestanton/Library/Application Support/Code/User/globalStorage/bmd.stm32-for-vscode/@xpack-dev-tools/arm-none-eabi-gcc/10.3.1-2.3.1/.content/arm-none-eabi/include/c++/10.3.1/arm-none-eabi/thumb/v7e-m+fp/hard/bits/gthr-default.h **** 
   7:/Users/lawrencestanton/Library/Application Support/Code/User/globalStorage/bmd.stm32-for-vscode/@xpack-dev-tools/arm-none-eabi-gcc/10.3.1-2.3.1/.content/arm-none-eabi/include/c++/10.3.1/arm-none-eabi/thumb/v7e-m+fp/hard/bits/gthr-default.h **** GCC is free software; you can redistribute it and/or modify it under
   8:/Users/lawrencestanton/Library/Application Support/Code/User/globalStorage/bmd.stm32-for-vscode/@xpack-dev-tools/arm-none-eabi-gcc/10.3.1-2.3.1/.content/arm-none-eabi/include/c++/10.3.1/arm-none-eabi/thumb/v7e-m+fp/hard/bits/gthr-default.h **** the terms of the GNU General Public License as published by the Free
   9:/Users/lawrencestanton/Library/Application Support/Code/User/globalStorage/bmd.stm32-for-vscode/@xpack-dev-tools/arm-none-eabi-gcc/10.3.1-2.3.1/.content/arm-none-eabi/include/c++/10.3.1/arm-none-eabi/thumb/v7e-m+fp/hard/bits/gthr-default.h **** Software Foundation; either version 3, or (at your option) any later
  10:/Users/lawrencestanton/Library/Application Support/Code/User/globalStorage/bmd.stm32-for-vscode/@xpack-dev-tools/arm-none-eabi-gcc/10.3.1-2.3.1/.content/arm-none-eabi/include/c++/10.3.1/arm-none-eabi/thumb/v7e-m+fp/hard/bits/gthr-default.h **** version.
  11:/Users/lawrencestanton/Library/Application Support/Code/User/globalStorage/bmd.stm32-for-vscode/@xpack-dev-tools/arm-none-eabi-gcc/10.3.1-2.3.1/.content/arm-none-eabi/include/c++/10.3.1/arm-none-eabi/thumb/v7e-m+fp/hard/bits/gthr-default.h **** 
  12:/Users/lawrencestanton/Library/Application Support/Code/User/globalStorage/bmd.stm32-for-vscode/@xpack-dev-tools/arm-none-eabi-gcc/10.3.1-2.3.1/.content/arm-none-eabi/include/c++/10.3.1/arm-none-eabi/thumb/v7e-m+fp/hard/bits/gthr-default.h **** GCC is distributed in the hope that it will be useful, but WITHOUT ANY
  13:/Users/lawrencestanton/Library/Application Support/Code/User/globalStorage/bmd.stm32-for-vscode/@xpack-dev-tools/arm-none-eabi-gcc/10.3.1-2.3.1/.content/arm-none-eabi/include/c++/10.3.1/arm-none-eabi/thumb/v7e-m+fp/hard/bits/gthr-default.h **** WARRANTY; without even the implied warranty of MERCHANTABILITY or
  14:/Users/lawrencestanton/Library/Application Support/Code/User/globalStorage/bmd.stm32-for-vscode/@xpack-dev-tools/arm-none-eabi-gcc/10.3.1-2.3.1/.content/arm-none-eabi/include/c++/10.3.1/arm-none-eabi/thumb/v7e-m+fp/hard/bits/gthr-default.h **** FITNESS FOR A PARTICULAR PURPOSE.  See the GNU General Public License
  15:/Users/lawrencestanton/Library/Application Support/Code/User/globalStorage/bmd.stm32-for-vscode/@xpack-dev-tools/arm-none-eabi-gcc/10.3.1-2.3.1/.content/arm-none-eabi/include/c++/10.3.1/arm-none-eabi/thumb/v7e-m+fp/hard/bits/gthr-default.h **** for more details.
  16:/Users/lawrencestanton/Library/Application Support/Code/User/globalStorage/bmd.stm32-for-vscode/@xpack-dev-tools/arm-none-eabi-gcc/10.3.1-2.3.1/.content/arm-none-eabi/include/c++/10.3.1/arm-none-eabi/thumb/v7e-m+fp/hard/bits/gthr-default.h **** 
  17:/Users/lawrencestanton/Library/Application Support/Code/User/globalStorage/bmd.stm32-for-vscode/@xpack-dev-tools/arm-none-eabi-gcc/10.3.1-2.3.1/.content/arm-none-eabi/include/c++/10.3.1/arm-none-eabi/thumb/v7e-m+fp/hard/bits/gthr-default.h **** Under Section 7 of GPL version 3, you are granted additional
  18:/Users/lawrencestanton/Library/Application Support/Code/User/globalStorage/bmd.stm32-for-vscode/@xpack-dev-tools/arm-none-eabi-gcc/10.3.1-2.3.1/.content/arm-none-eabi/include/c++/10.3.1/arm-none-eabi/thumb/v7e-m+fp/hard/bits/gthr-default.h **** permissions described in the GCC Runtime Library Exception, version
  19:/Users/lawrencestanton/Library/Application Support/Code/User/globalStorage/bmd.stm32-for-vscode/@xpack-dev-tools/arm-none-eabi-gcc/10.3.1-2.3.1/.content/arm-none-eabi/include/c++/10.3.1/arm-none-eabi/thumb/v7e-m+fp/hard/bits/gthr-default.h **** 3.1, as published by the Free Software Foundation.
  20:/Users/lawrencestanton/Library/Application Support/Code/User/globalStorage/bmd.stm32-for-vscode/@xpack-dev-tools/arm-none-eabi-gcc/10.3.1-2.3.1/.content/arm-none-eabi/include/c++/10.3.1/arm-none-eabi/thumb/v7e-m+fp/hard/bits/gthr-default.h **** 
  21:/Users/lawrencestanton/Library/Application Support/Code/User/globalStorage/bmd.stm32-for-vscode/@xpack-dev-tools/arm-none-eabi-gcc/10.3.1-2.3.1/.content/arm-none-eabi/include/c++/10.3.1/arm-none-eabi/thumb/v7e-m+fp/hard/bits/gthr-default.h **** You should have received a copy of the GNU General Public License and
  22:/Users/lawrencestanton/Library/Application Support/Code/User/globalStorage/bmd.stm32-for-vscode/@xpack-dev-tools/arm-none-eabi-gcc/10.3.1-2.3.1/.content/arm-none-eabi/include/c++/10.3.1/arm-none-eabi/thumb/v7e-m+fp/hard/bits/gthr-default.h **** a copy of the GCC Runtime Library Exception along with this program;
  23:/Users/lawrencestanton/Library/Application Support/Code/User/globalStorage/bmd.stm32-for-vscode/@xpack-dev-tools/arm-none-eabi-gcc/10.3.1-2.3.1/.content/arm-none-eabi/include/c++/10.3.1/arm-none-eabi/thumb/v7e-m+fp/hard/bits/gthr-default.h **** see the files COPYING3 and COPYING.RUNTIME respectively.  If not, see
  24:/Users/lawrencestanton/Library/Application Support/Code/User/globalStorage/bmd.stm32-for-vscode/@xpack-dev-tools/arm-none-eabi-gcc/10.3.1-2.3.1/.content/arm-none-eabi/include/c++/10.3.1/arm-none-eabi/thumb/v7e-m+fp/hard/bits/gthr-default.h **** <http://www.gnu.org/licenses/>.  */
  25:/Users/lawrencestanton/Library/Application Support/Code/User/globalStorage/bmd.stm32-for-vscode/@xpack-dev-tools/arm-none-eabi-gcc/10.3.1-2.3.1/.content/arm-none-eabi/include/c++/10.3.1/arm-none-eabi/thumb/v7e-m+fp/hard/bits/gthr-default.h **** 
  26:/Users/lawrencestanton/Library/Application Support/Code/User/globalStorage/bmd.stm32-for-vscode/@xpack-dev-tools/arm-none-eabi-gcc/10.3.1-2.3.1/.content/arm-none-eabi/include/c++/10.3.1/arm-none-eabi/thumb/v7e-m+fp/hard/bits/gthr-default.h **** #ifndef _GLIBCXX_GCC_GTHR_SINGLE_H
ARM GAS  /var/folders/bb/dhrb69655gd8t4nf464nxc_00000gn/T//ccX9z21m.s 			page 2


  27:/Users/lawrencestanton/Library/Application Support/Code/User/globalStorage/bmd.stm32-for-vscode/@xpack-dev-tools/arm-none-eabi-gcc/10.3.1-2.3.1/.content/arm-none-eabi/include/c++/10.3.1/arm-none-eabi/thumb/v7e-m+fp/hard/bits/gthr-default.h **** #define _GLIBCXX_GCC_GTHR_SINGLE_H
  28:/Users/lawrencestanton/Library/Application Support/Code/User/globalStorage/bmd.stm32-for-vscode/@xpack-dev-tools/arm-none-eabi-gcc/10.3.1-2.3.1/.content/arm-none-eabi/include/c++/10.3.1/arm-none-eabi/thumb/v7e-m+fp/hard/bits/gthr-default.h **** 
  29:/Users/lawrencestanton/Library/Application Support/Code/User/globalStorage/bmd.stm32-for-vscode/@xpack-dev-tools/arm-none-eabi-gcc/10.3.1-2.3.1/.content/arm-none-eabi/include/c++/10.3.1/arm-none-eabi/thumb/v7e-m+fp/hard/bits/gthr-default.h **** /* Just provide compatibility for mutex handling.  */
  30:/Users/lawrencestanton/Library/Application Support/Code/User/globalStorage/bmd.stm32-for-vscode/@xpack-dev-tools/arm-none-eabi-gcc/10.3.1-2.3.1/.content/arm-none-eabi/include/c++/10.3.1/arm-none-eabi/thumb/v7e-m+fp/hard/bits/gthr-default.h **** 
  31:/Users/lawrencestanton/Library/Application Support/Code/User/globalStorage/bmd.stm32-for-vscode/@xpack-dev-tools/arm-none-eabi-gcc/10.3.1-2.3.1/.content/arm-none-eabi/include/c++/10.3.1/arm-none-eabi/thumb/v7e-m+fp/hard/bits/gthr-default.h **** typedef int __gthread_key_t;
  32:/Users/lawrencestanton/Library/Application Support/Code/User/globalStorage/bmd.stm32-for-vscode/@xpack-dev-tools/arm-none-eabi-gcc/10.3.1-2.3.1/.content/arm-none-eabi/include/c++/10.3.1/arm-none-eabi/thumb/v7e-m+fp/hard/bits/gthr-default.h **** typedef int __gthread_once_t;
  33:/Users/lawrencestanton/Library/Application Support/Code/User/globalStorage/bmd.stm32-for-vscode/@xpack-dev-tools/arm-none-eabi-gcc/10.3.1-2.3.1/.content/arm-none-eabi/include/c++/10.3.1/arm-none-eabi/thumb/v7e-m+fp/hard/bits/gthr-default.h **** typedef int __gthread_mutex_t;
  34:/Users/lawrencestanton/Library/Application Support/Code/User/globalStorage/bmd.stm32-for-vscode/@xpack-dev-tools/arm-none-eabi-gcc/10.3.1-2.3.1/.content/arm-none-eabi/include/c++/10.3.1/arm-none-eabi/thumb/v7e-m+fp/hard/bits/gthr-default.h **** typedef int __gthread_recursive_mutex_t;
  35:/Users/lawrencestanton/Library/Application Support/Code/User/globalStorage/bmd.stm32-for-vscode/@xpack-dev-tools/arm-none-eabi-gcc/10.3.1-2.3.1/.content/arm-none-eabi/include/c++/10.3.1/arm-none-eabi/thumb/v7e-m+fp/hard/bits/gthr-default.h **** 
  36:/Users/lawrencestanton/Library/Application Support/Code/User/globalStorage/bmd.stm32-for-vscode/@xpack-dev-tools/arm-none-eabi-gcc/10.3.1-2.3.1/.content/arm-none-eabi/include/c++/10.3.1/arm-none-eabi/thumb/v7e-m+fp/hard/bits/gthr-default.h **** #define __GTHREAD_ONCE_INIT 0
  37:/Users/lawrencestanton/Library/Application Support/Code/User/globalStorage/bmd.stm32-for-vscode/@xpack-dev-tools/arm-none-eabi-gcc/10.3.1-2.3.1/.content/arm-none-eabi/include/c++/10.3.1/arm-none-eabi/thumb/v7e-m+fp/hard/bits/gthr-default.h **** #define __GTHREAD_MUTEX_INIT 0
  38:/Users/lawrencestanton/Library/Application Support/Code/User/globalStorage/bmd.stm32-for-vscode/@xpack-dev-tools/arm-none-eabi-gcc/10.3.1-2.3.1/.content/arm-none-eabi/include/c++/10.3.1/arm-none-eabi/thumb/v7e-m+fp/hard/bits/gthr-default.h **** #define __GTHREAD_MUTEX_INIT_FUNCTION(mx) do {} while (0)
  39:/Users/lawrencestanton/Library/Application Support/Code/User/globalStorage/bmd.stm32-for-vscode/@xpack-dev-tools/arm-none-eabi-gcc/10.3.1-2.3.1/.content/arm-none-eabi/include/c++/10.3.1/arm-none-eabi/thumb/v7e-m+fp/hard/bits/gthr-default.h **** #define __GTHREAD_RECURSIVE_MUTEX_INIT 0
  40:/Users/lawrencestanton/Library/Application Support/Code/User/globalStorage/bmd.stm32-for-vscode/@xpack-dev-tools/arm-none-eabi-gcc/10.3.1-2.3.1/.content/arm-none-eabi/include/c++/10.3.1/arm-none-eabi/thumb/v7e-m+fp/hard/bits/gthr-default.h **** 
  41:/Users/lawrencestanton/Library/Application Support/Code/User/globalStorage/bmd.stm32-for-vscode/@xpack-dev-tools/arm-none-eabi-gcc/10.3.1-2.3.1/.content/arm-none-eabi/include/c++/10.3.1/arm-none-eabi/thumb/v7e-m+fp/hard/bits/gthr-default.h **** #define _GLIBCXX_UNUSED __attribute__((__unused__))
  42:/Users/lawrencestanton/Library/Application Support/Code/User/globalStorage/bmd.stm32-for-vscode/@xpack-dev-tools/arm-none-eabi-gcc/10.3.1-2.3.1/.content/arm-none-eabi/include/c++/10.3.1/arm-none-eabi/thumb/v7e-m+fp/hard/bits/gthr-default.h **** 
  43:/Users/lawrencestanton/Library/Application Support/Code/User/globalStorage/bmd.stm32-for-vscode/@xpack-dev-tools/arm-none-eabi-gcc/10.3.1-2.3.1/.content/arm-none-eabi/include/c++/10.3.1/arm-none-eabi/thumb/v7e-m+fp/hard/bits/gthr-default.h **** #ifdef _LIBOBJC
  44:/Users/lawrencestanton/Library/Application Support/Code/User/globalStorage/bmd.stm32-for-vscode/@xpack-dev-tools/arm-none-eabi-gcc/10.3.1-2.3.1/.content/arm-none-eabi/include/c++/10.3.1/arm-none-eabi/thumb/v7e-m+fp/hard/bits/gthr-default.h **** 
  45:/Users/lawrencestanton/Library/Application Support/Code/User/globalStorage/bmd.stm32-for-vscode/@xpack-dev-tools/arm-none-eabi-gcc/10.3.1-2.3.1/.content/arm-none-eabi/include/c++/10.3.1/arm-none-eabi/thumb/v7e-m+fp/hard/bits/gthr-default.h **** /* Thread local storage for a single thread */
  46:/Users/lawrencestanton/Library/Application Support/Code/User/globalStorage/bmd.stm32-for-vscode/@xpack-dev-tools/arm-none-eabi-gcc/10.3.1-2.3.1/.content/arm-none-eabi/include/c++/10.3.1/arm-none-eabi/thumb/v7e-m+fp/hard/bits/gthr-default.h **** static void *thread_local_storage = NULL;
  47:/Users/lawrencestanton/Library/Application Support/Code/User/globalStorage/bmd.stm32-for-vscode/@xpack-dev-tools/arm-none-eabi-gcc/10.3.1-2.3.1/.content/arm-none-eabi/include/c++/10.3.1/arm-none-eabi/thumb/v7e-m+fp/hard/bits/gthr-default.h **** 
  48:/Users/lawrencestanton/Library/Application Support/Code/User/globalStorage/bmd.stm32-for-vscode/@xpack-dev-tools/arm-none-eabi-gcc/10.3.1-2.3.1/.content/arm-none-eabi/include/c++/10.3.1/arm-none-eabi/thumb/v7e-m+fp/hard/bits/gthr-default.h **** /* Backend initialization functions */
  49:/Users/lawrencestanton/Library/Application Support/Code/User/globalStorage/bmd.stm32-for-vscode/@xpack-dev-tools/arm-none-eabi-gcc/10.3.1-2.3.1/.content/arm-none-eabi/include/c++/10.3.1/arm-none-eabi/thumb/v7e-m+fp/hard/bits/gthr-default.h **** 
  50:/Users/lawrencestanton/Library/Application Support/Code/User/globalStorage/bmd.stm32-for-vscode/@xpack-dev-tools/arm-none-eabi-gcc/10.3.1-2.3.1/.content/arm-none-eabi/include/c++/10.3.1/arm-none-eabi/thumb/v7e-m+fp/hard/bits/gthr-default.h **** /* Initialize the threads subsystem.  */
  51:/Users/lawrencestanton/Library/Application Support/Code/User/globalStorage/bmd.stm32-for-vscode/@xpack-dev-tools/arm-none-eabi-gcc/10.3.1-2.3.1/.content/arm-none-eabi/include/c++/10.3.1/arm-none-eabi/thumb/v7e-m+fp/hard/bits/gthr-default.h **** static inline int
  52:/Users/lawrencestanton/Library/Application Support/Code/User/globalStorage/bmd.stm32-for-vscode/@xpack-dev-tools/arm-none-eabi-gcc/10.3.1-2.3.1/.content/arm-none-eabi/include/c++/10.3.1/arm-none-eabi/thumb/v7e-m+fp/hard/bits/gthr-default.h **** __gthread_objc_init_thread_system (void)
  53:/Users/lawrencestanton/Library/Application Support/Code/User/globalStorage/bmd.stm32-for-vscode/@xpack-dev-tools/arm-none-eabi-gcc/10.3.1-2.3.1/.content/arm-none-eabi/include/c++/10.3.1/arm-none-eabi/thumb/v7e-m+fp/hard/bits/gthr-default.h **** {
  54:/Users/lawrencestanton/Library/Application Support/Code/User/globalStorage/bmd.stm32-for-vscode/@xpack-dev-tools/arm-none-eabi-gcc/10.3.1-2.3.1/.content/arm-none-eabi/include/c++/10.3.1/arm-none-eabi/thumb/v7e-m+fp/hard/bits/gthr-default.h ****   /* No thread support available */
  55:/Users/lawrencestanton/Library/Application Support/Code/User/globalStorage/bmd.stm32-for-vscode/@xpack-dev-tools/arm-none-eabi-gcc/10.3.1-2.3.1/.content/arm-none-eabi/include/c++/10.3.1/arm-none-eabi/thumb/v7e-m+fp/hard/bits/gthr-default.h ****   return -1;
  56:/Users/lawrencestanton/Library/Application Support/Code/User/globalStorage/bmd.stm32-for-vscode/@xpack-dev-tools/arm-none-eabi-gcc/10.3.1-2.3.1/.content/arm-none-eabi/include/c++/10.3.1/arm-none-eabi/thumb/v7e-m+fp/hard/bits/gthr-default.h **** }
  57:/Users/lawrencestanton/Library/Application Support/Code/User/globalStorage/bmd.stm32-for-vscode/@xpack-dev-tools/arm-none-eabi-gcc/10.3.1-2.3.1/.content/arm-none-eabi/include/c++/10.3.1/arm-none-eabi/thumb/v7e-m+fp/hard/bits/gthr-default.h **** 
  58:/Users/lawrencestanton/Library/Application Support/Code/User/globalStorage/bmd.stm32-for-vscode/@xpack-dev-tools/arm-none-eabi-gcc/10.3.1-2.3.1/.content/arm-none-eabi/include/c++/10.3.1/arm-none-eabi/thumb/v7e-m+fp/hard/bits/gthr-default.h **** /* Close the threads subsystem.  */
  59:/Users/lawrencestanton/Library/Application Support/Code/User/globalStorage/bmd.stm32-for-vscode/@xpack-dev-tools/arm-none-eabi-gcc/10.3.1-2.3.1/.content/arm-none-eabi/include/c++/10.3.1/arm-none-eabi/thumb/v7e-m+fp/hard/bits/gthr-default.h **** static inline int
  60:/Users/lawrencestanton/Library/Application Support/Code/User/globalStorage/bmd.stm32-for-vscode/@xpack-dev-tools/arm-none-eabi-gcc/10.3.1-2.3.1/.content/arm-none-eabi/include/c++/10.3.1/arm-none-eabi/thumb/v7e-m+fp/hard/bits/gthr-default.h **** __gthread_objc_close_thread_system (void)
  61:/Users/lawrencestanton/Library/Application Support/Code/User/globalStorage/bmd.stm32-for-vscode/@xpack-dev-tools/arm-none-eabi-gcc/10.3.1-2.3.1/.content/arm-none-eabi/include/c++/10.3.1/arm-none-eabi/thumb/v7e-m+fp/hard/bits/gthr-default.h **** {
  62:/Users/lawrencestanton/Library/Application Support/Code/User/globalStorage/bmd.stm32-for-vscode/@xpack-dev-tools/arm-none-eabi-gcc/10.3.1-2.3.1/.content/arm-none-eabi/include/c++/10.3.1/arm-none-eabi/thumb/v7e-m+fp/hard/bits/gthr-default.h ****   /* No thread support available */
  63:/Users/lawrencestanton/Library/Application Support/Code/User/globalStorage/bmd.stm32-for-vscode/@xpack-dev-tools/arm-none-eabi-gcc/10.3.1-2.3.1/.content/arm-none-eabi/include/c++/10.3.1/arm-none-eabi/thumb/v7e-m+fp/hard/bits/gthr-default.h ****   return -1;
  64:/Users/lawrencestanton/Library/Application Support/Code/User/globalStorage/bmd.stm32-for-vscode/@xpack-dev-tools/arm-none-eabi-gcc/10.3.1-2.3.1/.content/arm-none-eabi/include/c++/10.3.1/arm-none-eabi/thumb/v7e-m+fp/hard/bits/gthr-default.h **** }
  65:/Users/lawrencestanton/Library/Application Support/Code/User/globalStorage/bmd.stm32-for-vscode/@xpack-dev-tools/arm-none-eabi-gcc/10.3.1-2.3.1/.content/arm-none-eabi/include/c++/10.3.1/arm-none-eabi/thumb/v7e-m+fp/hard/bits/gthr-default.h **** 
  66:/Users/lawrencestanton/Library/Application Support/Code/User/globalStorage/bmd.stm32-for-vscode/@xpack-dev-tools/arm-none-eabi-gcc/10.3.1-2.3.1/.content/arm-none-eabi/include/c++/10.3.1/arm-none-eabi/thumb/v7e-m+fp/hard/bits/gthr-default.h **** /* Backend thread functions */
  67:/Users/lawrencestanton/Library/Application Support/Code/User/globalStorage/bmd.stm32-for-vscode/@xpack-dev-tools/arm-none-eabi-gcc/10.3.1-2.3.1/.content/arm-none-eabi/include/c++/10.3.1/arm-none-eabi/thumb/v7e-m+fp/hard/bits/gthr-default.h **** 
  68:/Users/lawrencestanton/Library/Application Support/Code/User/globalStorage/bmd.stm32-for-vscode/@xpack-dev-tools/arm-none-eabi-gcc/10.3.1-2.3.1/.content/arm-none-eabi/include/c++/10.3.1/arm-none-eabi/thumb/v7e-m+fp/hard/bits/gthr-default.h **** /* Create a new thread of execution.  */
  69:/Users/lawrencestanton/Library/Application Support/Code/User/globalStorage/bmd.stm32-for-vscode/@xpack-dev-tools/arm-none-eabi-gcc/10.3.1-2.3.1/.content/arm-none-eabi/include/c++/10.3.1/arm-none-eabi/thumb/v7e-m+fp/hard/bits/gthr-default.h **** static inline objc_thread_t
  70:/Users/lawrencestanton/Library/Application Support/Code/User/globalStorage/bmd.stm32-for-vscode/@xpack-dev-tools/arm-none-eabi-gcc/10.3.1-2.3.1/.content/arm-none-eabi/include/c++/10.3.1/arm-none-eabi/thumb/v7e-m+fp/hard/bits/gthr-default.h **** __gthread_objc_thread_detach (void (* func)(void *), void * arg _GLIBCXX_UNUSED)
  71:/Users/lawrencestanton/Library/Application Support/Code/User/globalStorage/bmd.stm32-for-vscode/@xpack-dev-tools/arm-none-eabi-gcc/10.3.1-2.3.1/.content/arm-none-eabi/include/c++/10.3.1/arm-none-eabi/thumb/v7e-m+fp/hard/bits/gthr-default.h **** {
  72:/Users/lawrencestanton/Library/Application Support/Code/User/globalStorage/bmd.stm32-for-vscode/@xpack-dev-tools/arm-none-eabi-gcc/10.3.1-2.3.1/.content/arm-none-eabi/include/c++/10.3.1/arm-none-eabi/thumb/v7e-m+fp/hard/bits/gthr-default.h ****   /* No thread support available */
  73:/Users/lawrencestanton/Library/Application Support/Code/User/globalStorage/bmd.stm32-for-vscode/@xpack-dev-tools/arm-none-eabi-gcc/10.3.1-2.3.1/.content/arm-none-eabi/include/c++/10.3.1/arm-none-eabi/thumb/v7e-m+fp/hard/bits/gthr-default.h ****   return NULL;
  74:/Users/lawrencestanton/Library/Application Support/Code/User/globalStorage/bmd.stm32-for-vscode/@xpack-dev-tools/arm-none-eabi-gcc/10.3.1-2.3.1/.content/arm-none-eabi/include/c++/10.3.1/arm-none-eabi/thumb/v7e-m+fp/hard/bits/gthr-default.h **** }
  75:/Users/lawrencestanton/Library/Application Support/Code/User/globalStorage/bmd.stm32-for-vscode/@xpack-dev-tools/arm-none-eabi-gcc/10.3.1-2.3.1/.content/arm-none-eabi/include/c++/10.3.1/arm-none-eabi/thumb/v7e-m+fp/hard/bits/gthr-default.h **** 
  76:/Users/lawrencestanton/Library/Application Support/Code/User/globalStorage/bmd.stm32-for-vscode/@xpack-dev-tools/arm-none-eabi-gcc/10.3.1-2.3.1/.content/arm-none-eabi/include/c++/10.3.1/arm-none-eabi/thumb/v7e-m+fp/hard/bits/gthr-default.h **** /* Set the current thread's priority.  */
  77:/Users/lawrencestanton/Library/Application Support/Code/User/globalStorage/bmd.stm32-for-vscode/@xpack-dev-tools/arm-none-eabi-gcc/10.3.1-2.3.1/.content/arm-none-eabi/include/c++/10.3.1/arm-none-eabi/thumb/v7e-m+fp/hard/bits/gthr-default.h **** static inline int
  78:/Users/lawrencestanton/Library/Application Support/Code/User/globalStorage/bmd.stm32-for-vscode/@xpack-dev-tools/arm-none-eabi-gcc/10.3.1-2.3.1/.content/arm-none-eabi/include/c++/10.3.1/arm-none-eabi/thumb/v7e-m+fp/hard/bits/gthr-default.h **** __gthread_objc_thread_set_priority (int priority _GLIBCXX_UNUSED)
  79:/Users/lawrencestanton/Library/Application Support/Code/User/globalStorage/bmd.stm32-for-vscode/@xpack-dev-tools/arm-none-eabi-gcc/10.3.1-2.3.1/.content/arm-none-eabi/include/c++/10.3.1/arm-none-eabi/thumb/v7e-m+fp/hard/bits/gthr-default.h **** {
  80:/Users/lawrencestanton/Library/Application Support/Code/User/globalStorage/bmd.stm32-for-vscode/@xpack-dev-tools/arm-none-eabi-gcc/10.3.1-2.3.1/.content/arm-none-eabi/include/c++/10.3.1/arm-none-eabi/thumb/v7e-m+fp/hard/bits/gthr-default.h ****   /* No thread support available */
  81:/Users/lawrencestanton/Library/Application Support/Code/User/globalStorage/bmd.stm32-for-vscode/@xpack-dev-tools/arm-none-eabi-gcc/10.3.1-2.3.1/.content/arm-none-eabi/include/c++/10.3.1/arm-none-eabi/thumb/v7e-m+fp/hard/bits/gthr-default.h ****   return -1;
  82:/Users/lawrencestanton/Library/Application Support/Code/User/globalStorage/bmd.stm32-for-vscode/@xpack-dev-tools/arm-none-eabi-gcc/10.3.1-2.3.1/.content/arm-none-eabi/include/c++/10.3.1/arm-none-eabi/thumb/v7e-m+fp/hard/bits/gthr-default.h **** }
  83:/Users/lawrencestanton/Library/Application Support/Code/User/globalStorage/bmd.stm32-for-vscode/@xpack-dev-tools/arm-none-eabi-gcc/10.3.1-2.3.1/.content/arm-none-eabi/include/c++/10.3.1/arm-none-eabi/thumb/v7e-m+fp/hard/bits/gthr-default.h **** 
ARM GAS  /var/folders/bb/dhrb69655gd8t4nf464nxc_00000gn/T//ccX9z21m.s 			page 3


  84:/Users/lawrencestanton/Library/Application Support/Code/User/globalStorage/bmd.stm32-for-vscode/@xpack-dev-tools/arm-none-eabi-gcc/10.3.1-2.3.1/.content/arm-none-eabi/include/c++/10.3.1/arm-none-eabi/thumb/v7e-m+fp/hard/bits/gthr-default.h **** /* Return the current thread's priority.  */
  85:/Users/lawrencestanton/Library/Application Support/Code/User/globalStorage/bmd.stm32-for-vscode/@xpack-dev-tools/arm-none-eabi-gcc/10.3.1-2.3.1/.content/arm-none-eabi/include/c++/10.3.1/arm-none-eabi/thumb/v7e-m+fp/hard/bits/gthr-default.h **** static inline int
  86:/Users/lawrencestanton/Library/Application Support/Code/User/globalStorage/bmd.stm32-for-vscode/@xpack-dev-tools/arm-none-eabi-gcc/10.3.1-2.3.1/.content/arm-none-eabi/include/c++/10.3.1/arm-none-eabi/thumb/v7e-m+fp/hard/bits/gthr-default.h **** __gthread_objc_thread_get_priority (void)
  87:/Users/lawrencestanton/Library/Application Support/Code/User/globalStorage/bmd.stm32-for-vscode/@xpack-dev-tools/arm-none-eabi-gcc/10.3.1-2.3.1/.content/arm-none-eabi/include/c++/10.3.1/arm-none-eabi/thumb/v7e-m+fp/hard/bits/gthr-default.h **** {
  88:/Users/lawrencestanton/Library/Application Support/Code/User/globalStorage/bmd.stm32-for-vscode/@xpack-dev-tools/arm-none-eabi-gcc/10.3.1-2.3.1/.content/arm-none-eabi/include/c++/10.3.1/arm-none-eabi/thumb/v7e-m+fp/hard/bits/gthr-default.h ****   return OBJC_THREAD_INTERACTIVE_PRIORITY;
  89:/Users/lawrencestanton/Library/Application Support/Code/User/globalStorage/bmd.stm32-for-vscode/@xpack-dev-tools/arm-none-eabi-gcc/10.3.1-2.3.1/.content/arm-none-eabi/include/c++/10.3.1/arm-none-eabi/thumb/v7e-m+fp/hard/bits/gthr-default.h **** }
  90:/Users/lawrencestanton/Library/Application Support/Code/User/globalStorage/bmd.stm32-for-vscode/@xpack-dev-tools/arm-none-eabi-gcc/10.3.1-2.3.1/.content/arm-none-eabi/include/c++/10.3.1/arm-none-eabi/thumb/v7e-m+fp/hard/bits/gthr-default.h **** 
  91:/Users/lawrencestanton/Library/Application Support/Code/User/globalStorage/bmd.stm32-for-vscode/@xpack-dev-tools/arm-none-eabi-gcc/10.3.1-2.3.1/.content/arm-none-eabi/include/c++/10.3.1/arm-none-eabi/thumb/v7e-m+fp/hard/bits/gthr-default.h **** /* Yield our process time to another thread.  */
  92:/Users/lawrencestanton/Library/Application Support/Code/User/globalStorage/bmd.stm32-for-vscode/@xpack-dev-tools/arm-none-eabi-gcc/10.3.1-2.3.1/.content/arm-none-eabi/include/c++/10.3.1/arm-none-eabi/thumb/v7e-m+fp/hard/bits/gthr-default.h **** static inline void
  93:/Users/lawrencestanton/Library/Application Support/Code/User/globalStorage/bmd.stm32-for-vscode/@xpack-dev-tools/arm-none-eabi-gcc/10.3.1-2.3.1/.content/arm-none-eabi/include/c++/10.3.1/arm-none-eabi/thumb/v7e-m+fp/hard/bits/gthr-default.h **** __gthread_objc_thread_yield (void)
  94:/Users/lawrencestanton/Library/Application Support/Code/User/globalStorage/bmd.stm32-for-vscode/@xpack-dev-tools/arm-none-eabi-gcc/10.3.1-2.3.1/.content/arm-none-eabi/include/c++/10.3.1/arm-none-eabi/thumb/v7e-m+fp/hard/bits/gthr-default.h **** {
  95:/Users/lawrencestanton/Library/Application Support/Code/User/globalStorage/bmd.stm32-for-vscode/@xpack-dev-tools/arm-none-eabi-gcc/10.3.1-2.3.1/.content/arm-none-eabi/include/c++/10.3.1/arm-none-eabi/thumb/v7e-m+fp/hard/bits/gthr-default.h ****   return;
  96:/Users/lawrencestanton/Library/Application Support/Code/User/globalStorage/bmd.stm32-for-vscode/@xpack-dev-tools/arm-none-eabi-gcc/10.3.1-2.3.1/.content/arm-none-eabi/include/c++/10.3.1/arm-none-eabi/thumb/v7e-m+fp/hard/bits/gthr-default.h **** }
  97:/Users/lawrencestanton/Library/Application Support/Code/User/globalStorage/bmd.stm32-for-vscode/@xpack-dev-tools/arm-none-eabi-gcc/10.3.1-2.3.1/.content/arm-none-eabi/include/c++/10.3.1/arm-none-eabi/thumb/v7e-m+fp/hard/bits/gthr-default.h **** 
  98:/Users/lawrencestanton/Library/Application Support/Code/User/globalStorage/bmd.stm32-for-vscode/@xpack-dev-tools/arm-none-eabi-gcc/10.3.1-2.3.1/.content/arm-none-eabi/include/c++/10.3.1/arm-none-eabi/thumb/v7e-m+fp/hard/bits/gthr-default.h **** /* Terminate the current thread.  */
  99:/Users/lawrencestanton/Library/Application Support/Code/User/globalStorage/bmd.stm32-for-vscode/@xpack-dev-tools/arm-none-eabi-gcc/10.3.1-2.3.1/.content/arm-none-eabi/include/c++/10.3.1/arm-none-eabi/thumb/v7e-m+fp/hard/bits/gthr-default.h **** static inline int
 100:/Users/lawrencestanton/Library/Application Support/Code/User/globalStorage/bmd.stm32-for-vscode/@xpack-dev-tools/arm-none-eabi-gcc/10.3.1-2.3.1/.content/arm-none-eabi/include/c++/10.3.1/arm-none-eabi/thumb/v7e-m+fp/hard/bits/gthr-default.h **** __gthread_objc_thread_exit (void)
 101:/Users/lawrencestanton/Library/Application Support/Code/User/globalStorage/bmd.stm32-for-vscode/@xpack-dev-tools/arm-none-eabi-gcc/10.3.1-2.3.1/.content/arm-none-eabi/include/c++/10.3.1/arm-none-eabi/thumb/v7e-m+fp/hard/bits/gthr-default.h **** {
 102:/Users/lawrencestanton/Library/Application Support/Code/User/globalStorage/bmd.stm32-for-vscode/@xpack-dev-tools/arm-none-eabi-gcc/10.3.1-2.3.1/.content/arm-none-eabi/include/c++/10.3.1/arm-none-eabi/thumb/v7e-m+fp/hard/bits/gthr-default.h ****   /* No thread support available */
 103:/Users/lawrencestanton/Library/Application Support/Code/User/globalStorage/bmd.stm32-for-vscode/@xpack-dev-tools/arm-none-eabi-gcc/10.3.1-2.3.1/.content/arm-none-eabi/include/c++/10.3.1/arm-none-eabi/thumb/v7e-m+fp/hard/bits/gthr-default.h ****   /* Should we really exit the program */
 104:/Users/lawrencestanton/Library/Application Support/Code/User/globalStorage/bmd.stm32-for-vscode/@xpack-dev-tools/arm-none-eabi-gcc/10.3.1-2.3.1/.content/arm-none-eabi/include/c++/10.3.1/arm-none-eabi/thumb/v7e-m+fp/hard/bits/gthr-default.h ****   /* exit (&__objc_thread_exit_status); */
 105:/Users/lawrencestanton/Library/Application Support/Code/User/globalStorage/bmd.stm32-for-vscode/@xpack-dev-tools/arm-none-eabi-gcc/10.3.1-2.3.1/.content/arm-none-eabi/include/c++/10.3.1/arm-none-eabi/thumb/v7e-m+fp/hard/bits/gthr-default.h ****   return -1;
 106:/Users/lawrencestanton/Library/Application Support/Code/User/globalStorage/bmd.stm32-for-vscode/@xpack-dev-tools/arm-none-eabi-gcc/10.3.1-2.3.1/.content/arm-none-eabi/include/c++/10.3.1/arm-none-eabi/thumb/v7e-m+fp/hard/bits/gthr-default.h **** }
 107:/Users/lawrencestanton/Library/Application Support/Code/User/globalStorage/bmd.stm32-for-vscode/@xpack-dev-tools/arm-none-eabi-gcc/10.3.1-2.3.1/.content/arm-none-eabi/include/c++/10.3.1/arm-none-eabi/thumb/v7e-m+fp/hard/bits/gthr-default.h **** 
 108:/Users/lawrencestanton/Library/Application Support/Code/User/globalStorage/bmd.stm32-for-vscode/@xpack-dev-tools/arm-none-eabi-gcc/10.3.1-2.3.1/.content/arm-none-eabi/include/c++/10.3.1/arm-none-eabi/thumb/v7e-m+fp/hard/bits/gthr-default.h **** /* Returns an integer value which uniquely describes a thread.  */
 109:/Users/lawrencestanton/Library/Application Support/Code/User/globalStorage/bmd.stm32-for-vscode/@xpack-dev-tools/arm-none-eabi-gcc/10.3.1-2.3.1/.content/arm-none-eabi/include/c++/10.3.1/arm-none-eabi/thumb/v7e-m+fp/hard/bits/gthr-default.h **** static inline objc_thread_t
 110:/Users/lawrencestanton/Library/Application Support/Code/User/globalStorage/bmd.stm32-for-vscode/@xpack-dev-tools/arm-none-eabi-gcc/10.3.1-2.3.1/.content/arm-none-eabi/include/c++/10.3.1/arm-none-eabi/thumb/v7e-m+fp/hard/bits/gthr-default.h **** __gthread_objc_thread_id (void)
 111:/Users/lawrencestanton/Library/Application Support/Code/User/globalStorage/bmd.stm32-for-vscode/@xpack-dev-tools/arm-none-eabi-gcc/10.3.1-2.3.1/.content/arm-none-eabi/include/c++/10.3.1/arm-none-eabi/thumb/v7e-m+fp/hard/bits/gthr-default.h **** {
 112:/Users/lawrencestanton/Library/Application Support/Code/User/globalStorage/bmd.stm32-for-vscode/@xpack-dev-tools/arm-none-eabi-gcc/10.3.1-2.3.1/.content/arm-none-eabi/include/c++/10.3.1/arm-none-eabi/thumb/v7e-m+fp/hard/bits/gthr-default.h ****   /* No thread support, use 1.  */
 113:/Users/lawrencestanton/Library/Application Support/Code/User/globalStorage/bmd.stm32-for-vscode/@xpack-dev-tools/arm-none-eabi-gcc/10.3.1-2.3.1/.content/arm-none-eabi/include/c++/10.3.1/arm-none-eabi/thumb/v7e-m+fp/hard/bits/gthr-default.h ****   return (objc_thread_t) 1;
 114:/Users/lawrencestanton/Library/Application Support/Code/User/globalStorage/bmd.stm32-for-vscode/@xpack-dev-tools/arm-none-eabi-gcc/10.3.1-2.3.1/.content/arm-none-eabi/include/c++/10.3.1/arm-none-eabi/thumb/v7e-m+fp/hard/bits/gthr-default.h **** }
 115:/Users/lawrencestanton/Library/Application Support/Code/User/globalStorage/bmd.stm32-for-vscode/@xpack-dev-tools/arm-none-eabi-gcc/10.3.1-2.3.1/.content/arm-none-eabi/include/c++/10.3.1/arm-none-eabi/thumb/v7e-m+fp/hard/bits/gthr-default.h **** 
 116:/Users/lawrencestanton/Library/Application Support/Code/User/globalStorage/bmd.stm32-for-vscode/@xpack-dev-tools/arm-none-eabi-gcc/10.3.1-2.3.1/.content/arm-none-eabi/include/c++/10.3.1/arm-none-eabi/thumb/v7e-m+fp/hard/bits/gthr-default.h **** /* Sets the thread's local storage pointer.  */
 117:/Users/lawrencestanton/Library/Application Support/Code/User/globalStorage/bmd.stm32-for-vscode/@xpack-dev-tools/arm-none-eabi-gcc/10.3.1-2.3.1/.content/arm-none-eabi/include/c++/10.3.1/arm-none-eabi/thumb/v7e-m+fp/hard/bits/gthr-default.h **** static inline int
 118:/Users/lawrencestanton/Library/Application Support/Code/User/globalStorage/bmd.stm32-for-vscode/@xpack-dev-tools/arm-none-eabi-gcc/10.3.1-2.3.1/.content/arm-none-eabi/include/c++/10.3.1/arm-none-eabi/thumb/v7e-m+fp/hard/bits/gthr-default.h **** __gthread_objc_thread_set_data (void *value)
 119:/Users/lawrencestanton/Library/Application Support/Code/User/globalStorage/bmd.stm32-for-vscode/@xpack-dev-tools/arm-none-eabi-gcc/10.3.1-2.3.1/.content/arm-none-eabi/include/c++/10.3.1/arm-none-eabi/thumb/v7e-m+fp/hard/bits/gthr-default.h **** {
 120:/Users/lawrencestanton/Library/Application Support/Code/User/globalStorage/bmd.stm32-for-vscode/@xpack-dev-tools/arm-none-eabi-gcc/10.3.1-2.3.1/.content/arm-none-eabi/include/c++/10.3.1/arm-none-eabi/thumb/v7e-m+fp/hard/bits/gthr-default.h ****   thread_local_storage = value;
 121:/Users/lawrencestanton/Library/Application Support/Code/User/globalStorage/bmd.stm32-for-vscode/@xpack-dev-tools/arm-none-eabi-gcc/10.3.1-2.3.1/.content/arm-none-eabi/include/c++/10.3.1/arm-none-eabi/thumb/v7e-m+fp/hard/bits/gthr-default.h ****   return 0;
 122:/Users/lawrencestanton/Library/Application Support/Code/User/globalStorage/bmd.stm32-for-vscode/@xpack-dev-tools/arm-none-eabi-gcc/10.3.1-2.3.1/.content/arm-none-eabi/include/c++/10.3.1/arm-none-eabi/thumb/v7e-m+fp/hard/bits/gthr-default.h **** }
 123:/Users/lawrencestanton/Library/Application Support/Code/User/globalStorage/bmd.stm32-for-vscode/@xpack-dev-tools/arm-none-eabi-gcc/10.3.1-2.3.1/.content/arm-none-eabi/include/c++/10.3.1/arm-none-eabi/thumb/v7e-m+fp/hard/bits/gthr-default.h **** 
 124:/Users/lawrencestanton/Library/Application Support/Code/User/globalStorage/bmd.stm32-for-vscode/@xpack-dev-tools/arm-none-eabi-gcc/10.3.1-2.3.1/.content/arm-none-eabi/include/c++/10.3.1/arm-none-eabi/thumb/v7e-m+fp/hard/bits/gthr-default.h **** /* Returns the thread's local storage pointer.  */
 125:/Users/lawrencestanton/Library/Application Support/Code/User/globalStorage/bmd.stm32-for-vscode/@xpack-dev-tools/arm-none-eabi-gcc/10.3.1-2.3.1/.content/arm-none-eabi/include/c++/10.3.1/arm-none-eabi/thumb/v7e-m+fp/hard/bits/gthr-default.h **** static inline void *
 126:/Users/lawrencestanton/Library/Application Support/Code/User/globalStorage/bmd.stm32-for-vscode/@xpack-dev-tools/arm-none-eabi-gcc/10.3.1-2.3.1/.content/arm-none-eabi/include/c++/10.3.1/arm-none-eabi/thumb/v7e-m+fp/hard/bits/gthr-default.h **** __gthread_objc_thread_get_data (void)
 127:/Users/lawrencestanton/Library/Application Support/Code/User/globalStorage/bmd.stm32-for-vscode/@xpack-dev-tools/arm-none-eabi-gcc/10.3.1-2.3.1/.content/arm-none-eabi/include/c++/10.3.1/arm-none-eabi/thumb/v7e-m+fp/hard/bits/gthr-default.h **** {
 128:/Users/lawrencestanton/Library/Application Support/Code/User/globalStorage/bmd.stm32-for-vscode/@xpack-dev-tools/arm-none-eabi-gcc/10.3.1-2.3.1/.content/arm-none-eabi/include/c++/10.3.1/arm-none-eabi/thumb/v7e-m+fp/hard/bits/gthr-default.h ****   return thread_local_storage;
 129:/Users/lawrencestanton/Library/Application Support/Code/User/globalStorage/bmd.stm32-for-vscode/@xpack-dev-tools/arm-none-eabi-gcc/10.3.1-2.3.1/.content/arm-none-eabi/include/c++/10.3.1/arm-none-eabi/thumb/v7e-m+fp/hard/bits/gthr-default.h **** }
 130:/Users/lawrencestanton/Library/Application Support/Code/User/globalStorage/bmd.stm32-for-vscode/@xpack-dev-tools/arm-none-eabi-gcc/10.3.1-2.3.1/.content/arm-none-eabi/include/c++/10.3.1/arm-none-eabi/thumb/v7e-m+fp/hard/bits/gthr-default.h **** 
 131:/Users/lawrencestanton/Library/Application Support/Code/User/globalStorage/bmd.stm32-for-vscode/@xpack-dev-tools/arm-none-eabi-gcc/10.3.1-2.3.1/.content/arm-none-eabi/include/c++/10.3.1/arm-none-eabi/thumb/v7e-m+fp/hard/bits/gthr-default.h **** /* Backend mutex functions */
 132:/Users/lawrencestanton/Library/Application Support/Code/User/globalStorage/bmd.stm32-for-vscode/@xpack-dev-tools/arm-none-eabi-gcc/10.3.1-2.3.1/.content/arm-none-eabi/include/c++/10.3.1/arm-none-eabi/thumb/v7e-m+fp/hard/bits/gthr-default.h **** 
 133:/Users/lawrencestanton/Library/Application Support/Code/User/globalStorage/bmd.stm32-for-vscode/@xpack-dev-tools/arm-none-eabi-gcc/10.3.1-2.3.1/.content/arm-none-eabi/include/c++/10.3.1/arm-none-eabi/thumb/v7e-m+fp/hard/bits/gthr-default.h **** /* Allocate a mutex.  */
 134:/Users/lawrencestanton/Library/Application Support/Code/User/globalStorage/bmd.stm32-for-vscode/@xpack-dev-tools/arm-none-eabi-gcc/10.3.1-2.3.1/.content/arm-none-eabi/include/c++/10.3.1/arm-none-eabi/thumb/v7e-m+fp/hard/bits/gthr-default.h **** static inline int
 135:/Users/lawrencestanton/Library/Application Support/Code/User/globalStorage/bmd.stm32-for-vscode/@xpack-dev-tools/arm-none-eabi-gcc/10.3.1-2.3.1/.content/arm-none-eabi/include/c++/10.3.1/arm-none-eabi/thumb/v7e-m+fp/hard/bits/gthr-default.h **** __gthread_objc_mutex_allocate (objc_mutex_t mutex _GLIBCXX_UNUSED)
 136:/Users/lawrencestanton/Library/Application Support/Code/User/globalStorage/bmd.stm32-for-vscode/@xpack-dev-tools/arm-none-eabi-gcc/10.3.1-2.3.1/.content/arm-none-eabi/include/c++/10.3.1/arm-none-eabi/thumb/v7e-m+fp/hard/bits/gthr-default.h **** {
 137:/Users/lawrencestanton/Library/Application Support/Code/User/globalStorage/bmd.stm32-for-vscode/@xpack-dev-tools/arm-none-eabi-gcc/10.3.1-2.3.1/.content/arm-none-eabi/include/c++/10.3.1/arm-none-eabi/thumb/v7e-m+fp/hard/bits/gthr-default.h ****   return 0;
 138:/Users/lawrencestanton/Library/Application Support/Code/User/globalStorage/bmd.stm32-for-vscode/@xpack-dev-tools/arm-none-eabi-gcc/10.3.1-2.3.1/.content/arm-none-eabi/include/c++/10.3.1/arm-none-eabi/thumb/v7e-m+fp/hard/bits/gthr-default.h **** }
 139:/Users/lawrencestanton/Library/Application Support/Code/User/globalStorage/bmd.stm32-for-vscode/@xpack-dev-tools/arm-none-eabi-gcc/10.3.1-2.3.1/.content/arm-none-eabi/include/c++/10.3.1/arm-none-eabi/thumb/v7e-m+fp/hard/bits/gthr-default.h **** 
 140:/Users/lawrencestanton/Library/Application Support/Code/User/globalStorage/bmd.stm32-for-vscode/@xpack-dev-tools/arm-none-eabi-gcc/10.3.1-2.3.1/.content/arm-none-eabi/include/c++/10.3.1/arm-none-eabi/thumb/v7e-m+fp/hard/bits/gthr-default.h **** /* Deallocate a mutex.  */
ARM GAS  /var/folders/bb/dhrb69655gd8t4nf464nxc_00000gn/T//ccX9z21m.s 			page 4


 141:/Users/lawrencestanton/Library/Application Support/Code/User/globalStorage/bmd.stm32-for-vscode/@xpack-dev-tools/arm-none-eabi-gcc/10.3.1-2.3.1/.content/arm-none-eabi/include/c++/10.3.1/arm-none-eabi/thumb/v7e-m+fp/hard/bits/gthr-default.h **** static inline int
 142:/Users/lawrencestanton/Library/Application Support/Code/User/globalStorage/bmd.stm32-for-vscode/@xpack-dev-tools/arm-none-eabi-gcc/10.3.1-2.3.1/.content/arm-none-eabi/include/c++/10.3.1/arm-none-eabi/thumb/v7e-m+fp/hard/bits/gthr-default.h **** __gthread_objc_mutex_deallocate (objc_mutex_t mutex _GLIBCXX_UNUSED)
 143:/Users/lawrencestanton/Library/Application Support/Code/User/globalStorage/bmd.stm32-for-vscode/@xpack-dev-tools/arm-none-eabi-gcc/10.3.1-2.3.1/.content/arm-none-eabi/include/c++/10.3.1/arm-none-eabi/thumb/v7e-m+fp/hard/bits/gthr-default.h **** {
 144:/Users/lawrencestanton/Library/Application Support/Code/User/globalStorage/bmd.stm32-for-vscode/@xpack-dev-tools/arm-none-eabi-gcc/10.3.1-2.3.1/.content/arm-none-eabi/include/c++/10.3.1/arm-none-eabi/thumb/v7e-m+fp/hard/bits/gthr-default.h ****   return 0;
 145:/Users/lawrencestanton/Library/Application Support/Code/User/globalStorage/bmd.stm32-for-vscode/@xpack-dev-tools/arm-none-eabi-gcc/10.3.1-2.3.1/.content/arm-none-eabi/include/c++/10.3.1/arm-none-eabi/thumb/v7e-m+fp/hard/bits/gthr-default.h **** }
 146:/Users/lawrencestanton/Library/Application Support/Code/User/globalStorage/bmd.stm32-for-vscode/@xpack-dev-tools/arm-none-eabi-gcc/10.3.1-2.3.1/.content/arm-none-eabi/include/c++/10.3.1/arm-none-eabi/thumb/v7e-m+fp/hard/bits/gthr-default.h **** 
 147:/Users/lawrencestanton/Library/Application Support/Code/User/globalStorage/bmd.stm32-for-vscode/@xpack-dev-tools/arm-none-eabi-gcc/10.3.1-2.3.1/.content/arm-none-eabi/include/c++/10.3.1/arm-none-eabi/thumb/v7e-m+fp/hard/bits/gthr-default.h **** /* Grab a lock on a mutex.  */
 148:/Users/lawrencestanton/Library/Application Support/Code/User/globalStorage/bmd.stm32-for-vscode/@xpack-dev-tools/arm-none-eabi-gcc/10.3.1-2.3.1/.content/arm-none-eabi/include/c++/10.3.1/arm-none-eabi/thumb/v7e-m+fp/hard/bits/gthr-default.h **** static inline int
 149:/Users/lawrencestanton/Library/Application Support/Code/User/globalStorage/bmd.stm32-for-vscode/@xpack-dev-tools/arm-none-eabi-gcc/10.3.1-2.3.1/.content/arm-none-eabi/include/c++/10.3.1/arm-none-eabi/thumb/v7e-m+fp/hard/bits/gthr-default.h **** __gthread_objc_mutex_lock (objc_mutex_t mutex _GLIBCXX_UNUSED)
 150:/Users/lawrencestanton/Library/Application Support/Code/User/globalStorage/bmd.stm32-for-vscode/@xpack-dev-tools/arm-none-eabi-gcc/10.3.1-2.3.1/.content/arm-none-eabi/include/c++/10.3.1/arm-none-eabi/thumb/v7e-m+fp/hard/bits/gthr-default.h **** {
 151:/Users/lawrencestanton/Library/Application Support/Code/User/globalStorage/bmd.stm32-for-vscode/@xpack-dev-tools/arm-none-eabi-gcc/10.3.1-2.3.1/.content/arm-none-eabi/include/c++/10.3.1/arm-none-eabi/thumb/v7e-m+fp/hard/bits/gthr-default.h ****   /* There can only be one thread, so we always get the lock */
 152:/Users/lawrencestanton/Library/Application Support/Code/User/globalStorage/bmd.stm32-for-vscode/@xpack-dev-tools/arm-none-eabi-gcc/10.3.1-2.3.1/.content/arm-none-eabi/include/c++/10.3.1/arm-none-eabi/thumb/v7e-m+fp/hard/bits/gthr-default.h ****   return 0;
 153:/Users/lawrencestanton/Library/Application Support/Code/User/globalStorage/bmd.stm32-for-vscode/@xpack-dev-tools/arm-none-eabi-gcc/10.3.1-2.3.1/.content/arm-none-eabi/include/c++/10.3.1/arm-none-eabi/thumb/v7e-m+fp/hard/bits/gthr-default.h **** }
 154:/Users/lawrencestanton/Library/Application Support/Code/User/globalStorage/bmd.stm32-for-vscode/@xpack-dev-tools/arm-none-eabi-gcc/10.3.1-2.3.1/.content/arm-none-eabi/include/c++/10.3.1/arm-none-eabi/thumb/v7e-m+fp/hard/bits/gthr-default.h **** 
 155:/Users/lawrencestanton/Library/Application Support/Code/User/globalStorage/bmd.stm32-for-vscode/@xpack-dev-tools/arm-none-eabi-gcc/10.3.1-2.3.1/.content/arm-none-eabi/include/c++/10.3.1/arm-none-eabi/thumb/v7e-m+fp/hard/bits/gthr-default.h **** /* Try to grab a lock on a mutex.  */
 156:/Users/lawrencestanton/Library/Application Support/Code/User/globalStorage/bmd.stm32-for-vscode/@xpack-dev-tools/arm-none-eabi-gcc/10.3.1-2.3.1/.content/arm-none-eabi/include/c++/10.3.1/arm-none-eabi/thumb/v7e-m+fp/hard/bits/gthr-default.h **** static inline int
 157:/Users/lawrencestanton/Library/Application Support/Code/User/globalStorage/bmd.stm32-for-vscode/@xpack-dev-tools/arm-none-eabi-gcc/10.3.1-2.3.1/.content/arm-none-eabi/include/c++/10.3.1/arm-none-eabi/thumb/v7e-m+fp/hard/bits/gthr-default.h **** __gthread_objc_mutex_trylock (objc_mutex_t mutex _GLIBCXX_UNUSED)
 158:/Users/lawrencestanton/Library/Application Support/Code/User/globalStorage/bmd.stm32-for-vscode/@xpack-dev-tools/arm-none-eabi-gcc/10.3.1-2.3.1/.content/arm-none-eabi/include/c++/10.3.1/arm-none-eabi/thumb/v7e-m+fp/hard/bits/gthr-default.h **** {
 159:/Users/lawrencestanton/Library/Application Support/Code/User/globalStorage/bmd.stm32-for-vscode/@xpack-dev-tools/arm-none-eabi-gcc/10.3.1-2.3.1/.content/arm-none-eabi/include/c++/10.3.1/arm-none-eabi/thumb/v7e-m+fp/hard/bits/gthr-default.h ****   /* There can only be one thread, so we always get the lock */
 160:/Users/lawrencestanton/Library/Application Support/Code/User/globalStorage/bmd.stm32-for-vscode/@xpack-dev-tools/arm-none-eabi-gcc/10.3.1-2.3.1/.content/arm-none-eabi/include/c++/10.3.1/arm-none-eabi/thumb/v7e-m+fp/hard/bits/gthr-default.h ****   return 0;
 161:/Users/lawrencestanton/Library/Application Support/Code/User/globalStorage/bmd.stm32-for-vscode/@xpack-dev-tools/arm-none-eabi-gcc/10.3.1-2.3.1/.content/arm-none-eabi/include/c++/10.3.1/arm-none-eabi/thumb/v7e-m+fp/hard/bits/gthr-default.h **** }
 162:/Users/lawrencestanton/Library/Application Support/Code/User/globalStorage/bmd.stm32-for-vscode/@xpack-dev-tools/arm-none-eabi-gcc/10.3.1-2.3.1/.content/arm-none-eabi/include/c++/10.3.1/arm-none-eabi/thumb/v7e-m+fp/hard/bits/gthr-default.h **** 
 163:/Users/lawrencestanton/Library/Application Support/Code/User/globalStorage/bmd.stm32-for-vscode/@xpack-dev-tools/arm-none-eabi-gcc/10.3.1-2.3.1/.content/arm-none-eabi/include/c++/10.3.1/arm-none-eabi/thumb/v7e-m+fp/hard/bits/gthr-default.h **** /* Unlock the mutex */
 164:/Users/lawrencestanton/Library/Application Support/Code/User/globalStorage/bmd.stm32-for-vscode/@xpack-dev-tools/arm-none-eabi-gcc/10.3.1-2.3.1/.content/arm-none-eabi/include/c++/10.3.1/arm-none-eabi/thumb/v7e-m+fp/hard/bits/gthr-default.h **** static inline int
 165:/Users/lawrencestanton/Library/Application Support/Code/User/globalStorage/bmd.stm32-for-vscode/@xpack-dev-tools/arm-none-eabi-gcc/10.3.1-2.3.1/.content/arm-none-eabi/include/c++/10.3.1/arm-none-eabi/thumb/v7e-m+fp/hard/bits/gthr-default.h **** __gthread_objc_mutex_unlock (objc_mutex_t mutex _GLIBCXX_UNUSED)
 166:/Users/lawrencestanton/Library/Application Support/Code/User/globalStorage/bmd.stm32-for-vscode/@xpack-dev-tools/arm-none-eabi-gcc/10.3.1-2.3.1/.content/arm-none-eabi/include/c++/10.3.1/arm-none-eabi/thumb/v7e-m+fp/hard/bits/gthr-default.h **** {
 167:/Users/lawrencestanton/Library/Application Support/Code/User/globalStorage/bmd.stm32-for-vscode/@xpack-dev-tools/arm-none-eabi-gcc/10.3.1-2.3.1/.content/arm-none-eabi/include/c++/10.3.1/arm-none-eabi/thumb/v7e-m+fp/hard/bits/gthr-default.h ****   return 0;
 168:/Users/lawrencestanton/Library/Application Support/Code/User/globalStorage/bmd.stm32-for-vscode/@xpack-dev-tools/arm-none-eabi-gcc/10.3.1-2.3.1/.content/arm-none-eabi/include/c++/10.3.1/arm-none-eabi/thumb/v7e-m+fp/hard/bits/gthr-default.h **** }
 169:/Users/lawrencestanton/Library/Application Support/Code/User/globalStorage/bmd.stm32-for-vscode/@xpack-dev-tools/arm-none-eabi-gcc/10.3.1-2.3.1/.content/arm-none-eabi/include/c++/10.3.1/arm-none-eabi/thumb/v7e-m+fp/hard/bits/gthr-default.h **** 
 170:/Users/lawrencestanton/Library/Application Support/Code/User/globalStorage/bmd.stm32-for-vscode/@xpack-dev-tools/arm-none-eabi-gcc/10.3.1-2.3.1/.content/arm-none-eabi/include/c++/10.3.1/arm-none-eabi/thumb/v7e-m+fp/hard/bits/gthr-default.h **** /* Backend condition mutex functions */
 171:/Users/lawrencestanton/Library/Application Support/Code/User/globalStorage/bmd.stm32-for-vscode/@xpack-dev-tools/arm-none-eabi-gcc/10.3.1-2.3.1/.content/arm-none-eabi/include/c++/10.3.1/arm-none-eabi/thumb/v7e-m+fp/hard/bits/gthr-default.h **** 
 172:/Users/lawrencestanton/Library/Application Support/Code/User/globalStorage/bmd.stm32-for-vscode/@xpack-dev-tools/arm-none-eabi-gcc/10.3.1-2.3.1/.content/arm-none-eabi/include/c++/10.3.1/arm-none-eabi/thumb/v7e-m+fp/hard/bits/gthr-default.h **** /* Allocate a condition.  */
 173:/Users/lawrencestanton/Library/Application Support/Code/User/globalStorage/bmd.stm32-for-vscode/@xpack-dev-tools/arm-none-eabi-gcc/10.3.1-2.3.1/.content/arm-none-eabi/include/c++/10.3.1/arm-none-eabi/thumb/v7e-m+fp/hard/bits/gthr-default.h **** static inline int
 174:/Users/lawrencestanton/Library/Application Support/Code/User/globalStorage/bmd.stm32-for-vscode/@xpack-dev-tools/arm-none-eabi-gcc/10.3.1-2.3.1/.content/arm-none-eabi/include/c++/10.3.1/arm-none-eabi/thumb/v7e-m+fp/hard/bits/gthr-default.h **** __gthread_objc_condition_allocate (objc_condition_t condition _GLIBCXX_UNUSED)
 175:/Users/lawrencestanton/Library/Application Support/Code/User/globalStorage/bmd.stm32-for-vscode/@xpack-dev-tools/arm-none-eabi-gcc/10.3.1-2.3.1/.content/arm-none-eabi/include/c++/10.3.1/arm-none-eabi/thumb/v7e-m+fp/hard/bits/gthr-default.h **** {
 176:/Users/lawrencestanton/Library/Application Support/Code/User/globalStorage/bmd.stm32-for-vscode/@xpack-dev-tools/arm-none-eabi-gcc/10.3.1-2.3.1/.content/arm-none-eabi/include/c++/10.3.1/arm-none-eabi/thumb/v7e-m+fp/hard/bits/gthr-default.h ****   return 0;
 177:/Users/lawrencestanton/Library/Application Support/Code/User/globalStorage/bmd.stm32-for-vscode/@xpack-dev-tools/arm-none-eabi-gcc/10.3.1-2.3.1/.content/arm-none-eabi/include/c++/10.3.1/arm-none-eabi/thumb/v7e-m+fp/hard/bits/gthr-default.h **** }
 178:/Users/lawrencestanton/Library/Application Support/Code/User/globalStorage/bmd.stm32-for-vscode/@xpack-dev-tools/arm-none-eabi-gcc/10.3.1-2.3.1/.content/arm-none-eabi/include/c++/10.3.1/arm-none-eabi/thumb/v7e-m+fp/hard/bits/gthr-default.h **** 
 179:/Users/lawrencestanton/Library/Application Support/Code/User/globalStorage/bmd.stm32-for-vscode/@xpack-dev-tools/arm-none-eabi-gcc/10.3.1-2.3.1/.content/arm-none-eabi/include/c++/10.3.1/arm-none-eabi/thumb/v7e-m+fp/hard/bits/gthr-default.h **** /* Deallocate a condition.  */
 180:/Users/lawrencestanton/Library/Application Support/Code/User/globalStorage/bmd.stm32-for-vscode/@xpack-dev-tools/arm-none-eabi-gcc/10.3.1-2.3.1/.content/arm-none-eabi/include/c++/10.3.1/arm-none-eabi/thumb/v7e-m+fp/hard/bits/gthr-default.h **** static inline int
 181:/Users/lawrencestanton/Library/Application Support/Code/User/globalStorage/bmd.stm32-for-vscode/@xpack-dev-tools/arm-none-eabi-gcc/10.3.1-2.3.1/.content/arm-none-eabi/include/c++/10.3.1/arm-none-eabi/thumb/v7e-m+fp/hard/bits/gthr-default.h **** __gthread_objc_condition_deallocate (objc_condition_t condition _GLIBCXX_UNUSED)
 182:/Users/lawrencestanton/Library/Application Support/Code/User/globalStorage/bmd.stm32-for-vscode/@xpack-dev-tools/arm-none-eabi-gcc/10.3.1-2.3.1/.content/arm-none-eabi/include/c++/10.3.1/arm-none-eabi/thumb/v7e-m+fp/hard/bits/gthr-default.h **** {
 183:/Users/lawrencestanton/Library/Application Support/Code/User/globalStorage/bmd.stm32-for-vscode/@xpack-dev-tools/arm-none-eabi-gcc/10.3.1-2.3.1/.content/arm-none-eabi/include/c++/10.3.1/arm-none-eabi/thumb/v7e-m+fp/hard/bits/gthr-default.h ****   return 0;
 184:/Users/lawrencestanton/Library/Application Support/Code/User/globalStorage/bmd.stm32-for-vscode/@xpack-dev-tools/arm-none-eabi-gcc/10.3.1-2.3.1/.content/arm-none-eabi/include/c++/10.3.1/arm-none-eabi/thumb/v7e-m+fp/hard/bits/gthr-default.h **** }
 185:/Users/lawrencestanton/Library/Application Support/Code/User/globalStorage/bmd.stm32-for-vscode/@xpack-dev-tools/arm-none-eabi-gcc/10.3.1-2.3.1/.content/arm-none-eabi/include/c++/10.3.1/arm-none-eabi/thumb/v7e-m+fp/hard/bits/gthr-default.h **** 
 186:/Users/lawrencestanton/Library/Application Support/Code/User/globalStorage/bmd.stm32-for-vscode/@xpack-dev-tools/arm-none-eabi-gcc/10.3.1-2.3.1/.content/arm-none-eabi/include/c++/10.3.1/arm-none-eabi/thumb/v7e-m+fp/hard/bits/gthr-default.h **** /* Wait on the condition */
 187:/Users/lawrencestanton/Library/Application Support/Code/User/globalStorage/bmd.stm32-for-vscode/@xpack-dev-tools/arm-none-eabi-gcc/10.3.1-2.3.1/.content/arm-none-eabi/include/c++/10.3.1/arm-none-eabi/thumb/v7e-m+fp/hard/bits/gthr-default.h **** static inline int
 188:/Users/lawrencestanton/Library/Application Support/Code/User/globalStorage/bmd.stm32-for-vscode/@xpack-dev-tools/arm-none-eabi-gcc/10.3.1-2.3.1/.content/arm-none-eabi/include/c++/10.3.1/arm-none-eabi/thumb/v7e-m+fp/hard/bits/gthr-default.h **** __gthread_objc_condition_wait (objc_condition_t condition _GLIBCXX_UNUSED,
 189:/Users/lawrencestanton/Library/Application Support/Code/User/globalStorage/bmd.stm32-for-vscode/@xpack-dev-tools/arm-none-eabi-gcc/10.3.1-2.3.1/.content/arm-none-eabi/include/c++/10.3.1/arm-none-eabi/thumb/v7e-m+fp/hard/bits/gthr-default.h **** 			       objc_mutex_t mutex _GLIBCXX_UNUSED)
 190:/Users/lawrencestanton/Library/Application Support/Code/User/globalStorage/bmd.stm32-for-vscode/@xpack-dev-tools/arm-none-eabi-gcc/10.3.1-2.3.1/.content/arm-none-eabi/include/c++/10.3.1/arm-none-eabi/thumb/v7e-m+fp/hard/bits/gthr-default.h **** {
 191:/Users/lawrencestanton/Library/Application Support/Code/User/globalStorage/bmd.stm32-for-vscode/@xpack-dev-tools/arm-none-eabi-gcc/10.3.1-2.3.1/.content/arm-none-eabi/include/c++/10.3.1/arm-none-eabi/thumb/v7e-m+fp/hard/bits/gthr-default.h ****   return 0;
 192:/Users/lawrencestanton/Library/Application Support/Code/User/globalStorage/bmd.stm32-for-vscode/@xpack-dev-tools/arm-none-eabi-gcc/10.3.1-2.3.1/.content/arm-none-eabi/include/c++/10.3.1/arm-none-eabi/thumb/v7e-m+fp/hard/bits/gthr-default.h **** }
 193:/Users/lawrencestanton/Library/Application Support/Code/User/globalStorage/bmd.stm32-for-vscode/@xpack-dev-tools/arm-none-eabi-gcc/10.3.1-2.3.1/.content/arm-none-eabi/include/c++/10.3.1/arm-none-eabi/thumb/v7e-m+fp/hard/bits/gthr-default.h **** 
 194:/Users/lawrencestanton/Library/Application Support/Code/User/globalStorage/bmd.stm32-for-vscode/@xpack-dev-tools/arm-none-eabi-gcc/10.3.1-2.3.1/.content/arm-none-eabi/include/c++/10.3.1/arm-none-eabi/thumb/v7e-m+fp/hard/bits/gthr-default.h **** /* Wake up all threads waiting on this condition.  */
 195:/Users/lawrencestanton/Library/Application Support/Code/User/globalStorage/bmd.stm32-for-vscode/@xpack-dev-tools/arm-none-eabi-gcc/10.3.1-2.3.1/.content/arm-none-eabi/include/c++/10.3.1/arm-none-eabi/thumb/v7e-m+fp/hard/bits/gthr-default.h **** static inline int
 196:/Users/lawrencestanton/Library/Application Support/Code/User/globalStorage/bmd.stm32-for-vscode/@xpack-dev-tools/arm-none-eabi-gcc/10.3.1-2.3.1/.content/arm-none-eabi/include/c++/10.3.1/arm-none-eabi/thumb/v7e-m+fp/hard/bits/gthr-default.h **** __gthread_objc_condition_broadcast (objc_condition_t condition _GLIBCXX_UNUSED)
 197:/Users/lawrencestanton/Library/Application Support/Code/User/globalStorage/bmd.stm32-for-vscode/@xpack-dev-tools/arm-none-eabi-gcc/10.3.1-2.3.1/.content/arm-none-eabi/include/c++/10.3.1/arm-none-eabi/thumb/v7e-m+fp/hard/bits/gthr-default.h **** {
ARM GAS  /var/folders/bb/dhrb69655gd8t4nf464nxc_00000gn/T//ccX9z21m.s 			page 5


 198:/Users/lawrencestanton/Library/Application Support/Code/User/globalStorage/bmd.stm32-for-vscode/@xpack-dev-tools/arm-none-eabi-gcc/10.3.1-2.3.1/.content/arm-none-eabi/include/c++/10.3.1/arm-none-eabi/thumb/v7e-m+fp/hard/bits/gthr-default.h ****   return 0;
 199:/Users/lawrencestanton/Library/Application Support/Code/User/globalStorage/bmd.stm32-for-vscode/@xpack-dev-tools/arm-none-eabi-gcc/10.3.1-2.3.1/.content/arm-none-eabi/include/c++/10.3.1/arm-none-eabi/thumb/v7e-m+fp/hard/bits/gthr-default.h **** }
 200:/Users/lawrencestanton/Library/Application Support/Code/User/globalStorage/bmd.stm32-for-vscode/@xpack-dev-tools/arm-none-eabi-gcc/10.3.1-2.3.1/.content/arm-none-eabi/include/c++/10.3.1/arm-none-eabi/thumb/v7e-m+fp/hard/bits/gthr-default.h **** 
 201:/Users/lawrencestanton/Library/Application Support/Code/User/globalStorage/bmd.stm32-for-vscode/@xpack-dev-tools/arm-none-eabi-gcc/10.3.1-2.3.1/.content/arm-none-eabi/include/c++/10.3.1/arm-none-eabi/thumb/v7e-m+fp/hard/bits/gthr-default.h **** /* Wake up one thread waiting on this condition.  */
 202:/Users/lawrencestanton/Library/Application Support/Code/User/globalStorage/bmd.stm32-for-vscode/@xpack-dev-tools/arm-none-eabi-gcc/10.3.1-2.3.1/.content/arm-none-eabi/include/c++/10.3.1/arm-none-eabi/thumb/v7e-m+fp/hard/bits/gthr-default.h **** static inline int
 203:/Users/lawrencestanton/Library/Application Support/Code/User/globalStorage/bmd.stm32-for-vscode/@xpack-dev-tools/arm-none-eabi-gcc/10.3.1-2.3.1/.content/arm-none-eabi/include/c++/10.3.1/arm-none-eabi/thumb/v7e-m+fp/hard/bits/gthr-default.h **** __gthread_objc_condition_signal (objc_condition_t condition _GLIBCXX_UNUSED)
 204:/Users/lawrencestanton/Library/Application Support/Code/User/globalStorage/bmd.stm32-for-vscode/@xpack-dev-tools/arm-none-eabi-gcc/10.3.1-2.3.1/.content/arm-none-eabi/include/c++/10.3.1/arm-none-eabi/thumb/v7e-m+fp/hard/bits/gthr-default.h **** {
 205:/Users/lawrencestanton/Library/Application Support/Code/User/globalStorage/bmd.stm32-for-vscode/@xpack-dev-tools/arm-none-eabi-gcc/10.3.1-2.3.1/.content/arm-none-eabi/include/c++/10.3.1/arm-none-eabi/thumb/v7e-m+fp/hard/bits/gthr-default.h ****   return 0;
 206:/Users/lawrencestanton/Library/Application Support/Code/User/globalStorage/bmd.stm32-for-vscode/@xpack-dev-tools/arm-none-eabi-gcc/10.3.1-2.3.1/.content/arm-none-eabi/include/c++/10.3.1/arm-none-eabi/thumb/v7e-m+fp/hard/bits/gthr-default.h **** }
 207:/Users/lawrencestanton/Library/Application Support/Code/User/globalStorage/bmd.stm32-for-vscode/@xpack-dev-tools/arm-none-eabi-gcc/10.3.1-2.3.1/.content/arm-none-eabi/include/c++/10.3.1/arm-none-eabi/thumb/v7e-m+fp/hard/bits/gthr-default.h **** 
 208:/Users/lawrencestanton/Library/Application Support/Code/User/globalStorage/bmd.stm32-for-vscode/@xpack-dev-tools/arm-none-eabi-gcc/10.3.1-2.3.1/.content/arm-none-eabi/include/c++/10.3.1/arm-none-eabi/thumb/v7e-m+fp/hard/bits/gthr-default.h **** #else /* _LIBOBJC */
 209:/Users/lawrencestanton/Library/Application Support/Code/User/globalStorage/bmd.stm32-for-vscode/@xpack-dev-tools/arm-none-eabi-gcc/10.3.1-2.3.1/.content/arm-none-eabi/include/c++/10.3.1/arm-none-eabi/thumb/v7e-m+fp/hard/bits/gthr-default.h **** 
 210:/Users/lawrencestanton/Library/Application Support/Code/User/globalStorage/bmd.stm32-for-vscode/@xpack-dev-tools/arm-none-eabi-gcc/10.3.1-2.3.1/.content/arm-none-eabi/include/c++/10.3.1/arm-none-eabi/thumb/v7e-m+fp/hard/bits/gthr-default.h **** static inline int
 211:/Users/lawrencestanton/Library/Application Support/Code/User/globalStorage/bmd.stm32-for-vscode/@xpack-dev-tools/arm-none-eabi-gcc/10.3.1-2.3.1/.content/arm-none-eabi/include/c++/10.3.1/arm-none-eabi/thumb/v7e-m+fp/hard/bits/gthr-default.h **** __gthread_active_p (void)
 212:/Users/lawrencestanton/Library/Application Support/Code/User/globalStorage/bmd.stm32-for-vscode/@xpack-dev-tools/arm-none-eabi-gcc/10.3.1-2.3.1/.content/arm-none-eabi/include/c++/10.3.1/arm-none-eabi/thumb/v7e-m+fp/hard/bits/gthr-default.h **** {
 213:/Users/lawrencestanton/Library/Application Support/Code/User/globalStorage/bmd.stm32-for-vscode/@xpack-dev-tools/arm-none-eabi-gcc/10.3.1-2.3.1/.content/arm-none-eabi/include/c++/10.3.1/arm-none-eabi/thumb/v7e-m+fp/hard/bits/gthr-default.h ****   return 0;
 214:/Users/lawrencestanton/Library/Application Support/Code/User/globalStorage/bmd.stm32-for-vscode/@xpack-dev-tools/arm-none-eabi-gcc/10.3.1-2.3.1/.content/arm-none-eabi/include/c++/10.3.1/arm-none-eabi/thumb/v7e-m+fp/hard/bits/gthr-default.h **** }
 215:/Users/lawrencestanton/Library/Application Support/Code/User/globalStorage/bmd.stm32-for-vscode/@xpack-dev-tools/arm-none-eabi-gcc/10.3.1-2.3.1/.content/arm-none-eabi/include/c++/10.3.1/arm-none-eabi/thumb/v7e-m+fp/hard/bits/gthr-default.h **** 
 216:/Users/lawrencestanton/Library/Application Support/Code/User/globalStorage/bmd.stm32-for-vscode/@xpack-dev-tools/arm-none-eabi-gcc/10.3.1-2.3.1/.content/arm-none-eabi/include/c++/10.3.1/arm-none-eabi/thumb/v7e-m+fp/hard/bits/gthr-default.h **** static inline int
 217:/Users/lawrencestanton/Library/Application Support/Code/User/globalStorage/bmd.stm32-for-vscode/@xpack-dev-tools/arm-none-eabi-gcc/10.3.1-2.3.1/.content/arm-none-eabi/include/c++/10.3.1/arm-none-eabi/thumb/v7e-m+fp/hard/bits/gthr-default.h **** __gthread_once (__gthread_once_t *__once _GLIBCXX_UNUSED, void (*__func) (void) _GLIBCXX_UNUSED)
 218:/Users/lawrencestanton/Library/Application Support/Code/User/globalStorage/bmd.stm32-for-vscode/@xpack-dev-tools/arm-none-eabi-gcc/10.3.1-2.3.1/.content/arm-none-eabi/include/c++/10.3.1/arm-none-eabi/thumb/v7e-m+fp/hard/bits/gthr-default.h **** {
 219:/Users/lawrencestanton/Library/Application Support/Code/User/globalStorage/bmd.stm32-for-vscode/@xpack-dev-tools/arm-none-eabi-gcc/10.3.1-2.3.1/.content/arm-none-eabi/include/c++/10.3.1/arm-none-eabi/thumb/v7e-m+fp/hard/bits/gthr-default.h ****   return 0;
 220:/Users/lawrencestanton/Library/Application Support/Code/User/globalStorage/bmd.stm32-for-vscode/@xpack-dev-tools/arm-none-eabi-gcc/10.3.1-2.3.1/.content/arm-none-eabi/include/c++/10.3.1/arm-none-eabi/thumb/v7e-m+fp/hard/bits/gthr-default.h **** }
 221:/Users/lawrencestanton/Library/Application Support/Code/User/globalStorage/bmd.stm32-for-vscode/@xpack-dev-tools/arm-none-eabi-gcc/10.3.1-2.3.1/.content/arm-none-eabi/include/c++/10.3.1/arm-none-eabi/thumb/v7e-m+fp/hard/bits/gthr-default.h **** 
 222:/Users/lawrencestanton/Library/Application Support/Code/User/globalStorage/bmd.stm32-for-vscode/@xpack-dev-tools/arm-none-eabi-gcc/10.3.1-2.3.1/.content/arm-none-eabi/include/c++/10.3.1/arm-none-eabi/thumb/v7e-m+fp/hard/bits/gthr-default.h **** static inline int _GLIBCXX_UNUSED
 223:/Users/lawrencestanton/Library/Application Support/Code/User/globalStorage/bmd.stm32-for-vscode/@xpack-dev-tools/arm-none-eabi-gcc/10.3.1-2.3.1/.content/arm-none-eabi/include/c++/10.3.1/arm-none-eabi/thumb/v7e-m+fp/hard/bits/gthr-default.h **** __gthread_key_create (__gthread_key_t *__key _GLIBCXX_UNUSED, void (*__func) (void *) _GLIBCXX_UNUS
 224:/Users/lawrencestanton/Library/Application Support/Code/User/globalStorage/bmd.stm32-for-vscode/@xpack-dev-tools/arm-none-eabi-gcc/10.3.1-2.3.1/.content/arm-none-eabi/include/c++/10.3.1/arm-none-eabi/thumb/v7e-m+fp/hard/bits/gthr-default.h **** {
 225:/Users/lawrencestanton/Library/Application Support/Code/User/globalStorage/bmd.stm32-for-vscode/@xpack-dev-tools/arm-none-eabi-gcc/10.3.1-2.3.1/.content/arm-none-eabi/include/c++/10.3.1/arm-none-eabi/thumb/v7e-m+fp/hard/bits/gthr-default.h ****   return 0;
 226:/Users/lawrencestanton/Library/Application Support/Code/User/globalStorage/bmd.stm32-for-vscode/@xpack-dev-tools/arm-none-eabi-gcc/10.3.1-2.3.1/.content/arm-none-eabi/include/c++/10.3.1/arm-none-eabi/thumb/v7e-m+fp/hard/bits/gthr-default.h **** }
 227:/Users/lawrencestanton/Library/Application Support/Code/User/globalStorage/bmd.stm32-for-vscode/@xpack-dev-tools/arm-none-eabi-gcc/10.3.1-2.3.1/.content/arm-none-eabi/include/c++/10.3.1/arm-none-eabi/thumb/v7e-m+fp/hard/bits/gthr-default.h **** 
 228:/Users/lawrencestanton/Library/Application Support/Code/User/globalStorage/bmd.stm32-for-vscode/@xpack-dev-tools/arm-none-eabi-gcc/10.3.1-2.3.1/.content/arm-none-eabi/include/c++/10.3.1/arm-none-eabi/thumb/v7e-m+fp/hard/bits/gthr-default.h **** static int _GLIBCXX_UNUSED
 229:/Users/lawrencestanton/Library/Application Support/Code/User/globalStorage/bmd.stm32-for-vscode/@xpack-dev-tools/arm-none-eabi-gcc/10.3.1-2.3.1/.content/arm-none-eabi/include/c++/10.3.1/arm-none-eabi/thumb/v7e-m+fp/hard/bits/gthr-default.h **** __gthread_key_delete (__gthread_key_t __key _GLIBCXX_UNUSED)
 230:/Users/lawrencestanton/Library/Application Support/Code/User/globalStorage/bmd.stm32-for-vscode/@xpack-dev-tools/arm-none-eabi-gcc/10.3.1-2.3.1/.content/arm-none-eabi/include/c++/10.3.1/arm-none-eabi/thumb/v7e-m+fp/hard/bits/gthr-default.h **** {
  35              		.loc 1 230 1
  36              		.cfi_startproc
  37              		@ args = 0, pretend = 0, frame = 8
  38              		@ frame_needed = 1, uses_anonymous_args = 0
  39              		@ link register save eliminated.
  40 0000 80B4     		push	{r7}
  41              		.cfi_def_cfa_offset 4
  42              		.cfi_offset 7, -4
  43 0002 83B0     		sub	sp, sp, #12
  44              		.cfi_def_cfa_offset 16
  45 0004 00AF     		add	r7, sp, #0
  46              		.cfi_def_cfa_register 7
  47 0006 7860     		str	r0, [r7, #4]
 231:/Users/lawrencestanton/Library/Application Support/Code/User/globalStorage/bmd.stm32-for-vscode/@xpack-dev-tools/arm-none-eabi-gcc/10.3.1-2.3.1/.content/arm-none-eabi/include/c++/10.3.1/arm-none-eabi/thumb/v7e-m+fp/hard/bits/gthr-default.h ****   return 0;
  48              		.loc 1 231 10
  49 0008 0023     		movs	r3, #0
 232:/Users/lawrencestanton/Library/Application Support/Code/User/globalStorage/bmd.stm32-for-vscode/@xpack-dev-tools/arm-none-eabi-gcc/10.3.1-2.3.1/.content/arm-none-eabi/include/c++/10.3.1/arm-none-eabi/thumb/v7e-m+fp/hard/bits/gthr-default.h **** }
  50              		.loc 1 232 1
  51 000a 1846     		mov	r0, r3
  52 000c 0C37     		adds	r7, r7, #12
  53              		.cfi_def_cfa_offset 4
  54 000e BD46     		mov	sp, r7
  55              		.cfi_def_cfa_register 13
  56              		@ sp needed
ARM GAS  /var/folders/bb/dhrb69655gd8t4nf464nxc_00000gn/T//ccX9z21m.s 			page 6


  57 0010 5DF8047B 		ldr	r7, [sp], #4
  58              		.cfi_restore 7
  59              		.cfi_def_cfa_offset 0
  60 0014 7047     		bx	lr
  61              		.cfi_endproc
  62              	.LFE653:
  63              		.cantunwind
  64              		.fnend
  66              		.section	.rodata._ZL23CFG_HW_ANT_CFG_VOLTCTRL,"a"
  67              		.align	2
  70              	_ZL23CFG_HW_ANT_CFG_VOLTCTRL:
  71 0000 01       		.byte	1
  72 0001 A3       		.byte	-93
  73 0002 2E00     		.short	46
  74              		.section	.rodata._ZL23CFG_HW_ANT_CFG_SHORTDET,"a"
  75              		.align	2
  78              	_ZL23CFG_HW_ANT_CFG_SHORTDET:
  79 0000 01       		.byte	1
  80 0001 A3       		.byte	-93
  81 0002 2F00     		.short	47
  82              		.section	.rodata._ZL27CFG_HW_ANT_CFG_SHORTDET_POL,"a"
  83              		.align	2
  86              	_ZL27CFG_HW_ANT_CFG_SHORTDET_POL:
  87 0000 01       		.byte	1
  88 0001 A3       		.byte	-93
  89 0002 3000     		.short	48
  90              		.section	.rodata._ZL22CFG_HW_ANT_CFG_OPENDET,"a"
  91              		.align	2
  94              	_ZL22CFG_HW_ANT_CFG_OPENDET:
  95 0000 01       		.byte	1
  96 0001 A3       		.byte	-93
  97 0002 3100     		.short	49
  98              		.section	.rodata._ZL26CFG_HW_ANT_CFG_OPENDET_POL,"a"
  99              		.align	2
 102              	_ZL26CFG_HW_ANT_CFG_OPENDET_POL:
 103 0000 01       		.byte	1
 104 0001 A3       		.byte	-93
 105 0002 3200     		.short	50
 106              		.section	.rodata._ZL22CFG_HW_ANT_CFG_PWRDOWN,"a"
 107              		.align	2
 110              	_ZL22CFG_HW_ANT_CFG_PWRDOWN:
 111 0000 01       		.byte	1
 112 0001 A3       		.byte	-93
 113 0002 3300     		.short	51
 114              		.section	.rodata._ZL26CFG_HW_ANT_CFG_PWRDOWN_POL,"a"
 115              		.align	2
 118              	_ZL26CFG_HW_ANT_CFG_PWRDOWN_POL:
 119 0000 01       		.byte	1
 120 0001 A3       		.byte	-93
 121 0002 3400     		.short	52
 122              		.section	.rodata._ZL22CFG_HW_ANT_CFG_RECOVER,"a"
 123              		.align	2
 126              	_ZL22CFG_HW_ANT_CFG_RECOVER:
 127 0000 01       		.byte	1
 128 0001 A3       		.byte	-93
 129 0002 3500     		.short	53
 130              		.section	.rodata._ZL25CFG_HW_ANT_SUP_SWITCH_PIN,"a"
ARM GAS  /var/folders/bb/dhrb69655gd8t4nf464nxc_00000gn/T//ccX9z21m.s 			page 7


 131              		.align	2
 134              	_ZL25CFG_HW_ANT_SUP_SWITCH_PIN:
 135 0000 02       		.byte	2
 136 0001 A3       		.byte	-93
 137 0002 3600     		.short	54
 138              		.section	.rodata._ZL24CFG_HW_ANT_SUP_SHORT_PIN,"a"
 139              		.align	2
 142              	_ZL24CFG_HW_ANT_SUP_SHORT_PIN:
 143 0000 02       		.byte	2
 144 0001 A3       		.byte	-93
 145 0002 3700     		.short	55
 146              		.section	.rodata._ZL23CFG_HW_ANT_SUP_OPEN_PIN,"a"
 147              		.align	2
 150              	_ZL23CFG_HW_ANT_SUP_OPEN_PIN:
 151 0000 02       		.byte	2
 152 0001 A3       		.byte	-93
 153 0002 3800     		.short	56
 154              		.section	.rodata._ZL21CFG_HW_ANT_SUP_ENGINE,"a"
 155              		.align	2
 158              	_ZL21CFG_HW_ANT_SUP_ENGINE:
 159 0000 02       		.byte	2
 160 0001 A3       		.byte	-93
 161 0002 5400     		.short	84
 162              		.section	.rodata._ZL24CFG_HW_ANT_SUP_SHORT_THR,"a"
 163              		.align	2
 166              	_ZL24CFG_HW_ANT_SUP_SHORT_THR:
 167 0000 02       		.byte	2
 168 0001 A3       		.byte	-93
 169 0002 5500     		.short	85
 170              		.section	.rodata._ZL23CFG_HW_ANT_SUP_OPEN_THR,"a"
 171              		.align	2
 174              	_ZL23CFG_HW_ANT_SUP_OPEN_THR:
 175 0000 02       		.byte	2
 176 0001 A3       		.byte	-93
 177 0002 5600     		.short	86
 178              		.section	.rodata._ZL16CFG_NMEA_PROTVER,"a"
 179              		.align	2
 182              	_ZL16CFG_NMEA_PROTVER:
 183 0000 02       		.byte	2
 184 0001 93       		.byte	-109
 185 0002 0100     		.short	1
 186              		.section	.rodata._ZL15CFG_NMEA_MAXSVS,"a"
 187              		.align	2
 190              	_ZL15CFG_NMEA_MAXSVS:
 191 0000 02       		.byte	2
 192 0001 93       		.byte	-109
 193 0002 0200     		.short	2
 194              		.section	.rodata._ZL15CFG_NMEA_COMPAT,"a"
 195              		.align	2
 198              	_ZL15CFG_NMEA_COMPAT:
 199 0000 01       		.byte	1
 200 0001 93       		.byte	-109
 201 0002 0300     		.short	3
 202              		.section	.rodata._ZL17CFG_NMEA_CONSIDER,"a"
 203              		.align	2
 206              	_ZL17CFG_NMEA_CONSIDER:
 207 0000 01       		.byte	1
ARM GAS  /var/folders/bb/dhrb69655gd8t4nf464nxc_00000gn/T//ccX9z21m.s 			page 8


 208 0001 93       		.byte	-109
 209 0002 0400     		.short	4
 210              		.section	.rodata._ZL16CFG_NMEA_LIMIT82,"a"
 211              		.align	2
 214              	_ZL16CFG_NMEA_LIMIT82:
 215 0000 01       		.byte	1
 216 0001 93       		.byte	-109
 217 0002 0500     		.short	5
 218              		.section	.rodata._ZL17CFG_NMEA_HIGHPREC,"a"
 219              		.align	2
 222              	_ZL17CFG_NMEA_HIGHPREC:
 223 0000 01       		.byte	1
 224 0001 93       		.byte	-109
 225 0002 0600     		.short	6
 226              		.section	.rodata._ZL20CFG_NMEA_SVNUMBERING,"a"
 227              		.align	2
 230              	_ZL20CFG_NMEA_SVNUMBERING:
 231 0000 02       		.byte	2
 232 0001 93       		.byte	-109
 233 0002 0700     		.short	7
 234              		.section	.rodata._ZL17CFG_NMEA_FILT_GPS,"a"
 235              		.align	2
 238              	_ZL17CFG_NMEA_FILT_GPS:
 239 0000 01       		.byte	1
 240 0001 93       		.byte	-109
 241 0002 1100     		.short	17
 242              		.section	.rodata._ZL18CFG_NMEA_FILT_SBAS,"a"
 243              		.align	2
 246              	_ZL18CFG_NMEA_FILT_SBAS:
 247 0000 01       		.byte	1
 248 0001 93       		.byte	-109
 249 0002 1200     		.short	18
 250              		.section	.rodata._ZL17CFG_NMEA_FILT_GAL,"a"
 251              		.align	2
 254              	_ZL17CFG_NMEA_FILT_GAL:
 255 0000 01       		.byte	1
 256 0001 93       		.byte	-109
 257 0002 1300     		.short	19
 258              		.section	.rodata._ZL18CFG_NMEA_FILT_QZSS,"a"
 259              		.align	2
 262              	_ZL18CFG_NMEA_FILT_QZSS:
 263 0000 01       		.byte	1
 264 0001 93       		.byte	-109
 265 0002 1500     		.short	21
 266              		.section	.rodata._ZL17CFG_NMEA_FILT_GLO,"a"
 267              		.align	2
 270              	_ZL17CFG_NMEA_FILT_GLO:
 271 0000 01       		.byte	1
 272 0001 93       		.byte	-109
 273 0002 1600     		.short	22
 274              		.section	.rodata._ZL17CFG_NMEA_FILT_BDS,"a"
 275              		.align	2
 278              	_ZL17CFG_NMEA_FILT_BDS:
 279 0000 01       		.byte	1
 280 0001 93       		.byte	-109
 281 0002 1700     		.short	23
 282              		.section	.rodata._ZL19CFG_NMEA_OUT_INVFIX,"a"
ARM GAS  /var/folders/bb/dhrb69655gd8t4nf464nxc_00000gn/T//ccX9z21m.s 			page 9


 283              		.align	2
 286              	_ZL19CFG_NMEA_OUT_INVFIX:
 287 0000 01       		.byte	1
 288 0001 93       		.byte	-109
 289 0002 2100     		.short	33
 290              		.section	.rodata._ZL19CFG_NMEA_OUT_MSKFIX,"a"
 291              		.align	2
 294              	_ZL19CFG_NMEA_OUT_MSKFIX:
 295 0000 01       		.byte	1
 296 0001 93       		.byte	-109
 297 0002 2200     		.short	34
 298              		.section	.rodata._ZL20CFG_NMEA_OUT_INVTIME,"a"
 299              		.align	2
 302              	_ZL20CFG_NMEA_OUT_INVTIME:
 303 0000 01       		.byte	1
 304 0001 93       		.byte	-109
 305 0002 2300     		.short	35
 306              		.section	.rodata._ZL20CFG_NMEA_OUT_INVDATE,"a"
 307              		.align	2
 310              	_ZL20CFG_NMEA_OUT_INVDATE:
 311 0000 01       		.byte	1
 312 0001 93       		.byte	-109
 313 0002 2400     		.short	36
 314              		.section	.rodata._ZL20CFG_NMEA_OUT_ONLYGPS,"a"
 315              		.align	2
 318              	_ZL20CFG_NMEA_OUT_ONLYGPS:
 319 0000 01       		.byte	1
 320 0001 93       		.byte	-109
 321 0002 2500     		.short	37
 322              		.section	.rodata._ZL22CFG_NMEA_OUT_FROZENCOG,"a"
 323              		.align	2
 326              	_ZL22CFG_NMEA_OUT_FROZENCOG:
 327 0000 01       		.byte	1
 328 0001 93       		.byte	-109
 329 0002 2600     		.short	38
 330              		.section	.rodata._ZL21CFG_NMEA_MAINTALKERID,"a"
 331              		.align	2
 334              	_ZL21CFG_NMEA_MAINTALKERID:
 335 0000 02       		.byte	2
 336 0001 93       		.byte	-109
 337 0002 3100     		.short	49
 338              		.section	.rodata._ZL20CFG_NMEA_GSVTALKERID,"a"
 339              		.align	2
 342              	_ZL20CFG_NMEA_GSVTALKERID:
 343 0000 02       		.byte	2
 344 0001 93       		.byte	-109
 345 0002 3200     		.short	50
 346              		.section	.rodata._ZL20CFG_NMEA_BDSTALKERID,"a"
 347              		.align	2
 350              	_ZL20CFG_NMEA_BDSTALKERID:
 351 0000 02       		.byte	2
 352 0001 93       		.byte	-109
 353 0002 3300     		.short	51
 354              		.section	.text._ZNK12StaticString5beginEv,"axG",%progbits,_ZNK12StaticString5beginEv,comdat
 355              		.align	1
 356              		.weak	_ZNK12StaticString5beginEv
 357              		.syntax unified
ARM GAS  /var/folders/bb/dhrb69655gd8t4nf464nxc_00000gn/T//ccX9z21m.s 			page 10


 358              		.thumb
 359              		.thumb_func
 361              	_ZNK12StaticString5beginEv:
 362              		.fnstart
 363              	.LFB1891:
 364              		.file 2 "Core/Inc/StaticString.hpp"
   1:Core/Inc/StaticString.hpp **** /**
   2:Core/Inc/StaticString.hpp ****   ******************************************************************************
   3:Core/Inc/StaticString.hpp ****   * @file			: StaticString.hpp
   4:Core/Inc/StaticString.hpp ****   * @brief			: Structure for Stack-Based Static String with Helper Functions
   5:Core/Inc/StaticString.hpp ****   * @author			: Lawrence Stanton
   6:Core/Inc/StaticString.hpp ****   ******************************************************************************
   7:Core/Inc/StaticString.hpp ****   * @attention
   8:Core/Inc/StaticString.hpp ****   *
   9:Core/Inc/StaticString.hpp ****   *  LD Stanton 2022
  10:Core/Inc/StaticString.hpp ****   * 
  11:Core/Inc/StaticString.hpp ****   * This file and its content are the copyright property of the author. All 
  12:Core/Inc/StaticString.hpp ****   * rights are reserved. No warranty is given. No liability is assumed.
  13:Core/Inc/StaticString.hpp ****   * Confidential unless licensed otherwise. If licensed, refer to the 
  14:Core/Inc/StaticString.hpp ****   * accompanying file "LICENCE" for license details.
  15:Core/Inc/StaticString.hpp ****   * 
  16:Core/Inc/StaticString.hpp ****   ******************************************************************************
  17:Core/Inc/StaticString.hpp ****   */
  18:Core/Inc/StaticString.hpp **** 
  19:Core/Inc/StaticString.hpp **** #pragma once
  20:Core/Inc/StaticString.hpp **** 
  21:Core/Inc/StaticString.hpp **** #include <stdint.h>
  22:Core/Inc/StaticString.hpp **** #include <string.h>
  23:Core/Inc/StaticString.hpp **** 
  24:Core/Inc/StaticString.hpp **** #include <algorithm>
  25:Core/Inc/StaticString.hpp **** 
  26:Core/Inc/StaticString.hpp **** class StaticString{
  27:Core/Inc/StaticString.hpp **** private:
  28:Core/Inc/StaticString.hpp **** 	const char * s;
  29:Core/Inc/StaticString.hpp **** 	size_t l;
  30:Core/Inc/StaticString.hpp **** 
  31:Core/Inc/StaticString.hpp **** 
  32:Core/Inc/StaticString.hpp **** public:
  33:Core/Inc/StaticString.hpp **** 	StaticString() : s(nullptr), l(0u){}
  34:Core/Inc/StaticString.hpp **** 
  35:Core/Inc/StaticString.hpp **** 	template<typename C>
  36:Core/Inc/StaticString.hpp **** 	StaticString(C * c_str, size_t len) : s(c_str), l(len){}
  37:Core/Inc/StaticString.hpp **** 
  38:Core/Inc/StaticString.hpp **** 	template<typename C>
  39:Core/Inc/StaticString.hpp **** 	StaticString(C * begin, C * end) : s((char *)begin), l(end-begin){}
  40:Core/Inc/StaticString.hpp **** 
  41:Core/Inc/StaticString.hpp **** 	StaticString(const char * c_str) : s(c_str), l(strlen(c_str)){}
  42:Core/Inc/StaticString.hpp **** 	StaticString(const StaticString &) = default;
  43:Core/Inc/StaticString.hpp **** 	
  44:Core/Inc/StaticString.hpp **** 	inline size_t size() const { return l; }
  45:Core/Inc/StaticString.hpp **** 	inline size_t length() const { return size(); }
  46:Core/Inc/StaticString.hpp **** 	inline const char * begin() const { return s; }
 365              		.loc 2 46 22
 366              		.cfi_startproc
 367              		@ args = 0, pretend = 0, frame = 8
 368              		@ frame_needed = 1, uses_anonymous_args = 0
 369              		@ link register save eliminated.
ARM GAS  /var/folders/bb/dhrb69655gd8t4nf464nxc_00000gn/T//ccX9z21m.s 			page 11


 370 0000 80B4     		push	{r7}
 371              		.cfi_def_cfa_offset 4
 372              		.cfi_offset 7, -4
 373 0002 83B0     		sub	sp, sp, #12
 374              		.cfi_def_cfa_offset 16
 375 0004 00AF     		add	r7, sp, #0
 376              		.cfi_def_cfa_register 7
 377 0006 7860     		str	r0, [r7, #4]
 378              		.loc 2 46 45
 379 0008 7B68     		ldr	r3, [r7, #4]
 380 000a 1B68     		ldr	r3, [r3]
 381              		.loc 2 46 48
 382 000c 1846     		mov	r0, r3
 383 000e 0C37     		adds	r7, r7, #12
 384              		.cfi_def_cfa_offset 4
 385 0010 BD46     		mov	sp, r7
 386              		.cfi_def_cfa_register 13
 387              		@ sp needed
 388 0012 5DF8047B 		ldr	r7, [sp], #4
 389              		.cfi_restore 7
 390              		.cfi_def_cfa_offset 0
 391 0016 7047     		bx	lr
 392              		.cfi_endproc
 393              	.LFE1891:
 394              		.cantunwind
 395              		.fnend
 397              		.section	.text._ZNK12StaticString3endEv,"axG",%progbits,_ZNK12StaticString3endEv,comdat
 398              		.align	1
 399              		.weak	_ZNK12StaticString3endEv
 400              		.syntax unified
 401              		.thumb
 402              		.thumb_func
 404              	_ZNK12StaticString3endEv:
 405              		.fnstart
 406              	.LFB1892:
  47:Core/Inc/StaticString.hpp **** 	inline const char * end() const { return s + l; }
 407              		.loc 2 47 22
 408              		.cfi_startproc
 409              		@ args = 0, pretend = 0, frame = 8
 410              		@ frame_needed = 1, uses_anonymous_args = 0
 411              		@ link register save eliminated.
 412 0000 80B4     		push	{r7}
 413              		.cfi_def_cfa_offset 4
 414              		.cfi_offset 7, -4
 415 0002 83B0     		sub	sp, sp, #12
 416              		.cfi_def_cfa_offset 16
 417 0004 00AF     		add	r7, sp, #0
 418              		.cfi_def_cfa_register 7
 419 0006 7860     		str	r0, [r7, #4]
 420              		.loc 2 47 43
 421 0008 7B68     		ldr	r3, [r7, #4]
 422 000a 1A68     		ldr	r2, [r3]
 423              		.loc 2 47 47
 424 000c 7B68     		ldr	r3, [r7, #4]
 425 000e 5B68     		ldr	r3, [r3, #4]
 426 0010 1344     		add	r3, r3, r2
 427              		.loc 2 47 50
ARM GAS  /var/folders/bb/dhrb69655gd8t4nf464nxc_00000gn/T//ccX9z21m.s 			page 12


 428 0012 1846     		mov	r0, r3
 429 0014 0C37     		adds	r7, r7, #12
 430              		.cfi_def_cfa_offset 4
 431 0016 BD46     		mov	sp, r7
 432              		.cfi_def_cfa_register 13
 433              		@ sp needed
 434 0018 5DF8047B 		ldr	r7, [sp], #4
 435              		.cfi_restore 7
 436              		.cfi_def_cfa_offset 0
 437 001c 7047     		bx	lr
 438              		.cfi_endproc
 439              	.LFE1892:
 440              		.cantunwind
 441              		.fnend
 443              		.section	.text._ZN13NMEA_StandardD2Ev,"axG",%progbits,_ZN13NMEA_StandardD5Ev,comdat
 444              		.align	1
 445              		.weak	_ZN13NMEA_StandardD2Ev
 446              		.syntax unified
 447              		.thumb
 448              		.thumb_func
 450              	_ZN13NMEA_StandardD2Ev:
 451              		.fnstart
 452              	.LFB1909:
 453              		.file 3 "Core/Inc/NMEA_Standard.hpp"
   1:Core/Inc/NMEA_Standard.hpp **** /**
   2:Core/Inc/NMEA_Standard.hpp ****   ******************************************************************************
   3:Core/Inc/NMEA_Standard.hpp ****   * @file           : NMEA.hpp
   4:Core/Inc/NMEA_Standard.hpp ****   * @brief          : NMEA Protocol Standard Driver
   5:Core/Inc/NMEA_Standard.hpp ****   * @author			: Lawrence Stanton
   6:Core/Inc/NMEA_Standard.hpp ****   ******************************************************************************
   7:Core/Inc/NMEA_Standard.hpp ****   * @attention
   8:Core/Inc/NMEA_Standard.hpp ****   *
   9:Core/Inc/NMEA_Standard.hpp ****   *  LD Stanton 2022
  10:Core/Inc/NMEA_Standard.hpp ****   * 
  11:Core/Inc/NMEA_Standard.hpp ****   * This file and its content are the copyright property of the author. All 
  12:Core/Inc/NMEA_Standard.hpp ****   * rights are reserved. No warranty is given. No liability is assumed.
  13:Core/Inc/NMEA_Standard.hpp ****   * Confidential unless licensed otherwise. If licensed, refer to the 
  14:Core/Inc/NMEA_Standard.hpp ****   * accompanying file "LICENCE" for license details.
  15:Core/Inc/NMEA_Standard.hpp ****   * 
  16:Core/Inc/NMEA_Standard.hpp ****   ******************************************************************************
  17:Core/Inc/NMEA_Standard.hpp ****   */
  18:Core/Inc/NMEA_Standard.hpp **** 
  19:Core/Inc/NMEA_Standard.hpp **** #pragma once
  20:Core/Inc/NMEA_Standard.hpp **** 
  21:Core/Inc/NMEA_Standard.hpp **** #include <array>
  22:Core/Inc/NMEA_Standard.hpp **** #include <stdint.h>
  23:Core/Inc/NMEA_Standard.hpp **** 
  24:Core/Inc/NMEA_Standard.hpp **** #include "StaticString.hpp"
  25:Core/Inc/NMEA_Standard.hpp **** 
  26:Core/Inc/NMEA_Standard.hpp **** using string = StaticString;
  27:Core/Inc/NMEA_Standard.hpp **** 
  28:Core/Inc/NMEA_Standard.hpp **** class NMEA_Standard{
  29:Core/Inc/NMEA_Standard.hpp **** protected:
  30:Core/Inc/NMEA_Standard.hpp **** 	struct Address;
  31:Core/Inc/NMEA_Standard.hpp **** 	struct Checksum;
  32:Core/Inc/NMEA_Standard.hpp **** 
  33:Core/Inc/NMEA_Standard.hpp **** public:
ARM GAS  /var/folders/bb/dhrb69655gd8t4nf464nxc_00000gn/T//ccX9z21m.s 			page 13


  34:Core/Inc/NMEA_Standard.hpp **** 	enum class TalkerID;
  35:Core/Inc/NMEA_Standard.hpp **** 	enum class Message;
  36:Core/Inc/NMEA_Standard.hpp **** 
  37:Core/Inc/NMEA_Standard.hpp **** 	class DTM;
  38:Core/Inc/NMEA_Standard.hpp **** 	class GBS;
  39:Core/Inc/NMEA_Standard.hpp **** 	class GGA;
  40:Core/Inc/NMEA_Standard.hpp **** 	class GLL;
  41:Core/Inc/NMEA_Standard.hpp **** 	class GNS;
  42:Core/Inc/NMEA_Standard.hpp **** 	class GRS;
  43:Core/Inc/NMEA_Standard.hpp **** 	class GSA;
  44:Core/Inc/NMEA_Standard.hpp **** 	class GST;
  45:Core/Inc/NMEA_Standard.hpp **** 	class GSV;
  46:Core/Inc/NMEA_Standard.hpp **** 	class RLM;
  47:Core/Inc/NMEA_Standard.hpp **** 	class RMC;
  48:Core/Inc/NMEA_Standard.hpp **** 	class TXT;
  49:Core/Inc/NMEA_Standard.hpp **** 	class VLW;
  50:Core/Inc/NMEA_Standard.hpp **** 	class VTG;
  51:Core/Inc/NMEA_Standard.hpp **** 	class ZDA;
  52:Core/Inc/NMEA_Standard.hpp **** 
  53:Core/Inc/NMEA_Standard.hpp **** 	class BAD;	// NOT a real NMEA object. Returned by factory when an invalid NMEA sentence is passed.
  54:Core/Inc/NMEA_Standard.hpp **** 	
  55:Core/Inc/NMEA_Standard.hpp **** 	virtual ~NMEA_Standard() = default;
 454              		.loc 3 55 10
 455              		.cfi_startproc
 456              		@ args = 0, pretend = 0, frame = 8
 457              		@ frame_needed = 1, uses_anonymous_args = 0
 458              		@ link register save eliminated.
 459 0000 80B4     		push	{r7}
 460              		.cfi_def_cfa_offset 4
 461              		.cfi_offset 7, -4
 462 0002 83B0     		sub	sp, sp, #12
 463              		.cfi_def_cfa_offset 16
 464 0004 00AF     		add	r7, sp, #0
 465              		.cfi_def_cfa_register 7
 466 0006 7860     		str	r0, [r7, #4]
 467              	.LBB2:
 468              		.loc 3 55 10
 469 0008 044A     		ldr	r2, .L9
 470 000a 7B68     		ldr	r3, [r7, #4]
 471 000c 1A60     		str	r2, [r3]
 472              	.LBE2:
 473 000e 7B68     		ldr	r3, [r7, #4]
 474 0010 1846     		mov	r0, r3
 475 0012 0C37     		adds	r7, r7, #12
 476              		.cfi_def_cfa_offset 4
 477 0014 BD46     		mov	sp, r7
 478              		.cfi_def_cfa_register 13
 479              		@ sp needed
 480 0016 5DF8047B 		ldr	r7, [sp], #4
 481              		.cfi_restore 7
 482              		.cfi_def_cfa_offset 0
 483 001a 7047     		bx	lr
 484              	.L10:
 485              		.align	2
 486              	.L9:
 487 001c 08000000 		.word	_ZTV13NMEA_Standard+8
 488              		.cfi_endproc
ARM GAS  /var/folders/bb/dhrb69655gd8t4nf464nxc_00000gn/T//ccX9z21m.s 			page 14


 489              	.LFE1909:
 490              		.cantunwind
 491              		.fnend
 493              		.weak	_ZN13NMEA_StandardD1Ev
 494              		.thumb_set _ZN13NMEA_StandardD1Ev,_ZN13NMEA_StandardD2Ev
 495              		.section	.text._ZN13NMEA_StandardD0Ev,"axG",%progbits,_ZN13NMEA_StandardD5Ev,comdat
 496              		.align	1
 497              		.weak	_ZN13NMEA_StandardD0Ev
 498              		.syntax unified
 499              		.thumb
 500              		.thumb_func
 502              	_ZN13NMEA_StandardD0Ev:
 503              		.fnstart
 504              	.LFB1911:
 505              		.loc 3 55 10
 506              		.cfi_startproc
 507              		@ args = 0, pretend = 0, frame = 8
 508              		@ frame_needed = 1, uses_anonymous_args = 0
 509 0000 80B5     		push	{r7, lr}
 510              		.cfi_def_cfa_offset 8
 511              		.cfi_offset 7, -8
 512              		.cfi_offset 14, -4
 513 0002 82B0     		sub	sp, sp, #8
 514              		.cfi_def_cfa_offset 16
 515 0004 00AF     		add	r7, sp, #0
 516              		.cfi_def_cfa_register 7
 517 0006 7860     		str	r0, [r7, #4]
 518              		.loc 3 55 10
 519 0008 7868     		ldr	r0, [r7, #4]
 520 000a FFF7FEFF 		bl	_ZN13NMEA_StandardD1Ev
 521 000e 1021     		movs	r1, #16
 522 0010 7868     		ldr	r0, [r7, #4]
 523 0012 FFF7FEFF 		bl	_ZdlPvj
 524 0016 7B68     		ldr	r3, [r7, #4]
 525 0018 1846     		mov	r0, r3
 526 001a 0837     		adds	r7, r7, #8
 527              		.cfi_def_cfa_offset 8
 528 001c BD46     		mov	sp, r7
 529              		.cfi_def_cfa_register 13
 530              		@ sp needed
 531 001e 80BD     		pop	{r7, pc}
 532              		.cfi_endproc
 533              	.LFE1911:
 534              		.cantunwind
 535              		.fnend
 537              		.section	.text._ZN8M9N_Base8transmitERK12StaticString,"axG",%progbits,_ZN8M9N_Base8transmitERK12St
 538              		.align	1
 539              		.weak	_ZN8M9N_Base8transmitERK12StaticString
 540              		.syntax unified
 541              		.thumb
 542              		.thumb_func
 544              	_ZN8M9N_Base8transmitERK12StaticString:
 545              		.fnstart
 546              	.LFB1915:
 547              		.file 4 "Core/Inc/M9N_Base.hpp"
   1:Core/Inc/M9N_Base.hpp **** /**
   2:Core/Inc/M9N_Base.hpp ****   ******************************************************************************
ARM GAS  /var/folders/bb/dhrb69655gd8t4nf464nxc_00000gn/T//ccX9z21m.s 			page 15


   3:Core/Inc/M9N_Base.hpp ****   * @file           : M9N.hpp
   4:Core/Inc/M9N_Base.hpp ****   * @brief          : Header file for uBlox M9N Base Driver.
   5:Core/Inc/M9N_Base.hpp ****   * @author			: Lawrence Stanton
   6:Core/Inc/M9N_Base.hpp ****   ******************************************************************************
   7:Core/Inc/M9N_Base.hpp ****   * @attention
   8:Core/Inc/M9N_Base.hpp ****   *
   9:Core/Inc/M9N_Base.hpp ****   *  LD Stanton 2022
  10:Core/Inc/M9N_Base.hpp ****   * 
  11:Core/Inc/M9N_Base.hpp ****   * This file and its content are the copyright property of the author. All 
  12:Core/Inc/M9N_Base.hpp ****   * rights are reserved. No warranty is given. No liability is assumed.
  13:Core/Inc/M9N_Base.hpp ****   * Confidential unless licensed otherwise. If licensed, refer to the 
  14:Core/Inc/M9N_Base.hpp ****   * accompanying file "LICENCE" for license details.
  15:Core/Inc/M9N_Base.hpp ****   * 
  16:Core/Inc/M9N_Base.hpp ****   ******************************************************************************
  17:Core/Inc/M9N_Base.hpp ****   */
  18:Core/Inc/M9N_Base.hpp **** 
  19:Core/Inc/M9N_Base.hpp **** #pragma once
  20:Core/Inc/M9N_Base.hpp **** 
  21:Core/Inc/M9N_Base.hpp **** #include <stdio.h>
  22:Core/Inc/M9N_Base.hpp **** #include <string>
  23:Core/Inc/M9N_Base.hpp **** #include <vector>
  24:Core/Inc/M9N_Base.hpp **** 
  25:Core/Inc/M9N_Base.hpp **** #include "UBX.hpp"
  26:Core/Inc/M9N_Base.hpp **** #include "NMEA_Standard.hpp"
  27:Core/Inc/M9N_Base.hpp **** #include "StaticString.hpp"
  28:Core/Inc/M9N_Base.hpp **** 
  29:Core/Inc/M9N_Base.hpp **** 
  30:Core/Inc/M9N_Base.hpp **** class M9N_Base{
  31:Core/Inc/M9N_Base.hpp **** public:
  32:Core/Inc/M9N_Base.hpp **** 
  33:Core/Inc/M9N_Base.hpp **** 	enum class PortID : uint8_t{
  34:Core/Inc/M9N_Base.hpp **** 		UART1 = 1u,	// UART Interface
  35:Core/Inc/M9N_Base.hpp **** 		USB = 3u	// Serial USB Interface
  36:Core/Inc/M9N_Base.hpp **** 	};
  37:Core/Inc/M9N_Base.hpp **** 	
  38:Core/Inc/M9N_Base.hpp **** 	enum class InProto : uint16_t{
  39:Core/Inc/M9N_Base.hpp **** 		UBX   = 0x0001u,
  40:Core/Inc/M9N_Base.hpp **** 		NMEA  = 0x0002u,
  41:Core/Inc/M9N_Base.hpp **** 		RTCM  = 0x0004u,
  42:Core/Inc/M9N_Base.hpp **** 		RTCM3 = 0x0020u,
  43:Core/Inc/M9N_Base.hpp **** 		ALL   = 0x0027u
  44:Core/Inc/M9N_Base.hpp **** 	};
  45:Core/Inc/M9N_Base.hpp **** 
  46:Core/Inc/M9N_Base.hpp **** 	enum class OutProto : uint16_t{
  47:Core/Inc/M9N_Base.hpp **** 		UBX   = 0x0001u,
  48:Core/Inc/M9N_Base.hpp **** 		NMEA  = 0x0002u
  49:Core/Inc/M9N_Base.hpp **** 	};
  50:Core/Inc/M9N_Base.hpp **** 
  51:Core/Inc/M9N_Base.hpp **** 	enum class Baud : uint32_t{
  52:Core/Inc/M9N_Base.hpp **** 		B9600 = 9600u,
  53:Core/Inc/M9N_Base.hpp **** 		B19200 = 19200u,
  54:Core/Inc/M9N_Base.hpp **** 		B38400 = 38400u,
  55:Core/Inc/M9N_Base.hpp **** 		B115200 = 115200u,
  56:Core/Inc/M9N_Base.hpp **** 		B230400 = 230400u,
  57:Core/Inc/M9N_Base.hpp **** 		B460800 = 460800u,
  58:Core/Inc/M9N_Base.hpp **** 		B921600 = 921600u
  59:Core/Inc/M9N_Base.hpp **** 	};
ARM GAS  /var/folders/bb/dhrb69655gd8t4nf464nxc_00000gn/T//ccX9z21m.s 			page 16


  60:Core/Inc/M9N_Base.hpp **** 
  61:Core/Inc/M9N_Base.hpp **** 	enum class MessageType{
  62:Core/Inc/M9N_Base.hpp **** 		NMEA,
  63:Core/Inc/M9N_Base.hpp **** 		UBX,
  64:Core/Inc/M9N_Base.hpp **** 		RTCM
  65:Core/Inc/M9N_Base.hpp **** 	};
  66:Core/Inc/M9N_Base.hpp **** 
  67:Core/Inc/M9N_Base.hpp **** 	class NMEA_PUBX : public NMEA_Standard{
  68:Core/Inc/M9N_Base.hpp **** 	public:
  69:Core/Inc/M9N_Base.hpp **** 		class Config;
  70:Core/Inc/M9N_Base.hpp **** 		class Position;
  71:Core/Inc/M9N_Base.hpp **** 		class Rate;
  72:Core/Inc/M9N_Base.hpp **** 		class SvStatus;
  73:Core/Inc/M9N_Base.hpp **** 		class Time;
  74:Core/Inc/M9N_Base.hpp **** 
  75:Core/Inc/M9N_Base.hpp **** 		enum class Message;
  76:Core/Inc/M9N_Base.hpp **** 
  77:Core/Inc/M9N_Base.hpp **** 		static Message getMessage(const StaticString & s);
  78:Core/Inc/M9N_Base.hpp **** 
  79:Core/Inc/M9N_Base.hpp **** 	private:
  80:Core/Inc/M9N_Base.hpp **** 		class PUBX;
  81:Core/Inc/M9N_Base.hpp **** 
  82:Core/Inc/M9N_Base.hpp **** 		static string toString(const Message msg);
  83:Core/Inc/M9N_Base.hpp **** 	};
  84:Core/Inc/M9N_Base.hpp **** 
  85:Core/Inc/M9N_Base.hpp **** 	/* NMEA Protocol API */
  86:Core/Inc/M9N_Base.hpp **** 	using NMEA = NMEA_PUBX;
  87:Core/Inc/M9N_Base.hpp **** 	void setConfig(NMEA::Config cfg);
  88:Core/Inc/M9N_Base.hpp **** 
  89:Core/Inc/M9N_Base.hpp **** 	void setRate(NMEA::Rate rate);
  90:Core/Inc/M9N_Base.hpp **** 	void silenceDefaultRates();
  91:Core/Inc/M9N_Base.hpp **** 
  92:Core/Inc/M9N_Base.hpp **** 	/* UBX Protocol API */
  93:Core/Inc/M9N_Base.hpp **** 	void poll(UBX::POLL_REQ & pr);
  94:Core/Inc/M9N_Base.hpp **** 
  95:Core/Inc/M9N_Base.hpp **** protected:
  96:Core/Inc/M9N_Base.hpp **** 	Baud baud {Baud::B38400};	// Assumed MCU Baudrate initialised to 38400.
  97:Core/Inc/M9N_Base.hpp **** 
  98:Core/Inc/M9N_Base.hpp **** public:
  99:Core/Inc/M9N_Base.hpp **** 	/*************************************************************************************************
 100:Core/Inc/M9N_Base.hpp **** 										/* Application Specific Communication and Control Interface */
 101:Core/Inc/M9N_Base.hpp **** 	/* This class must be extended to implement the following methods based on the device-specific per
 102:Core/Inc/M9N_Base.hpp **** 	
 103:Core/Inc/M9N_Base.hpp **** 	/**
 104:Core/Inc/M9N_Base.hpp **** 	 * @brief Transmit a vector of byte-sized values on the selected communication interface.
 105:Core/Inc/M9N_Base.hpp **** 	 * 
 106:Core/Inc/M9N_Base.hpp **** 	 * @param msg
 107:Core/Inc/M9N_Base.hpp **** 	 * 
 108:Core/Inc/M9N_Base.hpp **** 	 * @note The transmission may occur in non-blocking mode but should send messages in the sequence 
 109:Core/Inc/M9N_Base.hpp **** 	 */
 110:Core/Inc/M9N_Base.hpp **** 	virtual void transmit(const uint8_t * first, const uint8_t * last) = 0;
 111:Core/Inc/M9N_Base.hpp **** 	
 112:Core/Inc/M9N_Base.hpp **** 	/**
 113:Core/Inc/M9N_Base.hpp **** 	 * @brief Delay the program execution.
 114:Core/Inc/M9N_Base.hpp **** 	 * 
 115:Core/Inc/M9N_Base.hpp **** 	 * @param delay	Delay in milliseconds.
 116:Core/Inc/M9N_Base.hpp **** 	 * 
ARM GAS  /var/folders/bb/dhrb69655gd8t4nf464nxc_00000gn/T//ccX9z21m.s 			page 17


 117:Core/Inc/M9N_Base.hpp **** 	 * @note The delay need not be precise but should delay by at least the the passed amount of time.
 118:Core/Inc/M9N_Base.hpp **** 	 */
 119:Core/Inc/M9N_Base.hpp **** 	virtual void delay(uint32_t delay) = 0;
 120:Core/Inc/M9N_Base.hpp **** 
 121:Core/Inc/M9N_Base.hpp **** 	/**
 122:Core/Inc/M9N_Base.hpp **** 	 * @brief Set the baudrate of the relevant communication peripheral device.
 123:Core/Inc/M9N_Base.hpp **** 	 * 
 124:Core/Inc/M9N_Base.hpp **** 	 * @param baud		The baudrate to set in bits per second.
 125:Core/Inc/M9N_Base.hpp **** 	 * @param portId	The Port the baudrate change should occur upon.
 126:Core/Inc/M9N_Base.hpp **** 	 * 
 127:Core/Inc/M9N_Base.hpp **** 	 * @note This method will not be called at startup. The peripheral communication interface should 
 128:Core/Inc/M9N_Base.hpp **** 	 * 		 the M9N's default baudrate to begin communication.
 129:Core/Inc/M9N_Base.hpp **** 	 */
 130:Core/Inc/M9N_Base.hpp **** 	virtual void setBaudrate(Baud baud = Baud::B38400, PortID portId = PortID::UART1) = 0;
 131:Core/Inc/M9N_Base.hpp **** 	/*************************************************************************************************
 132:Core/Inc/M9N_Base.hpp **** public:
 133:Core/Inc/M9N_Base.hpp **** 	void transmit(const StaticString & str){ transmit((uint8_t *)str.begin(), (uint8_t *)str.end()); }
 548              		.loc 4 133 7
 549              		.cfi_startproc
 550              		@ args = 0, pretend = 0, frame = 8
 551              		@ frame_needed = 1, uses_anonymous_args = 0
 552 0000 B0B5     		push	{r4, r5, r7, lr}
 553              		.save {r4, r5, r7, lr}
 554              		.cfi_def_cfa_offset 16
 555              		.cfi_offset 4, -16
 556              		.cfi_offset 5, -12
 557              		.cfi_offset 7, -8
 558              		.cfi_offset 14, -4
 559              		.pad #8
 560 0002 82B0     		sub	sp, sp, #8
 561              		.cfi_def_cfa_offset 24
 562              		.setfp r7, sp, #0
 563 0004 00AF     		add	r7, sp, #0
 564              		.cfi_def_cfa_register 7
 565 0006 7860     		str	r0, [r7, #4]
 566 0008 3960     		str	r1, [r7]
 567              		.loc 4 133 96
 568 000a 7B68     		ldr	r3, [r7, #4]
 569 000c 1B68     		ldr	r3, [r3]
 570 000e 1C68     		ldr	r4, [r3]
 571              		.loc 4 133 72
 572 0010 3868     		ldr	r0, [r7]
 573 0012 FFF7FEFF 		bl	_ZNK12StaticString5beginEv
 574 0016 0546     		mov	r5, r0
 575              		.loc 4 133 94
 576 0018 3868     		ldr	r0, [r7]
 577 001a FFF7FEFF 		bl	_ZNK12StaticString3endEv
 578 001e 0346     		mov	r3, r0
 579              		.loc 4 133 51
 580 0020 1A46     		mov	r2, r3
 581 0022 2946     		mov	r1, r5
 582 0024 7868     		ldr	r0, [r7, #4]
 583 0026 A047     		blx	r4
 584              	.LVL0:
 585              		.loc 4 133 99
 586 0028 00BF     		nop
 587 002a 0837     		adds	r7, r7, #8
ARM GAS  /var/folders/bb/dhrb69655gd8t4nf464nxc_00000gn/T//ccX9z21m.s 			page 18


 588              		.cfi_def_cfa_offset 16
 589 002c BD46     		mov	sp, r7
 590              		.cfi_def_cfa_register 13
 591              		@ sp needed
 592 002e B0BD     		pop	{r4, r5, r7, pc}
 593              		.cfi_endproc
 594              	.LFE1915:
 595              		.fnend
 597              		.section	.text._ZN8M9N_Base7setRateENS_9NMEA_PUBX4RateE,"ax",%progbits
 598              		.align	1
 599              		.global	_ZN8M9N_Base7setRateENS_9NMEA_PUBX4RateE
 600              		.syntax unified
 601              		.thumb
 602              		.thumb_func
 604              	_ZN8M9N_Base7setRateENS_9NMEA_PUBX4RateE:
 605              		.fnstart
 606              	.LFB1916:
 607              		.file 5 "Core/Src/M9N_Base.cpp"
   1:Core/Src/M9N_Base.cpp **** /**
   2:Core/Src/M9N_Base.cpp ****   ******************************************************************************
   3:Core/Src/M9N_Base.cpp ****   * @file           : M9N_Base.cpp
   4:Core/Src/M9N_Base.cpp ****   * @brief          : Source M9N_Base.hpp
   5:Core/Src/M9N_Base.cpp ****   * @author			: Lawrence Stanton
   6:Core/Src/M9N_Base.cpp ****   ******************************************************************************
   7:Core/Src/M9N_Base.cpp ****   * @attention
   8:Core/Src/M9N_Base.cpp ****   *
   9:Core/Src/M9N_Base.cpp ****   *  LD Stanton 2022
  10:Core/Src/M9N_Base.cpp ****   * 
  11:Core/Src/M9N_Base.cpp ****   * This file and its content are the copyright property of the author. All 
  12:Core/Src/M9N_Base.cpp ****   * rights are reserved. No warranty is given. No liability is assumed.
  13:Core/Src/M9N_Base.cpp ****   * Confidential unless licensed otherwise. If licensed, refer to the 
  14:Core/Src/M9N_Base.cpp ****   * accompanying file "LICENCE" for license details.
  15:Core/Src/M9N_Base.cpp ****   * 
  16:Core/Src/M9N_Base.cpp ****   ******************************************************************************
  17:Core/Src/M9N_Base.cpp ****   */
  18:Core/Src/M9N_Base.cpp **** 
  19:Core/Src/M9N_Base.cpp **** 
  20:Core/Src/M9N_Base.cpp **** #include "M9N_Base.hpp"
  21:Core/Src/M9N_Base.cpp **** 
  22:Core/Src/M9N_Base.cpp **** void M9N_Base::setRate(NMEA_PUBX::Rate rate){
 608              		.loc 5 22 45
 609              		.cfi_startproc
 610              		@ args = 0, pretend = 0, frame = 48
 611              		@ frame_needed = 1, uses_anonymous_args = 0
 612 0000 80B5     		push	{r7, lr}
 613              		.save {r7, lr}
 614              		.cfi_def_cfa_offset 8
 615              		.cfi_offset 7, -8
 616              		.cfi_offset 14, -4
 617              		.pad #48
 618 0002 8CB0     		sub	sp, sp, #48
 619              		.cfi_def_cfa_offset 56
 620              		.setfp r7, sp, #0
 621 0004 00AF     		add	r7, sp, #0
 622              		.cfi_def_cfa_register 7
 623 0006 7860     		str	r0, [r7, #4]
 624 0008 3960     		str	r1, [r7]
ARM GAS  /var/folders/bb/dhrb69655gd8t4nf464nxc_00000gn/T//ccX9z21m.s 			page 19


  23:Core/Src/M9N_Base.cpp **** 	char buff[30];
  24:Core/Src/M9N_Base.cpp **** 	transmit(rate.toString(buff));
 625              		.loc 5 24 29
 626 000a 07F12803 		add	r3, r7, #40
 627 000e 07F10802 		add	r2, r7, #8
 628 0012 3968     		ldr	r1, [r7]
 629 0014 1846     		mov	r0, r3
 630 0016 FFF7FEFF 		bl	_ZN8M9N_Base9NMEA_PUBX4Rate8toStringEPc
 631              		.loc 5 24 10
 632 001a 07F12803 		add	r3, r7, #40
 633 001e 1946     		mov	r1, r3
 634 0020 7868     		ldr	r0, [r7, #4]
 635 0022 FFF7FEFF 		bl	_ZN8M9N_Base8transmitERK12StaticString
  25:Core/Src/M9N_Base.cpp **** }
 636              		.loc 5 25 1
 637 0026 00BF     		nop
 638 0028 3037     		adds	r7, r7, #48
 639              		.cfi_def_cfa_offset 8
 640 002a BD46     		mov	sp, r7
 641              		.cfi_def_cfa_register 13
 642              		@ sp needed
 643 002c 80BD     		pop	{r7, pc}
 644              		.cfi_endproc
 645              	.LFE1916:
 646              		.fnend
 648              		.section	.text._ZN8M9N_Base9setConfigENS_9NMEA_PUBX6ConfigE,"ax",%progbits
 649              		.align	1
 650              		.global	_ZN8M9N_Base9setConfigENS_9NMEA_PUBX6ConfigE
 651              		.syntax unified
 652              		.thumb
 653              		.thumb_func
 655              	_ZN8M9N_Base9setConfigENS_9NMEA_PUBX6ConfigE:
 656              		.fnstart
 657              	.LFB1917:
  26:Core/Src/M9N_Base.cpp **** 
  27:Core/Src/M9N_Base.cpp **** void M9N_Base::setConfig(NMEA_PUBX::Config cfg){
 658              		.loc 5 27 48
 659              		.cfi_startproc
 660              		@ args = 0, pretend = 0, frame = 56
 661              		@ frame_needed = 1, uses_anonymous_args = 0
 662 0000 80B5     		push	{r7, lr}
 663              		.save {r7, lr}
 664              		.cfi_def_cfa_offset 8
 665              		.cfi_offset 7, -8
 666              		.cfi_offset 14, -4
 667              		.pad #56
 668 0002 8EB0     		sub	sp, sp, #56
 669              		.cfi_def_cfa_offset 64
 670              		.setfp r7, sp, #0
 671 0004 00AF     		add	r7, sp, #0
 672              		.cfi_def_cfa_register 7
 673 0006 7860     		str	r0, [r7, #4]
 674 0008 3960     		str	r1, [r7]
  28:Core/Src/M9N_Base.cpp **** 	char buff[36];
  29:Core/Src/M9N_Base.cpp **** 	transmit(cfg.toString(buff));
 675              		.loc 5 29 28
 676 000a 07F13003 		add	r3, r7, #48
ARM GAS  /var/folders/bb/dhrb69655gd8t4nf464nxc_00000gn/T//ccX9z21m.s 			page 20


 677 000e 07F10C02 		add	r2, r7, #12
 678 0012 3968     		ldr	r1, [r7]
 679 0014 1846     		mov	r0, r3
 680 0016 FFF7FEFF 		bl	_ZN8M9N_Base9NMEA_PUBX6Config8toStringEPc
 681              		.loc 5 29 10
 682 001a 07F13003 		add	r3, r7, #48
 683 001e 1946     		mov	r1, r3
 684 0020 7868     		ldr	r0, [r7, #4]
 685 0022 FFF7FEFF 		bl	_ZN8M9N_Base8transmitERK12StaticString
  30:Core/Src/M9N_Base.cpp **** 
  31:Core/Src/M9N_Base.cpp **** 	if(cfg.baudrate != baud) setBaudrate(cfg.baudrate, cfg.portId);
 686              		.loc 5 31 9
 687 0026 3B68     		ldr	r3, [r7]
 688 0028 5A6A     		ldr	r2, [r3, #36]
 689              		.loc 5 31 21
 690 002a 7B68     		ldr	r3, [r7, #4]
 691 002c 5B68     		ldr	r3, [r3, #4]
 692              		.loc 5 31 2
 693 002e 9A42     		cmp	r2, r3
 694 0030 09D0     		beq	.L17
 695              		.loc 5 31 63 discriminator 1
 696 0032 7B68     		ldr	r3, [r7, #4]
 697 0034 1B68     		ldr	r3, [r3]
 698 0036 0833     		adds	r3, r3, #8
 699 0038 1B68     		ldr	r3, [r3]
 700              		.loc 5 31 38 discriminator 1
 701 003a 3A68     		ldr	r2, [r7]
 702 003c 516A     		ldr	r1, [r2, #36]
 703 003e 3A68     		ldr	r2, [r7]
 704 0040 127F     		ldrb	r2, [r2, #28]	@ zero_extendqisi2
 705 0042 7868     		ldr	r0, [r7, #4]
 706 0044 9847     		blx	r3
 707              	.LVL1:
 708              	.L17:
  32:Core/Src/M9N_Base.cpp **** }
 709              		.loc 5 32 1
 710 0046 00BF     		nop
 711 0048 3837     		adds	r7, r7, #56
 712              		.cfi_def_cfa_offset 8
 713 004a BD46     		mov	sp, r7
 714              		.cfi_def_cfa_register 13
 715              		@ sp needed
 716 004c 80BD     		pop	{r7, pc}
 717              		.cfi_endproc
 718              	.LFE1917:
 719              		.fnend
 721              		.section	.text._ZN8M9N_Base9NMEA_PUBXD2Ev,"axG",%progbits,_ZN8M9N_Base9NMEA_PUBXD5Ev,comdat
 722              		.align	1
 723              		.weak	_ZN8M9N_Base9NMEA_PUBXD2Ev
 724              		.syntax unified
 725              		.thumb
 726              		.thumb_func
 728              	_ZN8M9N_Base9NMEA_PUBXD2Ev:
 729              		.fnstart
 730              	.LFB1928:
  67:Core/Inc/M9N_Base.hpp **** 	public:
 731              		.loc 4 67 8
ARM GAS  /var/folders/bb/dhrb69655gd8t4nf464nxc_00000gn/T//ccX9z21m.s 			page 21


 732              		.cfi_startproc
 733              		@ args = 0, pretend = 0, frame = 8
 734              		@ frame_needed = 1, uses_anonymous_args = 0
 735 0000 80B5     		push	{r7, lr}
 736              		.cfi_def_cfa_offset 8
 737              		.cfi_offset 7, -8
 738              		.cfi_offset 14, -4
 739 0002 82B0     		sub	sp, sp, #8
 740              		.cfi_def_cfa_offset 16
 741 0004 00AF     		add	r7, sp, #0
 742              		.cfi_def_cfa_register 7
 743 0006 7860     		str	r0, [r7, #4]
 744              	.LBB3:
  67:Core/Inc/M9N_Base.hpp **** 	public:
 745              		.loc 4 67 8
 746 0008 054A     		ldr	r2, .L20
 747 000a 7B68     		ldr	r3, [r7, #4]
 748 000c 1A60     		str	r2, [r3]
 749 000e 7B68     		ldr	r3, [r7, #4]
 750 0010 1846     		mov	r0, r3
 751 0012 FFF7FEFF 		bl	_ZN13NMEA_StandardD2Ev
 752              	.LBE3:
 753 0016 7B68     		ldr	r3, [r7, #4]
 754 0018 1846     		mov	r0, r3
 755 001a 0837     		adds	r7, r7, #8
 756              		.cfi_def_cfa_offset 8
 757 001c BD46     		mov	sp, r7
 758              		.cfi_def_cfa_register 13
 759              		@ sp needed
 760 001e 80BD     		pop	{r7, pc}
 761              	.L21:
 762              		.align	2
 763              	.L20:
 764 0020 08000000 		.word	_ZTVN8M9N_Base9NMEA_PUBXE+8
 765              		.cfi_endproc
 766              	.LFE1928:
 767              		.cantunwind
 768              		.fnend
 770              		.weak	_ZN8M9N_Base9NMEA_PUBXD1Ev
 771              		.thumb_set _ZN8M9N_Base9NMEA_PUBXD1Ev,_ZN8M9N_Base9NMEA_PUBXD2Ev
 772              		.section	.text._ZN8M9N_Base9NMEA_PUBXD0Ev,"axG",%progbits,_ZN8M9N_Base9NMEA_PUBXD5Ev,comdat
 773              		.align	1
 774              		.weak	_ZN8M9N_Base9NMEA_PUBXD0Ev
 775              		.syntax unified
 776              		.thumb
 777              		.thumb_func
 779              	_ZN8M9N_Base9NMEA_PUBXD0Ev:
 780              		.fnstart
 781              	.LFB1930:
  67:Core/Inc/M9N_Base.hpp **** 	public:
 782              		.loc 4 67 8
 783              		.cfi_startproc
 784              		@ args = 0, pretend = 0, frame = 8
 785              		@ frame_needed = 1, uses_anonymous_args = 0
 786 0000 80B5     		push	{r7, lr}
 787              		.cfi_def_cfa_offset 8
 788              		.cfi_offset 7, -8
ARM GAS  /var/folders/bb/dhrb69655gd8t4nf464nxc_00000gn/T//ccX9z21m.s 			page 22


 789              		.cfi_offset 14, -4
 790 0002 82B0     		sub	sp, sp, #8
 791              		.cfi_def_cfa_offset 16
 792 0004 00AF     		add	r7, sp, #0
 793              		.cfi_def_cfa_register 7
 794 0006 7860     		str	r0, [r7, #4]
  67:Core/Inc/M9N_Base.hpp **** 	public:
 795              		.loc 4 67 8
 796 0008 7868     		ldr	r0, [r7, #4]
 797 000a FFF7FEFF 		bl	_ZN8M9N_Base9NMEA_PUBXD1Ev
 798 000e 1021     		movs	r1, #16
 799 0010 7868     		ldr	r0, [r7, #4]
 800 0012 FFF7FEFF 		bl	_ZdlPvj
 801 0016 7B68     		ldr	r3, [r7, #4]
 802 0018 1846     		mov	r0, r3
 803 001a 0837     		adds	r7, r7, #8
 804              		.cfi_def_cfa_offset 8
 805 001c BD46     		mov	sp, r7
 806              		.cfi_def_cfa_register 13
 807              		@ sp needed
 808 001e 80BD     		pop	{r7, pc}
 809              		.cfi_endproc
 810              	.LFE1930:
 811              		.cantunwind
 812              		.fnend
 814              		.section	.text._ZN8M9N_Base9NMEA_PUBX4PUBXD2Ev,"axG",%progbits,_ZN8M9N_Base9NMEA_PUBX4PUBXD5Ev,com
 815              		.align	1
 816              		.weak	_ZN8M9N_Base9NMEA_PUBX4PUBXD2Ev
 817              		.syntax unified
 818              		.thumb
 819              		.thumb_func
 821              	_ZN8M9N_Base9NMEA_PUBX4PUBXD2Ev:
 822              		.fnstart
 823              	.LFB1934:
 824              		.file 6 "Core/Inc/NMEA_PUBX.hpp"
   1:Core/Inc/NMEA_PUBX.hpp **** /**
   2:Core/Inc/NMEA_PUBX.hpp ****   ******************************************************************************
   3:Core/Inc/NMEA_PUBX.hpp ****   * @file			: NMEA_PUBX.hpp
   4:Core/Inc/NMEA_PUBX.hpp ****   * @brief			: uBlox NMEA PUBX Protocol Extension
   5:Core/Inc/NMEA_PUBX.hpp ****   * @author			: Lawrence Stanton
   6:Core/Inc/NMEA_PUBX.hpp ****   ******************************************************************************
   7:Core/Inc/NMEA_PUBX.hpp ****   * @attention
   8:Core/Inc/NMEA_PUBX.hpp ****   *
   9:Core/Inc/NMEA_PUBX.hpp ****   *  LD Stanton 2022
  10:Core/Inc/NMEA_PUBX.hpp ****   * 
  11:Core/Inc/NMEA_PUBX.hpp ****   * This file and its content are the copyright property of the author. All 
  12:Core/Inc/NMEA_PUBX.hpp ****   * rights are reserved. No warranty is given. No liability is assumed.
  13:Core/Inc/NMEA_PUBX.hpp ****   * Confidential unless licensed otherwise. If licensed, refer to the 
  14:Core/Inc/NMEA_PUBX.hpp ****   * accompanying file "LICENCE" for license details.
  15:Core/Inc/NMEA_PUBX.hpp ****   * 
  16:Core/Inc/NMEA_PUBX.hpp ****   ******************************************************************************
  17:Core/Inc/NMEA_PUBX.hpp ****   */
  18:Core/Inc/NMEA_PUBX.hpp **** 
  19:Core/Inc/NMEA_PUBX.hpp **** #pragma once
  20:Core/Inc/NMEA_PUBX.hpp **** 
  21:Core/Inc/NMEA_PUBX.hpp **** #include "M9N_Base.hpp"
  22:Core/Inc/NMEA_PUBX.hpp **** #include "NMEA_Standard.hpp"
ARM GAS  /var/folders/bb/dhrb69655gd8t4nf464nxc_00000gn/T//ccX9z21m.s 			page 23


  23:Core/Inc/NMEA_PUBX.hpp **** 
  24:Core/Inc/NMEA_PUBX.hpp **** using NMEA = M9N_Base::NMEA_PUBX;
  25:Core/Inc/NMEA_PUBX.hpp **** 
  26:Core/Inc/NMEA_PUBX.hpp **** enum class NMEA::Message{
  27:Core/Inc/NMEA_PUBX.hpp **** 	/* Standard NMEA Sentences. Identical to NMEA_Base::Message */
  28:Core/Inc/NMEA_PUBX.hpp **** 	DTM,	// Datum Reference
  29:Core/Inc/NMEA_PUBX.hpp **** 	GAQ,	// GA Poll
  30:Core/Inc/NMEA_PUBX.hpp **** 	GBQ,	// GB Poll
  31:Core/Inc/NMEA_PUBX.hpp **** 	GBS,	// Satellite Fault Detection
  32:Core/Inc/NMEA_PUBX.hpp **** 	GGA,	// GPS Fix Data
  33:Core/Inc/NMEA_PUBX.hpp **** 	GLL,	// Location with Time and Fix Status
  34:Core/Inc/NMEA_PUBX.hpp **** 	GLQ,	// GL Poll
  35:Core/Inc/NMEA_PUBX.hpp **** 	GNQ,	// GN Poll
  36:Core/Inc/NMEA_PUBX.hpp **** 	GNS,	// GNSS Fix Data
  37:Core/Inc/NMEA_PUBX.hpp **** 	GPQ,	// GP Poll
  38:Core/Inc/NMEA_PUBX.hpp **** 	GRS,	// GNSS Range Residuals
  39:Core/Inc/NMEA_PUBX.hpp **** 	GSA,	// GNSS Dilution of Precision
  40:Core/Inc/NMEA_PUBX.hpp **** 	GST,	// GNSS Pseudorange Error Statistics
  41:Core/Inc/NMEA_PUBX.hpp **** 	GSV,	// GNSS Satellites in View
  42:Core/Inc/NMEA_PUBX.hpp **** 	RLM,	// Return Link Message
  43:Core/Inc/NMEA_PUBX.hpp **** 	RMC,	// Recommended Minimum Data
  44:Core/Inc/NMEA_PUBX.hpp **** 	TXT,	// Test transmission
  45:Core/Inc/NMEA_PUBX.hpp **** 	VLW,	// Dual Ground/Water Distance
  46:Core/Inc/NMEA_PUBX.hpp **** 	VTG,	// Course over Ground and Speed
  47:Core/Inc/NMEA_PUBX.hpp **** 	ZDA, 	// Time and Date
  48:Core/Inc/NMEA_PUBX.hpp **** 
  49:Core/Inc/NMEA_PUBX.hpp **** 	/* uBlox PUBX Extensions  */
  50:Core/Inc/NMEA_PUBX.hpp **** 	PUBX_CONFIG,	// Protocols and Rate Configuration
  51:Core/Inc/NMEA_PUBX.hpp **** 	PUBX_POSITION,	// Positional Data
  52:Core/Inc/NMEA_PUBX.hpp **** 	PUBX_RATE,		// Message Output Rate
  53:Core/Inc/NMEA_PUBX.hpp **** 	PUBX_SVSTATUS,	// Satellite Status
  54:Core/Inc/NMEA_PUBX.hpp **** 	PUBX_TIME,		// Time Information
  55:Core/Inc/NMEA_PUBX.hpp **** 
  56:Core/Inc/NMEA_PUBX.hpp **** 	/* Unknown Case*/
  57:Core/Inc/NMEA_PUBX.hpp **** 	UNKNOWN
  58:Core/Inc/NMEA_PUBX.hpp **** };
  59:Core/Inc/NMEA_PUBX.hpp **** 
  60:Core/Inc/NMEA_PUBX.hpp **** class NMEA::PUBX : public NMEA_PUBX{
 825              		.loc 6 60 13
 826              		.cfi_startproc
 827              		@ args = 0, pretend = 0, frame = 8
 828              		@ frame_needed = 1, uses_anonymous_args = 0
 829 0000 80B5     		push	{r7, lr}
 830              		.cfi_def_cfa_offset 8
 831              		.cfi_offset 7, -8
 832              		.cfi_offset 14, -4
 833 0002 82B0     		sub	sp, sp, #8
 834              		.cfi_def_cfa_offset 16
 835 0004 00AF     		add	r7, sp, #0
 836              		.cfi_def_cfa_register 7
 837 0006 7860     		str	r0, [r7, #4]
 838              	.LBB4:
 839              		.loc 6 60 13
 840 0008 054A     		ldr	r2, .L26
 841 000a 7B68     		ldr	r3, [r7, #4]
 842 000c 1A60     		str	r2, [r3]
 843 000e 7B68     		ldr	r3, [r7, #4]
ARM GAS  /var/folders/bb/dhrb69655gd8t4nf464nxc_00000gn/T//ccX9z21m.s 			page 24


 844 0010 1846     		mov	r0, r3
 845 0012 FFF7FEFF 		bl	_ZN8M9N_Base9NMEA_PUBXD2Ev
 846              	.LBE4:
 847 0016 7B68     		ldr	r3, [r7, #4]
 848 0018 1846     		mov	r0, r3
 849 001a 0837     		adds	r7, r7, #8
 850              		.cfi_def_cfa_offset 8
 851 001c BD46     		mov	sp, r7
 852              		.cfi_def_cfa_register 13
 853              		@ sp needed
 854 001e 80BD     		pop	{r7, pc}
 855              	.L27:
 856              		.align	2
 857              	.L26:
 858 0020 08000000 		.word	_ZTVN8M9N_Base9NMEA_PUBX4PUBXE+8
 859              		.cfi_endproc
 860              	.LFE1934:
 861              		.cantunwind
 862              		.fnend
 864              		.weak	_ZN8M9N_Base9NMEA_PUBX4PUBXD1Ev
 865              		.thumb_set _ZN8M9N_Base9NMEA_PUBX4PUBXD1Ev,_ZN8M9N_Base9NMEA_PUBX4PUBXD2Ev
 866              		.section	.text._ZN8M9N_Base9NMEA_PUBX4PUBXD0Ev,"axG",%progbits,_ZN8M9N_Base9NMEA_PUBX4PUBXD5Ev,com
 867              		.align	1
 868              		.weak	_ZN8M9N_Base9NMEA_PUBX4PUBXD0Ev
 869              		.syntax unified
 870              		.thumb
 871              		.thumb_func
 873              	_ZN8M9N_Base9NMEA_PUBX4PUBXD0Ev:
 874              		.fnstart
 875              	.LFB1936:
 876              		.loc 6 60 13
 877              		.cfi_startproc
 878              		@ args = 0, pretend = 0, frame = 8
 879              		@ frame_needed = 1, uses_anonymous_args = 0
 880 0000 80B5     		push	{r7, lr}
 881              		.cfi_def_cfa_offset 8
 882              		.cfi_offset 7, -8
 883              		.cfi_offset 14, -4
 884 0002 82B0     		sub	sp, sp, #8
 885              		.cfi_def_cfa_offset 16
 886 0004 00AF     		add	r7, sp, #0
 887              		.cfi_def_cfa_register 7
 888 0006 7860     		str	r0, [r7, #4]
 889              		.loc 6 60 13
 890 0008 7868     		ldr	r0, [r7, #4]
 891 000a FFF7FEFF 		bl	_ZN8M9N_Base9NMEA_PUBX4PUBXD1Ev
 892 000e 1C21     		movs	r1, #28
 893 0010 7868     		ldr	r0, [r7, #4]
 894 0012 FFF7FEFF 		bl	_ZdlPvj
 895 0016 7B68     		ldr	r3, [r7, #4]
 896 0018 1846     		mov	r0, r3
 897 001a 0837     		adds	r7, r7, #8
 898              		.cfi_def_cfa_offset 8
 899 001c BD46     		mov	sp, r7
 900              		.cfi_def_cfa_register 13
 901              		@ sp needed
 902 001e 80BD     		pop	{r7, pc}
ARM GAS  /var/folders/bb/dhrb69655gd8t4nf464nxc_00000gn/T//ccX9z21m.s 			page 25


 903              		.cfi_endproc
 904              	.LFE1936:
 905              		.cantunwind
 906              		.fnend
 908              		.section	.rodata
 909              		.align	2
 910              	.LC0:
 911 0000 04000000 		.word	4
 912 0004 05000000 		.word	5
 913 0008 0B000000 		.word	11
 914 000c 0D000000 		.word	13
 915 0010 0F000000 		.word	15
 916 0014 12000000 		.word	18
 917 0018 10000000 		.word	16
 918              		.section	.text._ZN8M9N_Base19silenceDefaultRatesEv,"ax",%progbits
 919              		.align	1
 920              		.global	_ZN8M9N_Base19silenceDefaultRatesEv
 921              		.syntax unified
 922              		.thumb
 923              		.thumb_func
 925              	_ZN8M9N_Base19silenceDefaultRatesEv:
 926              		.fnstart
 927              	.LFB1918:
  33:Core/Src/M9N_Base.cpp **** 
  34:Core/Src/M9N_Base.cpp **** void M9N_Base::silenceDefaultRates(){
 928              		.loc 5 34 37
 929              		.cfi_startproc
 930              		@ args = 0, pretend = 0, frame = 96
 931              		@ frame_needed = 1, uses_anonymous_args = 0
 932 0000 B0B5     		push	{r4, r5, r7, lr}
 933              		.save {r4, r5, r7, lr}
 934              		.cfi_def_cfa_offset 16
 935              		.cfi_offset 4, -16
 936              		.cfi_offset 5, -12
 937              		.cfi_offset 7, -8
 938              		.cfi_offset 14, -4
 939              		.pad #112
 940 0002 9CB0     		sub	sp, sp, #112
 941              		.cfi_def_cfa_offset 128
 942              		.setfp r7, sp, #16
 943 0004 04AF     		add	r7, sp, #16
 944              		.cfi_def_cfa 7, 112
 945 0006 7860     		str	r0, [r7, #4]
  35:Core/Src/M9N_Base.cpp **** 	const std::array<NMEA_PUBX::Message, 7u> msgs = {
 946              		.loc 5 35 43
 947 0008 214B     		ldr	r3, .L36
 948 000a 07F10C04 		add	r4, r7, #12
 949 000e 1D46     		mov	r5, r3
 950 0010 0FCD     		ldmia	r5!, {r0, r1, r2, r3}
 951 0012 0FC4     		stmia	r4!, {r0, r1, r2, r3}
 952 0014 95E80700 		ldm	r5, {r0, r1, r2}
 953 0018 84E80700 		stm	r4, {r0, r1, r2}
 954              	.LBB5:
  36:Core/Src/M9N_Base.cpp **** 		NMEA_PUBX::Message::GGA, 
  37:Core/Src/M9N_Base.cpp **** 		NMEA_PUBX::Message::GLL, 
  38:Core/Src/M9N_Base.cpp **** 		NMEA_PUBX::Message::GSA, 
  39:Core/Src/M9N_Base.cpp **** 		NMEA_PUBX::Message::GSV, 
ARM GAS  /var/folders/bb/dhrb69655gd8t4nf464nxc_00000gn/T//ccX9z21m.s 			page 26


  40:Core/Src/M9N_Base.cpp **** 		NMEA_PUBX::Message::RMC, 
  41:Core/Src/M9N_Base.cpp **** 		NMEA_PUBX::Message::VTG,
  42:Core/Src/M9N_Base.cpp **** 		NMEA_PUBX::Message::TXT 
  43:Core/Src/M9N_Base.cpp **** 		};
  44:Core/Src/M9N_Base.cpp **** 
  45:Core/Src/M9N_Base.cpp **** 	for(auto m : msgs)
 955              		.loc 5 45 15
 956 001c 07F10C03 		add	r3, r7, #12
 957 0020 BB65     		str	r3, [r7, #88]
 958 0022 B86D     		ldr	r0, [r7, #88]
 959 0024 FFF7FEFF 		bl	_ZNKSt5arrayIN8M9N_Base9NMEA_PUBX7MessageELj7EE5beginEv
 960 0028 F865     		str	r0, [r7, #92]
 961 002a B86D     		ldr	r0, [r7, #88]
 962 002c FFF7FEFF 		bl	_ZNKSt5arrayIN8M9N_Base9NMEA_PUBX7MessageELj7EE3endEv
 963 0030 7865     		str	r0, [r7, #84]
 964              	.L32:
 965              		.loc 5 45 15 is_stmt 0 discriminator 3
 966 0032 FA6D     		ldr	r2, [r7, #92]
 967 0034 7B6D     		ldr	r3, [r7, #84]
 968 0036 9A42     		cmp	r2, r3
 969 0038 25D0     		beq	.L35
 970              		.loc 5 45 11 is_stmt 1 discriminator 2
 971 003a FB6D     		ldr	r3, [r7, #92]
 972 003c 1B68     		ldr	r3, [r3]
 973 003e 3B65     		str	r3, [r7, #80]
  46:Core/Src/M9N_Base.cpp **** 		setRate(NMEA_PUBX::Rate(m));
 974              		.loc 5 46 22 discriminator 2
 975 0040 07F12800 		add	r0, r7, #40
 976 0044 0023     		movs	r3, #0
 977 0046 0293     		str	r3, [sp, #8]
 978 0048 0023     		movs	r3, #0
 979 004a 0193     		str	r3, [sp, #4]
 980 004c 0023     		movs	r3, #0
 981 004e 0093     		str	r3, [sp]
 982 0050 0023     		movs	r3, #0
 983 0052 0022     		movs	r2, #0
 984 0054 396D     		ldr	r1, [r7, #80]
 985              	.LEHB0:
 986 0056 FFF7FEFF 		bl	_ZN8M9N_Base9NMEA_PUBX4RateC1ENS0_7MessageEhhhhh
 987              	.LEHE0:
 988              		.loc 5 46 10 discriminator 2
 989 005a 07F12803 		add	r3, r7, #40
 990 005e 1946     		mov	r1, r3
 991 0060 7868     		ldr	r0, [r7, #4]
 992              	.LEHB1:
 993 0062 FFF7FEFF 		bl	_ZN8M9N_Base7setRateENS_9NMEA_PUBX4RateE
 994              	.LEHE1:
 995              		.loc 5 46 22 discriminator 3
 996 0066 07F12803 		add	r3, r7, #40
 997 006a 1846     		mov	r0, r3
 998 006c FFF7FEFF 		bl	_ZN8M9N_Base9NMEA_PUBX4RateD1Ev
  45:Core/Src/M9N_Base.cpp **** 		setRate(NMEA_PUBX::Rate(m));
 999              		.loc 5 45 2 discriminator 3
 1000 0070 FB6D     		ldr	r3, [r7, #92]
 1001 0072 0433     		adds	r3, r3, #4
 1002 0074 FB65     		str	r3, [r7, #92]
 1003 0076 DCE7     		b	.L32
ARM GAS  /var/folders/bb/dhrb69655gd8t4nf464nxc_00000gn/T//ccX9z21m.s 			page 27


 1004              	.L34:
 1005              		.loc 5 46 22
 1006 0078 07F12803 		add	r3, r7, #40
 1007 007c 1846     		mov	r0, r3
 1008 007e FFF7FEFF 		bl	_ZN8M9N_Base9NMEA_PUBX4RateD1Ev
 1009              	.LEHB2:
 1010 0082 FFF7FEFF 		bl	__cxa_end_cleanup
 1011              	.LEHE2:
 1012              	.L35:
 1013              	.LBE5:
  47:Core/Src/M9N_Base.cpp **** }
 1014              		.loc 5 47 1
 1015 0086 00BF     		nop
 1016 0088 6037     		adds	r7, r7, #96
 1017              		.cfi_def_cfa_offset 16
 1018 008a BD46     		mov	sp, r7
 1019              		.cfi_def_cfa_register 13
 1020              		@ sp needed
 1021 008c B0BD     		pop	{r4, r5, r7, pc}
 1022              	.L37:
 1023 008e 00BF     		.align	2
 1024              	.L36:
 1025 0090 00000000 		.word	.LC0
 1026              		.cfi_endproc
 1027              	.LFE1918:
 1028              		.global	__gxx_personality_v0
 1029              		.personality	__gxx_personality_v0
 1030              		.handlerdata
 1031              	.LLSDA1918:
 1032 000c FF       		.byte	0xff
 1033 000d FF       		.byte	0xff
 1034 000e 01       		.byte	0x1
 1035 000f 0D       		.uleb128 .LLSDACSE1918-.LLSDACSB1918
 1036              	.LLSDACSB1918:
 1037 0010 56       		.uleb128 .LEHB0-.LFB1918
 1038 0011 04       		.uleb128 .LEHE0-.LEHB0
 1039 0012 00       		.uleb128 0
 1040 0013 00       		.uleb128 0
 1041 0014 62       		.uleb128 .LEHB1-.LFB1918
 1042 0015 04       		.uleb128 .LEHE1-.LEHB1
 1043 0016 78       		.uleb128 .L34-.LFB1918
 1044 0017 00       		.uleb128 0
 1045 0018 8201     		.uleb128 .LEHB2-.LFB1918
 1046 001a 04       		.uleb128 .LEHE2-.LEHB2
 1047 001b 00       		.uleb128 0
 1048 001c 00       		.uleb128 0
 1049              	.LLSDACSE1918:
 1050              		.section	.text._ZN8M9N_Base19silenceDefaultRatesEv
 1051              		.fnend
 1053              		.section	.text._ZNKSt5arrayIN8M9N_Base9NMEA_PUBX7MessageELj7EE5beginEv,"axG",%progbits,_ZNKSt5arra
 1054              		.align	1
 1055              		.weak	_ZNKSt5arrayIN8M9N_Base9NMEA_PUBX7MessageELj7EE5beginEv
 1056              		.syntax unified
 1057              		.thumb
 1058              		.thumb_func
 1060              	_ZNKSt5arrayIN8M9N_Base9NMEA_PUBX7MessageELj7EE5beginEv:
 1061              		.fnstart
ARM GAS  /var/folders/bb/dhrb69655gd8t4nf464nxc_00000gn/T//ccX9z21m.s 			page 28


 1062              	.LFB2215:
 1063              		.file 7 "/Users/lawrencestanton/Library/Application Support/Code/User/globalStorage/bmd.stm32-for-
   1:/Users/lawrencestanton/Library/Application Support/Code/User/globalStorage/bmd.stm32-for-vscode/@xpack-dev-tools/arm-none-eabi-gcc/10.3.1-2.3.1/.content/arm-none-eabi/include/c++/10.3.1/array **** // <array> -*- C++ -*-
   2:/Users/lawrencestanton/Library/Application Support/Code/User/globalStorage/bmd.stm32-for-vscode/@xpack-dev-tools/arm-none-eabi-gcc/10.3.1-2.3.1/.content/arm-none-eabi/include/c++/10.3.1/array **** 
   3:/Users/lawrencestanton/Library/Application Support/Code/User/globalStorage/bmd.stm32-for-vscode/@xpack-dev-tools/arm-none-eabi-gcc/10.3.1-2.3.1/.content/arm-none-eabi/include/c++/10.3.1/array **** // Copyright (C) 2007-2020 Free Software Foundation, Inc.
   4:/Users/lawrencestanton/Library/Application Support/Code/User/globalStorage/bmd.stm32-for-vscode/@xpack-dev-tools/arm-none-eabi-gcc/10.3.1-2.3.1/.content/arm-none-eabi/include/c++/10.3.1/array **** //
   5:/Users/lawrencestanton/Library/Application Support/Code/User/globalStorage/bmd.stm32-for-vscode/@xpack-dev-tools/arm-none-eabi-gcc/10.3.1-2.3.1/.content/arm-none-eabi/include/c++/10.3.1/array **** // This file is part of the GNU ISO C++ Library.  This library is free
   6:/Users/lawrencestanton/Library/Application Support/Code/User/globalStorage/bmd.stm32-for-vscode/@xpack-dev-tools/arm-none-eabi-gcc/10.3.1-2.3.1/.content/arm-none-eabi/include/c++/10.3.1/array **** // software; you can redistribute it and/or modify it under the
   7:/Users/lawrencestanton/Library/Application Support/Code/User/globalStorage/bmd.stm32-for-vscode/@xpack-dev-tools/arm-none-eabi-gcc/10.3.1-2.3.1/.content/arm-none-eabi/include/c++/10.3.1/array **** // terms of the GNU General Public License as published by the
   8:/Users/lawrencestanton/Library/Application Support/Code/User/globalStorage/bmd.stm32-for-vscode/@xpack-dev-tools/arm-none-eabi-gcc/10.3.1-2.3.1/.content/arm-none-eabi/include/c++/10.3.1/array **** // Free Software Foundation; either version 3, or (at your option)
   9:/Users/lawrencestanton/Library/Application Support/Code/User/globalStorage/bmd.stm32-for-vscode/@xpack-dev-tools/arm-none-eabi-gcc/10.3.1-2.3.1/.content/arm-none-eabi/include/c++/10.3.1/array **** // any later version.
  10:/Users/lawrencestanton/Library/Application Support/Code/User/globalStorage/bmd.stm32-for-vscode/@xpack-dev-tools/arm-none-eabi-gcc/10.3.1-2.3.1/.content/arm-none-eabi/include/c++/10.3.1/array **** 
  11:/Users/lawrencestanton/Library/Application Support/Code/User/globalStorage/bmd.stm32-for-vscode/@xpack-dev-tools/arm-none-eabi-gcc/10.3.1-2.3.1/.content/arm-none-eabi/include/c++/10.3.1/array **** // This library is distributed in the hope that it will be useful,
  12:/Users/lawrencestanton/Library/Application Support/Code/User/globalStorage/bmd.stm32-for-vscode/@xpack-dev-tools/arm-none-eabi-gcc/10.3.1-2.3.1/.content/arm-none-eabi/include/c++/10.3.1/array **** // but WITHOUT ANY WARRANTY; without even the implied warranty of
  13:/Users/lawrencestanton/Library/Application Support/Code/User/globalStorage/bmd.stm32-for-vscode/@xpack-dev-tools/arm-none-eabi-gcc/10.3.1-2.3.1/.content/arm-none-eabi/include/c++/10.3.1/array **** // MERCHANTABILITY or FITNESS FOR A PARTICULAR PURPOSE.  See the
  14:/Users/lawrencestanton/Library/Application Support/Code/User/globalStorage/bmd.stm32-for-vscode/@xpack-dev-tools/arm-none-eabi-gcc/10.3.1-2.3.1/.content/arm-none-eabi/include/c++/10.3.1/array **** // GNU General Public License for more details.
  15:/Users/lawrencestanton/Library/Application Support/Code/User/globalStorage/bmd.stm32-for-vscode/@xpack-dev-tools/arm-none-eabi-gcc/10.3.1-2.3.1/.content/arm-none-eabi/include/c++/10.3.1/array **** 
  16:/Users/lawrencestanton/Library/Application Support/Code/User/globalStorage/bmd.stm32-for-vscode/@xpack-dev-tools/arm-none-eabi-gcc/10.3.1-2.3.1/.content/arm-none-eabi/include/c++/10.3.1/array **** // Under Section 7 of GPL version 3, you are granted additional
  17:/Users/lawrencestanton/Library/Application Support/Code/User/globalStorage/bmd.stm32-for-vscode/@xpack-dev-tools/arm-none-eabi-gcc/10.3.1-2.3.1/.content/arm-none-eabi/include/c++/10.3.1/array **** // permissions described in the GCC Runtime Library Exception, version
  18:/Users/lawrencestanton/Library/Application Support/Code/User/globalStorage/bmd.stm32-for-vscode/@xpack-dev-tools/arm-none-eabi-gcc/10.3.1-2.3.1/.content/arm-none-eabi/include/c++/10.3.1/array **** // 3.1, as published by the Free Software Foundation.
  19:/Users/lawrencestanton/Library/Application Support/Code/User/globalStorage/bmd.stm32-for-vscode/@xpack-dev-tools/arm-none-eabi-gcc/10.3.1-2.3.1/.content/arm-none-eabi/include/c++/10.3.1/array **** 
  20:/Users/lawrencestanton/Library/Application Support/Code/User/globalStorage/bmd.stm32-for-vscode/@xpack-dev-tools/arm-none-eabi-gcc/10.3.1-2.3.1/.content/arm-none-eabi/include/c++/10.3.1/array **** // You should have received a copy of the GNU General Public License and
  21:/Users/lawrencestanton/Library/Application Support/Code/User/globalStorage/bmd.stm32-for-vscode/@xpack-dev-tools/arm-none-eabi-gcc/10.3.1-2.3.1/.content/arm-none-eabi/include/c++/10.3.1/array **** // a copy of the GCC Runtime Library Exception along with this program;
  22:/Users/lawrencestanton/Library/Application Support/Code/User/globalStorage/bmd.stm32-for-vscode/@xpack-dev-tools/arm-none-eabi-gcc/10.3.1-2.3.1/.content/arm-none-eabi/include/c++/10.3.1/array **** // see the files COPYING3 and COPYING.RUNTIME respectively.  If not, see
  23:/Users/lawrencestanton/Library/Application Support/Code/User/globalStorage/bmd.stm32-for-vscode/@xpack-dev-tools/arm-none-eabi-gcc/10.3.1-2.3.1/.content/arm-none-eabi/include/c++/10.3.1/array **** // <http://www.gnu.org/licenses/>.
  24:/Users/lawrencestanton/Library/Application Support/Code/User/globalStorage/bmd.stm32-for-vscode/@xpack-dev-tools/arm-none-eabi-gcc/10.3.1-2.3.1/.content/arm-none-eabi/include/c++/10.3.1/array **** 
  25:/Users/lawrencestanton/Library/Application Support/Code/User/globalStorage/bmd.stm32-for-vscode/@xpack-dev-tools/arm-none-eabi-gcc/10.3.1-2.3.1/.content/arm-none-eabi/include/c++/10.3.1/array **** /** @file include/array
  26:/Users/lawrencestanton/Library/Application Support/Code/User/globalStorage/bmd.stm32-for-vscode/@xpack-dev-tools/arm-none-eabi-gcc/10.3.1-2.3.1/.content/arm-none-eabi/include/c++/10.3.1/array ****  *  This is a Standard C++ Library header.
  27:/Users/lawrencestanton/Library/Application Support/Code/User/globalStorage/bmd.stm32-for-vscode/@xpack-dev-tools/arm-none-eabi-gcc/10.3.1-2.3.1/.content/arm-none-eabi/include/c++/10.3.1/array ****  */
  28:/Users/lawrencestanton/Library/Application Support/Code/User/globalStorage/bmd.stm32-for-vscode/@xpack-dev-tools/arm-none-eabi-gcc/10.3.1-2.3.1/.content/arm-none-eabi/include/c++/10.3.1/array **** 
  29:/Users/lawrencestanton/Library/Application Support/Code/User/globalStorage/bmd.stm32-for-vscode/@xpack-dev-tools/arm-none-eabi-gcc/10.3.1-2.3.1/.content/arm-none-eabi/include/c++/10.3.1/array **** #ifndef _GLIBCXX_ARRAY
  30:/Users/lawrencestanton/Library/Application Support/Code/User/globalStorage/bmd.stm32-for-vscode/@xpack-dev-tools/arm-none-eabi-gcc/10.3.1-2.3.1/.content/arm-none-eabi/include/c++/10.3.1/array **** #define _GLIBCXX_ARRAY 1
  31:/Users/lawrencestanton/Library/Application Support/Code/User/globalStorage/bmd.stm32-for-vscode/@xpack-dev-tools/arm-none-eabi-gcc/10.3.1-2.3.1/.content/arm-none-eabi/include/c++/10.3.1/array **** 
  32:/Users/lawrencestanton/Library/Application Support/Code/User/globalStorage/bmd.stm32-for-vscode/@xpack-dev-tools/arm-none-eabi-gcc/10.3.1-2.3.1/.content/arm-none-eabi/include/c++/10.3.1/array **** #pragma GCC system_header
  33:/Users/lawrencestanton/Library/Application Support/Code/User/globalStorage/bmd.stm32-for-vscode/@xpack-dev-tools/arm-none-eabi-gcc/10.3.1-2.3.1/.content/arm-none-eabi/include/c++/10.3.1/array **** 
  34:/Users/lawrencestanton/Library/Application Support/Code/User/globalStorage/bmd.stm32-for-vscode/@xpack-dev-tools/arm-none-eabi-gcc/10.3.1-2.3.1/.content/arm-none-eabi/include/c++/10.3.1/array **** #if __cplusplus < 201103L
  35:/Users/lawrencestanton/Library/Application Support/Code/User/globalStorage/bmd.stm32-for-vscode/@xpack-dev-tools/arm-none-eabi-gcc/10.3.1-2.3.1/.content/arm-none-eabi/include/c++/10.3.1/array **** # include <bits/c++0x_warning.h>
  36:/Users/lawrencestanton/Library/Application Support/Code/User/globalStorage/bmd.stm32-for-vscode/@xpack-dev-tools/arm-none-eabi-gcc/10.3.1-2.3.1/.content/arm-none-eabi/include/c++/10.3.1/array **** #else
  37:/Users/lawrencestanton/Library/Application Support/Code/User/globalStorage/bmd.stm32-for-vscode/@xpack-dev-tools/arm-none-eabi-gcc/10.3.1-2.3.1/.content/arm-none-eabi/include/c++/10.3.1/array **** 
  38:/Users/lawrencestanton/Library/Application Support/Code/User/globalStorage/bmd.stm32-for-vscode/@xpack-dev-tools/arm-none-eabi-gcc/10.3.1-2.3.1/.content/arm-none-eabi/include/c++/10.3.1/array **** #include <utility>
  39:/Users/lawrencestanton/Library/Application Support/Code/User/globalStorage/bmd.stm32-for-vscode/@xpack-dev-tools/arm-none-eabi-gcc/10.3.1-2.3.1/.content/arm-none-eabi/include/c++/10.3.1/array **** #include <bits/functexcept.h>
  40:/Users/lawrencestanton/Library/Application Support/Code/User/globalStorage/bmd.stm32-for-vscode/@xpack-dev-tools/arm-none-eabi-gcc/10.3.1-2.3.1/.content/arm-none-eabi/include/c++/10.3.1/array **** #include <bits/stl_algobase.h>
  41:/Users/lawrencestanton/Library/Application Support/Code/User/globalStorage/bmd.stm32-for-vscode/@xpack-dev-tools/arm-none-eabi-gcc/10.3.1-2.3.1/.content/arm-none-eabi/include/c++/10.3.1/array **** #include <bits/range_access.h>
  42:/Users/lawrencestanton/Library/Application Support/Code/User/globalStorage/bmd.stm32-for-vscode/@xpack-dev-tools/arm-none-eabi-gcc/10.3.1-2.3.1/.content/arm-none-eabi/include/c++/10.3.1/array **** 
  43:/Users/lawrencestanton/Library/Application Support/Code/User/globalStorage/bmd.stm32-for-vscode/@xpack-dev-tools/arm-none-eabi-gcc/10.3.1-2.3.1/.content/arm-none-eabi/include/c++/10.3.1/array **** namespace std _GLIBCXX_VISIBILITY(default)
  44:/Users/lawrencestanton/Library/Application Support/Code/User/globalStorage/bmd.stm32-for-vscode/@xpack-dev-tools/arm-none-eabi-gcc/10.3.1-2.3.1/.content/arm-none-eabi/include/c++/10.3.1/array **** {
  45:/Users/lawrencestanton/Library/Application Support/Code/User/globalStorage/bmd.stm32-for-vscode/@xpack-dev-tools/arm-none-eabi-gcc/10.3.1-2.3.1/.content/arm-none-eabi/include/c++/10.3.1/array **** _GLIBCXX_BEGIN_NAMESPACE_CONTAINER
  46:/Users/lawrencestanton/Library/Application Support/Code/User/globalStorage/bmd.stm32-for-vscode/@xpack-dev-tools/arm-none-eabi-gcc/10.3.1-2.3.1/.content/arm-none-eabi/include/c++/10.3.1/array **** 
  47:/Users/lawrencestanton/Library/Application Support/Code/User/globalStorage/bmd.stm32-for-vscode/@xpack-dev-tools/arm-none-eabi-gcc/10.3.1-2.3.1/.content/arm-none-eabi/include/c++/10.3.1/array ****   template<typename _Tp, std::size_t _Nm>
  48:/Users/lawrencestanton/Library/Application Support/Code/User/globalStorage/bmd.stm32-for-vscode/@xpack-dev-tools/arm-none-eabi-gcc/10.3.1-2.3.1/.content/arm-none-eabi/include/c++/10.3.1/array ****     struct __array_traits
  49:/Users/lawrencestanton/Library/Application Support/Code/User/globalStorage/bmd.stm32-for-vscode/@xpack-dev-tools/arm-none-eabi-gcc/10.3.1-2.3.1/.content/arm-none-eabi/include/c++/10.3.1/array ****     {
  50:/Users/lawrencestanton/Library/Application Support/Code/User/globalStorage/bmd.stm32-for-vscode/@xpack-dev-tools/arm-none-eabi-gcc/10.3.1-2.3.1/.content/arm-none-eabi/include/c++/10.3.1/array ****       typedef _Tp _Type[_Nm];
  51:/Users/lawrencestanton/Library/Application Support/Code/User/globalStorage/bmd.stm32-for-vscode/@xpack-dev-tools/arm-none-eabi-gcc/10.3.1-2.3.1/.content/arm-none-eabi/include/c++/10.3.1/array ****       typedef __is_swappable<_Tp> _Is_swappable;
  52:/Users/lawrencestanton/Library/Application Support/Code/User/globalStorage/bmd.stm32-for-vscode/@xpack-dev-tools/arm-none-eabi-gcc/10.3.1-2.3.1/.content/arm-none-eabi/include/c++/10.3.1/array ****       typedef __is_nothrow_swappable<_Tp> _Is_nothrow_swappable;
  53:/Users/lawrencestanton/Library/Application Support/Code/User/globalStorage/bmd.stm32-for-vscode/@xpack-dev-tools/arm-none-eabi-gcc/10.3.1-2.3.1/.content/arm-none-eabi/include/c++/10.3.1/array **** 
  54:/Users/lawrencestanton/Library/Application Support/Code/User/globalStorage/bmd.stm32-for-vscode/@xpack-dev-tools/arm-none-eabi-gcc/10.3.1-2.3.1/.content/arm-none-eabi/include/c++/10.3.1/array ****       static constexpr _Tp&
  55:/Users/lawrencestanton/Library/Application Support/Code/User/globalStorage/bmd.stm32-for-vscode/@xpack-dev-tools/arm-none-eabi-gcc/10.3.1-2.3.1/.content/arm-none-eabi/include/c++/10.3.1/array ****       _S_ref(const _Type& __t, std::size_t __n) noexcept
ARM GAS  /var/folders/bb/dhrb69655gd8t4nf464nxc_00000gn/T//ccX9z21m.s 			page 29


  56:/Users/lawrencestanton/Library/Application Support/Code/User/globalStorage/bmd.stm32-for-vscode/@xpack-dev-tools/arm-none-eabi-gcc/10.3.1-2.3.1/.content/arm-none-eabi/include/c++/10.3.1/array ****       { return const_cast<_Tp&>(__t[__n]); }
  57:/Users/lawrencestanton/Library/Application Support/Code/User/globalStorage/bmd.stm32-for-vscode/@xpack-dev-tools/arm-none-eabi-gcc/10.3.1-2.3.1/.content/arm-none-eabi/include/c++/10.3.1/array **** 
  58:/Users/lawrencestanton/Library/Application Support/Code/User/globalStorage/bmd.stm32-for-vscode/@xpack-dev-tools/arm-none-eabi-gcc/10.3.1-2.3.1/.content/arm-none-eabi/include/c++/10.3.1/array ****       static constexpr _Tp*
  59:/Users/lawrencestanton/Library/Application Support/Code/User/globalStorage/bmd.stm32-for-vscode/@xpack-dev-tools/arm-none-eabi-gcc/10.3.1-2.3.1/.content/arm-none-eabi/include/c++/10.3.1/array ****       _S_ptr(const _Type& __t) noexcept
  60:/Users/lawrencestanton/Library/Application Support/Code/User/globalStorage/bmd.stm32-for-vscode/@xpack-dev-tools/arm-none-eabi-gcc/10.3.1-2.3.1/.content/arm-none-eabi/include/c++/10.3.1/array ****       { return const_cast<_Tp*>(__t); }
  61:/Users/lawrencestanton/Library/Application Support/Code/User/globalStorage/bmd.stm32-for-vscode/@xpack-dev-tools/arm-none-eabi-gcc/10.3.1-2.3.1/.content/arm-none-eabi/include/c++/10.3.1/array ****     };
  62:/Users/lawrencestanton/Library/Application Support/Code/User/globalStorage/bmd.stm32-for-vscode/@xpack-dev-tools/arm-none-eabi-gcc/10.3.1-2.3.1/.content/arm-none-eabi/include/c++/10.3.1/array **** 
  63:/Users/lawrencestanton/Library/Application Support/Code/User/globalStorage/bmd.stm32-for-vscode/@xpack-dev-tools/arm-none-eabi-gcc/10.3.1-2.3.1/.content/arm-none-eabi/include/c++/10.3.1/array ****  template<typename _Tp>
  64:/Users/lawrencestanton/Library/Application Support/Code/User/globalStorage/bmd.stm32-for-vscode/@xpack-dev-tools/arm-none-eabi-gcc/10.3.1-2.3.1/.content/arm-none-eabi/include/c++/10.3.1/array ****    struct __array_traits<_Tp, 0>
  65:/Users/lawrencestanton/Library/Application Support/Code/User/globalStorage/bmd.stm32-for-vscode/@xpack-dev-tools/arm-none-eabi-gcc/10.3.1-2.3.1/.content/arm-none-eabi/include/c++/10.3.1/array ****    {
  66:/Users/lawrencestanton/Library/Application Support/Code/User/globalStorage/bmd.stm32-for-vscode/@xpack-dev-tools/arm-none-eabi-gcc/10.3.1-2.3.1/.content/arm-none-eabi/include/c++/10.3.1/array ****      struct _Type { };
  67:/Users/lawrencestanton/Library/Application Support/Code/User/globalStorage/bmd.stm32-for-vscode/@xpack-dev-tools/arm-none-eabi-gcc/10.3.1-2.3.1/.content/arm-none-eabi/include/c++/10.3.1/array ****      typedef true_type _Is_swappable;
  68:/Users/lawrencestanton/Library/Application Support/Code/User/globalStorage/bmd.stm32-for-vscode/@xpack-dev-tools/arm-none-eabi-gcc/10.3.1-2.3.1/.content/arm-none-eabi/include/c++/10.3.1/array ****      typedef true_type _Is_nothrow_swappable;
  69:/Users/lawrencestanton/Library/Application Support/Code/User/globalStorage/bmd.stm32-for-vscode/@xpack-dev-tools/arm-none-eabi-gcc/10.3.1-2.3.1/.content/arm-none-eabi/include/c++/10.3.1/array **** 
  70:/Users/lawrencestanton/Library/Application Support/Code/User/globalStorage/bmd.stm32-for-vscode/@xpack-dev-tools/arm-none-eabi-gcc/10.3.1-2.3.1/.content/arm-none-eabi/include/c++/10.3.1/array ****      static constexpr _Tp&
  71:/Users/lawrencestanton/Library/Application Support/Code/User/globalStorage/bmd.stm32-for-vscode/@xpack-dev-tools/arm-none-eabi-gcc/10.3.1-2.3.1/.content/arm-none-eabi/include/c++/10.3.1/array ****      _S_ref(const _Type&, std::size_t) noexcept
  72:/Users/lawrencestanton/Library/Application Support/Code/User/globalStorage/bmd.stm32-for-vscode/@xpack-dev-tools/arm-none-eabi-gcc/10.3.1-2.3.1/.content/arm-none-eabi/include/c++/10.3.1/array ****      { return *static_cast<_Tp*>(nullptr); }
  73:/Users/lawrencestanton/Library/Application Support/Code/User/globalStorage/bmd.stm32-for-vscode/@xpack-dev-tools/arm-none-eabi-gcc/10.3.1-2.3.1/.content/arm-none-eabi/include/c++/10.3.1/array **** 
  74:/Users/lawrencestanton/Library/Application Support/Code/User/globalStorage/bmd.stm32-for-vscode/@xpack-dev-tools/arm-none-eabi-gcc/10.3.1-2.3.1/.content/arm-none-eabi/include/c++/10.3.1/array ****      static constexpr _Tp*
  75:/Users/lawrencestanton/Library/Application Support/Code/User/globalStorage/bmd.stm32-for-vscode/@xpack-dev-tools/arm-none-eabi-gcc/10.3.1-2.3.1/.content/arm-none-eabi/include/c++/10.3.1/array ****      _S_ptr(const _Type&) noexcept
  76:/Users/lawrencestanton/Library/Application Support/Code/User/globalStorage/bmd.stm32-for-vscode/@xpack-dev-tools/arm-none-eabi-gcc/10.3.1-2.3.1/.content/arm-none-eabi/include/c++/10.3.1/array ****      { return nullptr; }
  77:/Users/lawrencestanton/Library/Application Support/Code/User/globalStorage/bmd.stm32-for-vscode/@xpack-dev-tools/arm-none-eabi-gcc/10.3.1-2.3.1/.content/arm-none-eabi/include/c++/10.3.1/array ****    };
  78:/Users/lawrencestanton/Library/Application Support/Code/User/globalStorage/bmd.stm32-for-vscode/@xpack-dev-tools/arm-none-eabi-gcc/10.3.1-2.3.1/.content/arm-none-eabi/include/c++/10.3.1/array **** 
  79:/Users/lawrencestanton/Library/Application Support/Code/User/globalStorage/bmd.stm32-for-vscode/@xpack-dev-tools/arm-none-eabi-gcc/10.3.1-2.3.1/.content/arm-none-eabi/include/c++/10.3.1/array ****   /**
  80:/Users/lawrencestanton/Library/Application Support/Code/User/globalStorage/bmd.stm32-for-vscode/@xpack-dev-tools/arm-none-eabi-gcc/10.3.1-2.3.1/.content/arm-none-eabi/include/c++/10.3.1/array ****    *  @brief A standard container for storing a fixed size sequence of elements.
  81:/Users/lawrencestanton/Library/Application Support/Code/User/globalStorage/bmd.stm32-for-vscode/@xpack-dev-tools/arm-none-eabi-gcc/10.3.1-2.3.1/.content/arm-none-eabi/include/c++/10.3.1/array ****    *
  82:/Users/lawrencestanton/Library/Application Support/Code/User/globalStorage/bmd.stm32-for-vscode/@xpack-dev-tools/arm-none-eabi-gcc/10.3.1-2.3.1/.content/arm-none-eabi/include/c++/10.3.1/array ****    *  @ingroup sequences
  83:/Users/lawrencestanton/Library/Application Support/Code/User/globalStorage/bmd.stm32-for-vscode/@xpack-dev-tools/arm-none-eabi-gcc/10.3.1-2.3.1/.content/arm-none-eabi/include/c++/10.3.1/array ****    *
  84:/Users/lawrencestanton/Library/Application Support/Code/User/globalStorage/bmd.stm32-for-vscode/@xpack-dev-tools/arm-none-eabi-gcc/10.3.1-2.3.1/.content/arm-none-eabi/include/c++/10.3.1/array ****    *  Meets the requirements of a <a href="tables.html#65">container</a>, a
  85:/Users/lawrencestanton/Library/Application Support/Code/User/globalStorage/bmd.stm32-for-vscode/@xpack-dev-tools/arm-none-eabi-gcc/10.3.1-2.3.1/.content/arm-none-eabi/include/c++/10.3.1/array ****    *  <a href="tables.html#66">reversible container</a>, and a
  86:/Users/lawrencestanton/Library/Application Support/Code/User/globalStorage/bmd.stm32-for-vscode/@xpack-dev-tools/arm-none-eabi-gcc/10.3.1-2.3.1/.content/arm-none-eabi/include/c++/10.3.1/array ****    *  <a href="tables.html#67">sequence</a>.
  87:/Users/lawrencestanton/Library/Application Support/Code/User/globalStorage/bmd.stm32-for-vscode/@xpack-dev-tools/arm-none-eabi-gcc/10.3.1-2.3.1/.content/arm-none-eabi/include/c++/10.3.1/array ****    *
  88:/Users/lawrencestanton/Library/Application Support/Code/User/globalStorage/bmd.stm32-for-vscode/@xpack-dev-tools/arm-none-eabi-gcc/10.3.1-2.3.1/.content/arm-none-eabi/include/c++/10.3.1/array ****    *  Sets support random access iterators.
  89:/Users/lawrencestanton/Library/Application Support/Code/User/globalStorage/bmd.stm32-for-vscode/@xpack-dev-tools/arm-none-eabi-gcc/10.3.1-2.3.1/.content/arm-none-eabi/include/c++/10.3.1/array ****    *
  90:/Users/lawrencestanton/Library/Application Support/Code/User/globalStorage/bmd.stm32-for-vscode/@xpack-dev-tools/arm-none-eabi-gcc/10.3.1-2.3.1/.content/arm-none-eabi/include/c++/10.3.1/array ****    *  @tparam  Tp  Type of element. Required to be a complete type.
  91:/Users/lawrencestanton/Library/Application Support/Code/User/globalStorage/bmd.stm32-for-vscode/@xpack-dev-tools/arm-none-eabi-gcc/10.3.1-2.3.1/.content/arm-none-eabi/include/c++/10.3.1/array ****    *  @tparam  Nm  Number of elements.
  92:/Users/lawrencestanton/Library/Application Support/Code/User/globalStorage/bmd.stm32-for-vscode/@xpack-dev-tools/arm-none-eabi-gcc/10.3.1-2.3.1/.content/arm-none-eabi/include/c++/10.3.1/array ****   */
  93:/Users/lawrencestanton/Library/Application Support/Code/User/globalStorage/bmd.stm32-for-vscode/@xpack-dev-tools/arm-none-eabi-gcc/10.3.1-2.3.1/.content/arm-none-eabi/include/c++/10.3.1/array ****   template<typename _Tp, std::size_t _Nm>
  94:/Users/lawrencestanton/Library/Application Support/Code/User/globalStorage/bmd.stm32-for-vscode/@xpack-dev-tools/arm-none-eabi-gcc/10.3.1-2.3.1/.content/arm-none-eabi/include/c++/10.3.1/array ****     struct array
  95:/Users/lawrencestanton/Library/Application Support/Code/User/globalStorage/bmd.stm32-for-vscode/@xpack-dev-tools/arm-none-eabi-gcc/10.3.1-2.3.1/.content/arm-none-eabi/include/c++/10.3.1/array ****     {
  96:/Users/lawrencestanton/Library/Application Support/Code/User/globalStorage/bmd.stm32-for-vscode/@xpack-dev-tools/arm-none-eabi-gcc/10.3.1-2.3.1/.content/arm-none-eabi/include/c++/10.3.1/array ****       typedef _Tp 	    			      value_type;
  97:/Users/lawrencestanton/Library/Application Support/Code/User/globalStorage/bmd.stm32-for-vscode/@xpack-dev-tools/arm-none-eabi-gcc/10.3.1-2.3.1/.content/arm-none-eabi/include/c++/10.3.1/array ****       typedef value_type*			      pointer;
  98:/Users/lawrencestanton/Library/Application Support/Code/User/globalStorage/bmd.stm32-for-vscode/@xpack-dev-tools/arm-none-eabi-gcc/10.3.1-2.3.1/.content/arm-none-eabi/include/c++/10.3.1/array ****       typedef const value_type*                       const_pointer;
  99:/Users/lawrencestanton/Library/Application Support/Code/User/globalStorage/bmd.stm32-for-vscode/@xpack-dev-tools/arm-none-eabi-gcc/10.3.1-2.3.1/.content/arm-none-eabi/include/c++/10.3.1/array ****       typedef value_type&                   	      reference;
 100:/Users/lawrencestanton/Library/Application Support/Code/User/globalStorage/bmd.stm32-for-vscode/@xpack-dev-tools/arm-none-eabi-gcc/10.3.1-2.3.1/.content/arm-none-eabi/include/c++/10.3.1/array ****       typedef const value_type&             	      const_reference;
 101:/Users/lawrencestanton/Library/Application Support/Code/User/globalStorage/bmd.stm32-for-vscode/@xpack-dev-tools/arm-none-eabi-gcc/10.3.1-2.3.1/.content/arm-none-eabi/include/c++/10.3.1/array ****       typedef value_type*          		      iterator;
 102:/Users/lawrencestanton/Library/Application Support/Code/User/globalStorage/bmd.stm32-for-vscode/@xpack-dev-tools/arm-none-eabi-gcc/10.3.1-2.3.1/.content/arm-none-eabi/include/c++/10.3.1/array ****       typedef const value_type*			      const_iterator;
 103:/Users/lawrencestanton/Library/Application Support/Code/User/globalStorage/bmd.stm32-for-vscode/@xpack-dev-tools/arm-none-eabi-gcc/10.3.1-2.3.1/.content/arm-none-eabi/include/c++/10.3.1/array ****       typedef std::size_t                    	      size_type;
 104:/Users/lawrencestanton/Library/Application Support/Code/User/globalStorage/bmd.stm32-for-vscode/@xpack-dev-tools/arm-none-eabi-gcc/10.3.1-2.3.1/.content/arm-none-eabi/include/c++/10.3.1/array ****       typedef std::ptrdiff_t                   	      difference_type;
 105:/Users/lawrencestanton/Library/Application Support/Code/User/globalStorage/bmd.stm32-for-vscode/@xpack-dev-tools/arm-none-eabi-gcc/10.3.1-2.3.1/.content/arm-none-eabi/include/c++/10.3.1/array ****       typedef std::reverse_iterator<iterator>	      reverse_iterator;
 106:/Users/lawrencestanton/Library/Application Support/Code/User/globalStorage/bmd.stm32-for-vscode/@xpack-dev-tools/arm-none-eabi-gcc/10.3.1-2.3.1/.content/arm-none-eabi/include/c++/10.3.1/array ****       typedef std::reverse_iterator<const_iterator>   const_reverse_iterator;
 107:/Users/lawrencestanton/Library/Application Support/Code/User/globalStorage/bmd.stm32-for-vscode/@xpack-dev-tools/arm-none-eabi-gcc/10.3.1-2.3.1/.content/arm-none-eabi/include/c++/10.3.1/array **** 
 108:/Users/lawrencestanton/Library/Application Support/Code/User/globalStorage/bmd.stm32-for-vscode/@xpack-dev-tools/arm-none-eabi-gcc/10.3.1-2.3.1/.content/arm-none-eabi/include/c++/10.3.1/array ****       // Support for zero-sized arrays mandatory.
 109:/Users/lawrencestanton/Library/Application Support/Code/User/globalStorage/bmd.stm32-for-vscode/@xpack-dev-tools/arm-none-eabi-gcc/10.3.1-2.3.1/.content/arm-none-eabi/include/c++/10.3.1/array ****       typedef _GLIBCXX_STD_C::__array_traits<_Tp, _Nm> _AT_Type;
 110:/Users/lawrencestanton/Library/Application Support/Code/User/globalStorage/bmd.stm32-for-vscode/@xpack-dev-tools/arm-none-eabi-gcc/10.3.1-2.3.1/.content/arm-none-eabi/include/c++/10.3.1/array ****       typename _AT_Type::_Type                         _M_elems;
 111:/Users/lawrencestanton/Library/Application Support/Code/User/globalStorage/bmd.stm32-for-vscode/@xpack-dev-tools/arm-none-eabi-gcc/10.3.1-2.3.1/.content/arm-none-eabi/include/c++/10.3.1/array **** 
 112:/Users/lawrencestanton/Library/Application Support/Code/User/globalStorage/bmd.stm32-for-vscode/@xpack-dev-tools/arm-none-eabi-gcc/10.3.1-2.3.1/.content/arm-none-eabi/include/c++/10.3.1/array ****       // No explicit construct/copy/destroy for aggregate type.
ARM GAS  /var/folders/bb/dhrb69655gd8t4nf464nxc_00000gn/T//ccX9z21m.s 			page 30


 113:/Users/lawrencestanton/Library/Application Support/Code/User/globalStorage/bmd.stm32-for-vscode/@xpack-dev-tools/arm-none-eabi-gcc/10.3.1-2.3.1/.content/arm-none-eabi/include/c++/10.3.1/array **** 
 114:/Users/lawrencestanton/Library/Application Support/Code/User/globalStorage/bmd.stm32-for-vscode/@xpack-dev-tools/arm-none-eabi-gcc/10.3.1-2.3.1/.content/arm-none-eabi/include/c++/10.3.1/array ****       // DR 776.
 115:/Users/lawrencestanton/Library/Application Support/Code/User/globalStorage/bmd.stm32-for-vscode/@xpack-dev-tools/arm-none-eabi-gcc/10.3.1-2.3.1/.content/arm-none-eabi/include/c++/10.3.1/array ****       _GLIBCXX20_CONSTEXPR void
 116:/Users/lawrencestanton/Library/Application Support/Code/User/globalStorage/bmd.stm32-for-vscode/@xpack-dev-tools/arm-none-eabi-gcc/10.3.1-2.3.1/.content/arm-none-eabi/include/c++/10.3.1/array ****       fill(const value_type& __u)
 117:/Users/lawrencestanton/Library/Application Support/Code/User/globalStorage/bmd.stm32-for-vscode/@xpack-dev-tools/arm-none-eabi-gcc/10.3.1-2.3.1/.content/arm-none-eabi/include/c++/10.3.1/array ****       { std::fill_n(begin(), size(), __u); }
 118:/Users/lawrencestanton/Library/Application Support/Code/User/globalStorage/bmd.stm32-for-vscode/@xpack-dev-tools/arm-none-eabi-gcc/10.3.1-2.3.1/.content/arm-none-eabi/include/c++/10.3.1/array **** 
 119:/Users/lawrencestanton/Library/Application Support/Code/User/globalStorage/bmd.stm32-for-vscode/@xpack-dev-tools/arm-none-eabi-gcc/10.3.1-2.3.1/.content/arm-none-eabi/include/c++/10.3.1/array ****       _GLIBCXX20_CONSTEXPR void
 120:/Users/lawrencestanton/Library/Application Support/Code/User/globalStorage/bmd.stm32-for-vscode/@xpack-dev-tools/arm-none-eabi-gcc/10.3.1-2.3.1/.content/arm-none-eabi/include/c++/10.3.1/array ****       swap(array& __other)
 121:/Users/lawrencestanton/Library/Application Support/Code/User/globalStorage/bmd.stm32-for-vscode/@xpack-dev-tools/arm-none-eabi-gcc/10.3.1-2.3.1/.content/arm-none-eabi/include/c++/10.3.1/array ****       noexcept(_AT_Type::_Is_nothrow_swappable::value)
 122:/Users/lawrencestanton/Library/Application Support/Code/User/globalStorage/bmd.stm32-for-vscode/@xpack-dev-tools/arm-none-eabi-gcc/10.3.1-2.3.1/.content/arm-none-eabi/include/c++/10.3.1/array ****       { std::swap_ranges(begin(), end(), __other.begin()); }
 123:/Users/lawrencestanton/Library/Application Support/Code/User/globalStorage/bmd.stm32-for-vscode/@xpack-dev-tools/arm-none-eabi-gcc/10.3.1-2.3.1/.content/arm-none-eabi/include/c++/10.3.1/array **** 
 124:/Users/lawrencestanton/Library/Application Support/Code/User/globalStorage/bmd.stm32-for-vscode/@xpack-dev-tools/arm-none-eabi-gcc/10.3.1-2.3.1/.content/arm-none-eabi/include/c++/10.3.1/array ****       // Iterators.
 125:/Users/lawrencestanton/Library/Application Support/Code/User/globalStorage/bmd.stm32-for-vscode/@xpack-dev-tools/arm-none-eabi-gcc/10.3.1-2.3.1/.content/arm-none-eabi/include/c++/10.3.1/array ****       _GLIBCXX17_CONSTEXPR iterator
 126:/Users/lawrencestanton/Library/Application Support/Code/User/globalStorage/bmd.stm32-for-vscode/@xpack-dev-tools/arm-none-eabi-gcc/10.3.1-2.3.1/.content/arm-none-eabi/include/c++/10.3.1/array ****       begin() noexcept
 127:/Users/lawrencestanton/Library/Application Support/Code/User/globalStorage/bmd.stm32-for-vscode/@xpack-dev-tools/arm-none-eabi-gcc/10.3.1-2.3.1/.content/arm-none-eabi/include/c++/10.3.1/array ****       { return iterator(data()); }
 128:/Users/lawrencestanton/Library/Application Support/Code/User/globalStorage/bmd.stm32-for-vscode/@xpack-dev-tools/arm-none-eabi-gcc/10.3.1-2.3.1/.content/arm-none-eabi/include/c++/10.3.1/array **** 
 129:/Users/lawrencestanton/Library/Application Support/Code/User/globalStorage/bmd.stm32-for-vscode/@xpack-dev-tools/arm-none-eabi-gcc/10.3.1-2.3.1/.content/arm-none-eabi/include/c++/10.3.1/array ****       _GLIBCXX17_CONSTEXPR const_iterator
 130:/Users/lawrencestanton/Library/Application Support/Code/User/globalStorage/bmd.stm32-for-vscode/@xpack-dev-tools/arm-none-eabi-gcc/10.3.1-2.3.1/.content/arm-none-eabi/include/c++/10.3.1/array ****       begin() const noexcept
 1064              		.loc 7 130 7
 1065              		.cfi_startproc
 1066              		@ args = 0, pretend = 0, frame = 8
 1067              		@ frame_needed = 1, uses_anonymous_args = 0
 1068 0000 80B5     		push	{r7, lr}
 1069              		.cfi_def_cfa_offset 8
 1070              		.cfi_offset 7, -8
 1071              		.cfi_offset 14, -4
 1072 0002 82B0     		sub	sp, sp, #8
 1073              		.cfi_def_cfa_offset 16
 1074 0004 00AF     		add	r7, sp, #0
 1075              		.cfi_def_cfa_register 7
 1076 0006 7860     		str	r0, [r7, #4]
 131:/Users/lawrencestanton/Library/Application Support/Code/User/globalStorage/bmd.stm32-for-vscode/@xpack-dev-tools/arm-none-eabi-gcc/10.3.1-2.3.1/.content/arm-none-eabi/include/c++/10.3.1/array ****       { return const_iterator(data()); }
 1077              		.loc 7 131 35
 1078 0008 7868     		ldr	r0, [r7, #4]
 1079 000a FFF7FEFF 		bl	_ZNKSt5arrayIN8M9N_Base9NMEA_PUBX7MessageELj7EE4dataEv
 1080 000e 0346     		mov	r3, r0
 1081              		.loc 7 131 40
 1082 0010 1846     		mov	r0, r3
 1083 0012 0837     		adds	r7, r7, #8
 1084              		.cfi_def_cfa_offset 8
 1085 0014 BD46     		mov	sp, r7
 1086              		.cfi_def_cfa_register 13
 1087              		@ sp needed
 1088 0016 80BD     		pop	{r7, pc}
 1089              		.cfi_endproc
 1090              	.LFE2215:
 1091              		.cantunwind
 1092              		.fnend
 1094              		.section	.text._ZNKSt5arrayIN8M9N_Base9NMEA_PUBX7MessageELj7EE3endEv,"axG",%progbits,_ZNKSt5arrayI
 1095              		.align	1
 1096              		.weak	_ZNKSt5arrayIN8M9N_Base9NMEA_PUBX7MessageELj7EE3endEv
 1097              		.syntax unified
 1098              		.thumb
 1099              		.thumb_func
 1101              	_ZNKSt5arrayIN8M9N_Base9NMEA_PUBX7MessageELj7EE3endEv:
 1102              		.fnstart
 1103              	.LFB2216:
ARM GAS  /var/folders/bb/dhrb69655gd8t4nf464nxc_00000gn/T//ccX9z21m.s 			page 31


 132:/Users/lawrencestanton/Library/Application Support/Code/User/globalStorage/bmd.stm32-for-vscode/@xpack-dev-tools/arm-none-eabi-gcc/10.3.1-2.3.1/.content/arm-none-eabi/include/c++/10.3.1/array **** 
 133:/Users/lawrencestanton/Library/Application Support/Code/User/globalStorage/bmd.stm32-for-vscode/@xpack-dev-tools/arm-none-eabi-gcc/10.3.1-2.3.1/.content/arm-none-eabi/include/c++/10.3.1/array ****       _GLIBCXX17_CONSTEXPR iterator
 134:/Users/lawrencestanton/Library/Application Support/Code/User/globalStorage/bmd.stm32-for-vscode/@xpack-dev-tools/arm-none-eabi-gcc/10.3.1-2.3.1/.content/arm-none-eabi/include/c++/10.3.1/array ****       end() noexcept
 135:/Users/lawrencestanton/Library/Application Support/Code/User/globalStorage/bmd.stm32-for-vscode/@xpack-dev-tools/arm-none-eabi-gcc/10.3.1-2.3.1/.content/arm-none-eabi/include/c++/10.3.1/array ****       { return iterator(data() + _Nm); }
 136:/Users/lawrencestanton/Library/Application Support/Code/User/globalStorage/bmd.stm32-for-vscode/@xpack-dev-tools/arm-none-eabi-gcc/10.3.1-2.3.1/.content/arm-none-eabi/include/c++/10.3.1/array **** 
 137:/Users/lawrencestanton/Library/Application Support/Code/User/globalStorage/bmd.stm32-for-vscode/@xpack-dev-tools/arm-none-eabi-gcc/10.3.1-2.3.1/.content/arm-none-eabi/include/c++/10.3.1/array ****       _GLIBCXX17_CONSTEXPR const_iterator
 138:/Users/lawrencestanton/Library/Application Support/Code/User/globalStorage/bmd.stm32-for-vscode/@xpack-dev-tools/arm-none-eabi-gcc/10.3.1-2.3.1/.content/arm-none-eabi/include/c++/10.3.1/array ****       end() const noexcept
 1104              		.loc 7 138 7
 1105              		.cfi_startproc
 1106              		@ args = 0, pretend = 0, frame = 8
 1107              		@ frame_needed = 1, uses_anonymous_args = 0
 1108 0000 80B5     		push	{r7, lr}
 1109              		.cfi_def_cfa_offset 8
 1110              		.cfi_offset 7, -8
 1111              		.cfi_offset 14, -4
 1112 0002 82B0     		sub	sp, sp, #8
 1113              		.cfi_def_cfa_offset 16
 1114 0004 00AF     		add	r7, sp, #0
 1115              		.cfi_def_cfa_register 7
 1116 0006 7860     		str	r0, [r7, #4]
 139:/Users/lawrencestanton/Library/Application Support/Code/User/globalStorage/bmd.stm32-for-vscode/@xpack-dev-tools/arm-none-eabi-gcc/10.3.1-2.3.1/.content/arm-none-eabi/include/c++/10.3.1/array ****       { return const_iterator(data() + _Nm); }
 1117              		.loc 7 139 35
 1118 0008 7868     		ldr	r0, [r7, #4]
 1119 000a FFF7FEFF 		bl	_ZNKSt5arrayIN8M9N_Base9NMEA_PUBX7MessageELj7EE4dataEv
 1120 000e 0346     		mov	r3, r0
 1121              		.loc 7 139 43
 1122 0010 1C33     		adds	r3, r3, #28
 1123              		.loc 7 139 46
 1124 0012 1846     		mov	r0, r3
 1125 0014 0837     		adds	r7, r7, #8
 1126              		.cfi_def_cfa_offset 8
 1127 0016 BD46     		mov	sp, r7
 1128              		.cfi_def_cfa_register 13
 1129              		@ sp needed
 1130 0018 80BD     		pop	{r7, pc}
 1131              		.cfi_endproc
 1132              	.LFE2216:
 1133              		.cantunwind
 1134              		.fnend
 1136              		.section	.text._ZNKSt5arrayIN8M9N_Base9NMEA_PUBX7MessageELj7EE4dataEv,"axG",%progbits,_ZNKSt5array
 1137              		.align	1
 1138              		.weak	_ZNKSt5arrayIN8M9N_Base9NMEA_PUBX7MessageELj7EE4dataEv
 1139              		.syntax unified
 1140              		.thumb
 1141              		.thumb_func
 1143              	_ZNKSt5arrayIN8M9N_Base9NMEA_PUBX7MessageELj7EE4dataEv:
 1144              		.fnstart
 1145              	.LFB2352:
 140:/Users/lawrencestanton/Library/Application Support/Code/User/globalStorage/bmd.stm32-for-vscode/@xpack-dev-tools/arm-none-eabi-gcc/10.3.1-2.3.1/.content/arm-none-eabi/include/c++/10.3.1/array **** 
 141:/Users/lawrencestanton/Library/Application Support/Code/User/globalStorage/bmd.stm32-for-vscode/@xpack-dev-tools/arm-none-eabi-gcc/10.3.1-2.3.1/.content/arm-none-eabi/include/c++/10.3.1/array ****       _GLIBCXX17_CONSTEXPR reverse_iterator
 142:/Users/lawrencestanton/Library/Application Support/Code/User/globalStorage/bmd.stm32-for-vscode/@xpack-dev-tools/arm-none-eabi-gcc/10.3.1-2.3.1/.content/arm-none-eabi/include/c++/10.3.1/array ****       rbegin() noexcept
 143:/Users/lawrencestanton/Library/Application Support/Code/User/globalStorage/bmd.stm32-for-vscode/@xpack-dev-tools/arm-none-eabi-gcc/10.3.1-2.3.1/.content/arm-none-eabi/include/c++/10.3.1/array ****       { return reverse_iterator(end()); }
 144:/Users/lawrencestanton/Library/Application Support/Code/User/globalStorage/bmd.stm32-for-vscode/@xpack-dev-tools/arm-none-eabi-gcc/10.3.1-2.3.1/.content/arm-none-eabi/include/c++/10.3.1/array **** 
 145:/Users/lawrencestanton/Library/Application Support/Code/User/globalStorage/bmd.stm32-for-vscode/@xpack-dev-tools/arm-none-eabi-gcc/10.3.1-2.3.1/.content/arm-none-eabi/include/c++/10.3.1/array ****       _GLIBCXX17_CONSTEXPR const_reverse_iterator
 146:/Users/lawrencestanton/Library/Application Support/Code/User/globalStorage/bmd.stm32-for-vscode/@xpack-dev-tools/arm-none-eabi-gcc/10.3.1-2.3.1/.content/arm-none-eabi/include/c++/10.3.1/array ****       rbegin() const noexcept
 147:/Users/lawrencestanton/Library/Application Support/Code/User/globalStorage/bmd.stm32-for-vscode/@xpack-dev-tools/arm-none-eabi-gcc/10.3.1-2.3.1/.content/arm-none-eabi/include/c++/10.3.1/array ****       { return const_reverse_iterator(end()); }
 148:/Users/lawrencestanton/Library/Application Support/Code/User/globalStorage/bmd.stm32-for-vscode/@xpack-dev-tools/arm-none-eabi-gcc/10.3.1-2.3.1/.content/arm-none-eabi/include/c++/10.3.1/array **** 
ARM GAS  /var/folders/bb/dhrb69655gd8t4nf464nxc_00000gn/T//ccX9z21m.s 			page 32


 149:/Users/lawrencestanton/Library/Application Support/Code/User/globalStorage/bmd.stm32-for-vscode/@xpack-dev-tools/arm-none-eabi-gcc/10.3.1-2.3.1/.content/arm-none-eabi/include/c++/10.3.1/array ****       _GLIBCXX17_CONSTEXPR reverse_iterator
 150:/Users/lawrencestanton/Library/Application Support/Code/User/globalStorage/bmd.stm32-for-vscode/@xpack-dev-tools/arm-none-eabi-gcc/10.3.1-2.3.1/.content/arm-none-eabi/include/c++/10.3.1/array ****       rend() noexcept
 151:/Users/lawrencestanton/Library/Application Support/Code/User/globalStorage/bmd.stm32-for-vscode/@xpack-dev-tools/arm-none-eabi-gcc/10.3.1-2.3.1/.content/arm-none-eabi/include/c++/10.3.1/array ****       { return reverse_iterator(begin()); }
 152:/Users/lawrencestanton/Library/Application Support/Code/User/globalStorage/bmd.stm32-for-vscode/@xpack-dev-tools/arm-none-eabi-gcc/10.3.1-2.3.1/.content/arm-none-eabi/include/c++/10.3.1/array **** 
 153:/Users/lawrencestanton/Library/Application Support/Code/User/globalStorage/bmd.stm32-for-vscode/@xpack-dev-tools/arm-none-eabi-gcc/10.3.1-2.3.1/.content/arm-none-eabi/include/c++/10.3.1/array ****       _GLIBCXX17_CONSTEXPR const_reverse_iterator
 154:/Users/lawrencestanton/Library/Application Support/Code/User/globalStorage/bmd.stm32-for-vscode/@xpack-dev-tools/arm-none-eabi-gcc/10.3.1-2.3.1/.content/arm-none-eabi/include/c++/10.3.1/array ****       rend() const noexcept
 155:/Users/lawrencestanton/Library/Application Support/Code/User/globalStorage/bmd.stm32-for-vscode/@xpack-dev-tools/arm-none-eabi-gcc/10.3.1-2.3.1/.content/arm-none-eabi/include/c++/10.3.1/array ****       { return const_reverse_iterator(begin()); }
 156:/Users/lawrencestanton/Library/Application Support/Code/User/globalStorage/bmd.stm32-for-vscode/@xpack-dev-tools/arm-none-eabi-gcc/10.3.1-2.3.1/.content/arm-none-eabi/include/c++/10.3.1/array **** 
 157:/Users/lawrencestanton/Library/Application Support/Code/User/globalStorage/bmd.stm32-for-vscode/@xpack-dev-tools/arm-none-eabi-gcc/10.3.1-2.3.1/.content/arm-none-eabi/include/c++/10.3.1/array ****       _GLIBCXX17_CONSTEXPR const_iterator
 158:/Users/lawrencestanton/Library/Application Support/Code/User/globalStorage/bmd.stm32-for-vscode/@xpack-dev-tools/arm-none-eabi-gcc/10.3.1-2.3.1/.content/arm-none-eabi/include/c++/10.3.1/array ****       cbegin() const noexcept
 159:/Users/lawrencestanton/Library/Application Support/Code/User/globalStorage/bmd.stm32-for-vscode/@xpack-dev-tools/arm-none-eabi-gcc/10.3.1-2.3.1/.content/arm-none-eabi/include/c++/10.3.1/array ****       { return const_iterator(data()); }
 160:/Users/lawrencestanton/Library/Application Support/Code/User/globalStorage/bmd.stm32-for-vscode/@xpack-dev-tools/arm-none-eabi-gcc/10.3.1-2.3.1/.content/arm-none-eabi/include/c++/10.3.1/array **** 
 161:/Users/lawrencestanton/Library/Application Support/Code/User/globalStorage/bmd.stm32-for-vscode/@xpack-dev-tools/arm-none-eabi-gcc/10.3.1-2.3.1/.content/arm-none-eabi/include/c++/10.3.1/array ****       _GLIBCXX17_CONSTEXPR const_iterator
 162:/Users/lawrencestanton/Library/Application Support/Code/User/globalStorage/bmd.stm32-for-vscode/@xpack-dev-tools/arm-none-eabi-gcc/10.3.1-2.3.1/.content/arm-none-eabi/include/c++/10.3.1/array ****       cend() const noexcept
 163:/Users/lawrencestanton/Library/Application Support/Code/User/globalStorage/bmd.stm32-for-vscode/@xpack-dev-tools/arm-none-eabi-gcc/10.3.1-2.3.1/.content/arm-none-eabi/include/c++/10.3.1/array ****       { return const_iterator(data() + _Nm); }
 164:/Users/lawrencestanton/Library/Application Support/Code/User/globalStorage/bmd.stm32-for-vscode/@xpack-dev-tools/arm-none-eabi-gcc/10.3.1-2.3.1/.content/arm-none-eabi/include/c++/10.3.1/array **** 
 165:/Users/lawrencestanton/Library/Application Support/Code/User/globalStorage/bmd.stm32-for-vscode/@xpack-dev-tools/arm-none-eabi-gcc/10.3.1-2.3.1/.content/arm-none-eabi/include/c++/10.3.1/array ****       _GLIBCXX17_CONSTEXPR const_reverse_iterator
 166:/Users/lawrencestanton/Library/Application Support/Code/User/globalStorage/bmd.stm32-for-vscode/@xpack-dev-tools/arm-none-eabi-gcc/10.3.1-2.3.1/.content/arm-none-eabi/include/c++/10.3.1/array ****       crbegin() const noexcept
 167:/Users/lawrencestanton/Library/Application Support/Code/User/globalStorage/bmd.stm32-for-vscode/@xpack-dev-tools/arm-none-eabi-gcc/10.3.1-2.3.1/.content/arm-none-eabi/include/c++/10.3.1/array ****       { return const_reverse_iterator(end()); }
 168:/Users/lawrencestanton/Library/Application Support/Code/User/globalStorage/bmd.stm32-for-vscode/@xpack-dev-tools/arm-none-eabi-gcc/10.3.1-2.3.1/.content/arm-none-eabi/include/c++/10.3.1/array **** 
 169:/Users/lawrencestanton/Library/Application Support/Code/User/globalStorage/bmd.stm32-for-vscode/@xpack-dev-tools/arm-none-eabi-gcc/10.3.1-2.3.1/.content/arm-none-eabi/include/c++/10.3.1/array ****       _GLIBCXX17_CONSTEXPR const_reverse_iterator
 170:/Users/lawrencestanton/Library/Application Support/Code/User/globalStorage/bmd.stm32-for-vscode/@xpack-dev-tools/arm-none-eabi-gcc/10.3.1-2.3.1/.content/arm-none-eabi/include/c++/10.3.1/array ****       crend() const noexcept
 171:/Users/lawrencestanton/Library/Application Support/Code/User/globalStorage/bmd.stm32-for-vscode/@xpack-dev-tools/arm-none-eabi-gcc/10.3.1-2.3.1/.content/arm-none-eabi/include/c++/10.3.1/array ****       { return const_reverse_iterator(begin()); }
 172:/Users/lawrencestanton/Library/Application Support/Code/User/globalStorage/bmd.stm32-for-vscode/@xpack-dev-tools/arm-none-eabi-gcc/10.3.1-2.3.1/.content/arm-none-eabi/include/c++/10.3.1/array **** 
 173:/Users/lawrencestanton/Library/Application Support/Code/User/globalStorage/bmd.stm32-for-vscode/@xpack-dev-tools/arm-none-eabi-gcc/10.3.1-2.3.1/.content/arm-none-eabi/include/c++/10.3.1/array ****       // Capacity.
 174:/Users/lawrencestanton/Library/Application Support/Code/User/globalStorage/bmd.stm32-for-vscode/@xpack-dev-tools/arm-none-eabi-gcc/10.3.1-2.3.1/.content/arm-none-eabi/include/c++/10.3.1/array ****       constexpr size_type
 175:/Users/lawrencestanton/Library/Application Support/Code/User/globalStorage/bmd.stm32-for-vscode/@xpack-dev-tools/arm-none-eabi-gcc/10.3.1-2.3.1/.content/arm-none-eabi/include/c++/10.3.1/array ****       size() const noexcept { return _Nm; }
 176:/Users/lawrencestanton/Library/Application Support/Code/User/globalStorage/bmd.stm32-for-vscode/@xpack-dev-tools/arm-none-eabi-gcc/10.3.1-2.3.1/.content/arm-none-eabi/include/c++/10.3.1/array **** 
 177:/Users/lawrencestanton/Library/Application Support/Code/User/globalStorage/bmd.stm32-for-vscode/@xpack-dev-tools/arm-none-eabi-gcc/10.3.1-2.3.1/.content/arm-none-eabi/include/c++/10.3.1/array ****       constexpr size_type
 178:/Users/lawrencestanton/Library/Application Support/Code/User/globalStorage/bmd.stm32-for-vscode/@xpack-dev-tools/arm-none-eabi-gcc/10.3.1-2.3.1/.content/arm-none-eabi/include/c++/10.3.1/array ****       max_size() const noexcept { return _Nm; }
 179:/Users/lawrencestanton/Library/Application Support/Code/User/globalStorage/bmd.stm32-for-vscode/@xpack-dev-tools/arm-none-eabi-gcc/10.3.1-2.3.1/.content/arm-none-eabi/include/c++/10.3.1/array **** 
 180:/Users/lawrencestanton/Library/Application Support/Code/User/globalStorage/bmd.stm32-for-vscode/@xpack-dev-tools/arm-none-eabi-gcc/10.3.1-2.3.1/.content/arm-none-eabi/include/c++/10.3.1/array ****       _GLIBCXX_NODISCARD constexpr bool
 181:/Users/lawrencestanton/Library/Application Support/Code/User/globalStorage/bmd.stm32-for-vscode/@xpack-dev-tools/arm-none-eabi-gcc/10.3.1-2.3.1/.content/arm-none-eabi/include/c++/10.3.1/array ****       empty() const noexcept { return size() == 0; }
 182:/Users/lawrencestanton/Library/Application Support/Code/User/globalStorage/bmd.stm32-for-vscode/@xpack-dev-tools/arm-none-eabi-gcc/10.3.1-2.3.1/.content/arm-none-eabi/include/c++/10.3.1/array **** 
 183:/Users/lawrencestanton/Library/Application Support/Code/User/globalStorage/bmd.stm32-for-vscode/@xpack-dev-tools/arm-none-eabi-gcc/10.3.1-2.3.1/.content/arm-none-eabi/include/c++/10.3.1/array ****       // Element access.
 184:/Users/lawrencestanton/Library/Application Support/Code/User/globalStorage/bmd.stm32-for-vscode/@xpack-dev-tools/arm-none-eabi-gcc/10.3.1-2.3.1/.content/arm-none-eabi/include/c++/10.3.1/array ****       _GLIBCXX17_CONSTEXPR reference
 185:/Users/lawrencestanton/Library/Application Support/Code/User/globalStorage/bmd.stm32-for-vscode/@xpack-dev-tools/arm-none-eabi-gcc/10.3.1-2.3.1/.content/arm-none-eabi/include/c++/10.3.1/array ****       operator[](size_type __n) noexcept
 186:/Users/lawrencestanton/Library/Application Support/Code/User/globalStorage/bmd.stm32-for-vscode/@xpack-dev-tools/arm-none-eabi-gcc/10.3.1-2.3.1/.content/arm-none-eabi/include/c++/10.3.1/array ****       { return _AT_Type::_S_ref(_M_elems, __n); }
 187:/Users/lawrencestanton/Library/Application Support/Code/User/globalStorage/bmd.stm32-for-vscode/@xpack-dev-tools/arm-none-eabi-gcc/10.3.1-2.3.1/.content/arm-none-eabi/include/c++/10.3.1/array **** 
 188:/Users/lawrencestanton/Library/Application Support/Code/User/globalStorage/bmd.stm32-for-vscode/@xpack-dev-tools/arm-none-eabi-gcc/10.3.1-2.3.1/.content/arm-none-eabi/include/c++/10.3.1/array ****       constexpr const_reference
 189:/Users/lawrencestanton/Library/Application Support/Code/User/globalStorage/bmd.stm32-for-vscode/@xpack-dev-tools/arm-none-eabi-gcc/10.3.1-2.3.1/.content/arm-none-eabi/include/c++/10.3.1/array ****       operator[](size_type __n) const noexcept
 190:/Users/lawrencestanton/Library/Application Support/Code/User/globalStorage/bmd.stm32-for-vscode/@xpack-dev-tools/arm-none-eabi-gcc/10.3.1-2.3.1/.content/arm-none-eabi/include/c++/10.3.1/array ****       { return _AT_Type::_S_ref(_M_elems, __n); }
 191:/Users/lawrencestanton/Library/Application Support/Code/User/globalStorage/bmd.stm32-for-vscode/@xpack-dev-tools/arm-none-eabi-gcc/10.3.1-2.3.1/.content/arm-none-eabi/include/c++/10.3.1/array **** 
 192:/Users/lawrencestanton/Library/Application Support/Code/User/globalStorage/bmd.stm32-for-vscode/@xpack-dev-tools/arm-none-eabi-gcc/10.3.1-2.3.1/.content/arm-none-eabi/include/c++/10.3.1/array ****       _GLIBCXX17_CONSTEXPR reference
 193:/Users/lawrencestanton/Library/Application Support/Code/User/globalStorage/bmd.stm32-for-vscode/@xpack-dev-tools/arm-none-eabi-gcc/10.3.1-2.3.1/.content/arm-none-eabi/include/c++/10.3.1/array ****       at(size_type __n)
 194:/Users/lawrencestanton/Library/Application Support/Code/User/globalStorage/bmd.stm32-for-vscode/@xpack-dev-tools/arm-none-eabi-gcc/10.3.1-2.3.1/.content/arm-none-eabi/include/c++/10.3.1/array ****       {
 195:/Users/lawrencestanton/Library/Application Support/Code/User/globalStorage/bmd.stm32-for-vscode/@xpack-dev-tools/arm-none-eabi-gcc/10.3.1-2.3.1/.content/arm-none-eabi/include/c++/10.3.1/array **** 	if (__n >= _Nm)
 196:/Users/lawrencestanton/Library/Application Support/Code/User/globalStorage/bmd.stm32-for-vscode/@xpack-dev-tools/arm-none-eabi-gcc/10.3.1-2.3.1/.content/arm-none-eabi/include/c++/10.3.1/array **** 	  std::__throw_out_of_range_fmt(__N("array::at: __n (which is %zu) "
 197:/Users/lawrencestanton/Library/Application Support/Code/User/globalStorage/bmd.stm32-for-vscode/@xpack-dev-tools/arm-none-eabi-gcc/10.3.1-2.3.1/.content/arm-none-eabi/include/c++/10.3.1/array **** 					    ">= _Nm (which is %zu)"),
 198:/Users/lawrencestanton/Library/Application Support/Code/User/globalStorage/bmd.stm32-for-vscode/@xpack-dev-tools/arm-none-eabi-gcc/10.3.1-2.3.1/.content/arm-none-eabi/include/c++/10.3.1/array **** 					__n, _Nm);
 199:/Users/lawrencestanton/Library/Application Support/Code/User/globalStorage/bmd.stm32-for-vscode/@xpack-dev-tools/arm-none-eabi-gcc/10.3.1-2.3.1/.content/arm-none-eabi/include/c++/10.3.1/array **** 	return _AT_Type::_S_ref(_M_elems, __n);
 200:/Users/lawrencestanton/Library/Application Support/Code/User/globalStorage/bmd.stm32-for-vscode/@xpack-dev-tools/arm-none-eabi-gcc/10.3.1-2.3.1/.content/arm-none-eabi/include/c++/10.3.1/array ****       }
 201:/Users/lawrencestanton/Library/Application Support/Code/User/globalStorage/bmd.stm32-for-vscode/@xpack-dev-tools/arm-none-eabi-gcc/10.3.1-2.3.1/.content/arm-none-eabi/include/c++/10.3.1/array **** 
 202:/Users/lawrencestanton/Library/Application Support/Code/User/globalStorage/bmd.stm32-for-vscode/@xpack-dev-tools/arm-none-eabi-gcc/10.3.1-2.3.1/.content/arm-none-eabi/include/c++/10.3.1/array ****       constexpr const_reference
 203:/Users/lawrencestanton/Library/Application Support/Code/User/globalStorage/bmd.stm32-for-vscode/@xpack-dev-tools/arm-none-eabi-gcc/10.3.1-2.3.1/.content/arm-none-eabi/include/c++/10.3.1/array ****       at(size_type __n) const
 204:/Users/lawrencestanton/Library/Application Support/Code/User/globalStorage/bmd.stm32-for-vscode/@xpack-dev-tools/arm-none-eabi-gcc/10.3.1-2.3.1/.content/arm-none-eabi/include/c++/10.3.1/array ****       {
 205:/Users/lawrencestanton/Library/Application Support/Code/User/globalStorage/bmd.stm32-for-vscode/@xpack-dev-tools/arm-none-eabi-gcc/10.3.1-2.3.1/.content/arm-none-eabi/include/c++/10.3.1/array **** 	// Result of conditional expression must be an lvalue so use
ARM GAS  /var/folders/bb/dhrb69655gd8t4nf464nxc_00000gn/T//ccX9z21m.s 			page 33


 206:/Users/lawrencestanton/Library/Application Support/Code/User/globalStorage/bmd.stm32-for-vscode/@xpack-dev-tools/arm-none-eabi-gcc/10.3.1-2.3.1/.content/arm-none-eabi/include/c++/10.3.1/array **** 	// boolean ? lvalue : (throw-expr, lvalue)
 207:/Users/lawrencestanton/Library/Application Support/Code/User/globalStorage/bmd.stm32-for-vscode/@xpack-dev-tools/arm-none-eabi-gcc/10.3.1-2.3.1/.content/arm-none-eabi/include/c++/10.3.1/array **** 	return __n < _Nm ? _AT_Type::_S_ref(_M_elems, __n)
 208:/Users/lawrencestanton/Library/Application Support/Code/User/globalStorage/bmd.stm32-for-vscode/@xpack-dev-tools/arm-none-eabi-gcc/10.3.1-2.3.1/.content/arm-none-eabi/include/c++/10.3.1/array **** 	  : (std::__throw_out_of_range_fmt(__N("array::at: __n (which is %zu) "
 209:/Users/lawrencestanton/Library/Application Support/Code/User/globalStorage/bmd.stm32-for-vscode/@xpack-dev-tools/arm-none-eabi-gcc/10.3.1-2.3.1/.content/arm-none-eabi/include/c++/10.3.1/array **** 					       ">= _Nm (which is %zu)"),
 210:/Users/lawrencestanton/Library/Application Support/Code/User/globalStorage/bmd.stm32-for-vscode/@xpack-dev-tools/arm-none-eabi-gcc/10.3.1-2.3.1/.content/arm-none-eabi/include/c++/10.3.1/array **** 					   __n, _Nm),
 211:/Users/lawrencestanton/Library/Application Support/Code/User/globalStorage/bmd.stm32-for-vscode/@xpack-dev-tools/arm-none-eabi-gcc/10.3.1-2.3.1/.content/arm-none-eabi/include/c++/10.3.1/array **** 	     _AT_Type::_S_ref(_M_elems, 0));
 212:/Users/lawrencestanton/Library/Application Support/Code/User/globalStorage/bmd.stm32-for-vscode/@xpack-dev-tools/arm-none-eabi-gcc/10.3.1-2.3.1/.content/arm-none-eabi/include/c++/10.3.1/array ****       }
 213:/Users/lawrencestanton/Library/Application Support/Code/User/globalStorage/bmd.stm32-for-vscode/@xpack-dev-tools/arm-none-eabi-gcc/10.3.1-2.3.1/.content/arm-none-eabi/include/c++/10.3.1/array **** 
 214:/Users/lawrencestanton/Library/Application Support/Code/User/globalStorage/bmd.stm32-for-vscode/@xpack-dev-tools/arm-none-eabi-gcc/10.3.1-2.3.1/.content/arm-none-eabi/include/c++/10.3.1/array ****       _GLIBCXX17_CONSTEXPR reference
 215:/Users/lawrencestanton/Library/Application Support/Code/User/globalStorage/bmd.stm32-for-vscode/@xpack-dev-tools/arm-none-eabi-gcc/10.3.1-2.3.1/.content/arm-none-eabi/include/c++/10.3.1/array ****       front() noexcept
 216:/Users/lawrencestanton/Library/Application Support/Code/User/globalStorage/bmd.stm32-for-vscode/@xpack-dev-tools/arm-none-eabi-gcc/10.3.1-2.3.1/.content/arm-none-eabi/include/c++/10.3.1/array ****       { return *begin(); }
 217:/Users/lawrencestanton/Library/Application Support/Code/User/globalStorage/bmd.stm32-for-vscode/@xpack-dev-tools/arm-none-eabi-gcc/10.3.1-2.3.1/.content/arm-none-eabi/include/c++/10.3.1/array **** 
 218:/Users/lawrencestanton/Library/Application Support/Code/User/globalStorage/bmd.stm32-for-vscode/@xpack-dev-tools/arm-none-eabi-gcc/10.3.1-2.3.1/.content/arm-none-eabi/include/c++/10.3.1/array ****       constexpr const_reference
 219:/Users/lawrencestanton/Library/Application Support/Code/User/globalStorage/bmd.stm32-for-vscode/@xpack-dev-tools/arm-none-eabi-gcc/10.3.1-2.3.1/.content/arm-none-eabi/include/c++/10.3.1/array ****       front() const noexcept
 220:/Users/lawrencestanton/Library/Application Support/Code/User/globalStorage/bmd.stm32-for-vscode/@xpack-dev-tools/arm-none-eabi-gcc/10.3.1-2.3.1/.content/arm-none-eabi/include/c++/10.3.1/array ****       { return _AT_Type::_S_ref(_M_elems, 0); }
 221:/Users/lawrencestanton/Library/Application Support/Code/User/globalStorage/bmd.stm32-for-vscode/@xpack-dev-tools/arm-none-eabi-gcc/10.3.1-2.3.1/.content/arm-none-eabi/include/c++/10.3.1/array **** 
 222:/Users/lawrencestanton/Library/Application Support/Code/User/globalStorage/bmd.stm32-for-vscode/@xpack-dev-tools/arm-none-eabi-gcc/10.3.1-2.3.1/.content/arm-none-eabi/include/c++/10.3.1/array ****       _GLIBCXX17_CONSTEXPR reference
 223:/Users/lawrencestanton/Library/Application Support/Code/User/globalStorage/bmd.stm32-for-vscode/@xpack-dev-tools/arm-none-eabi-gcc/10.3.1-2.3.1/.content/arm-none-eabi/include/c++/10.3.1/array ****       back() noexcept
 224:/Users/lawrencestanton/Library/Application Support/Code/User/globalStorage/bmd.stm32-for-vscode/@xpack-dev-tools/arm-none-eabi-gcc/10.3.1-2.3.1/.content/arm-none-eabi/include/c++/10.3.1/array ****       { return _Nm ? *(end() - 1) : *end(); }
 225:/Users/lawrencestanton/Library/Application Support/Code/User/globalStorage/bmd.stm32-for-vscode/@xpack-dev-tools/arm-none-eabi-gcc/10.3.1-2.3.1/.content/arm-none-eabi/include/c++/10.3.1/array **** 
 226:/Users/lawrencestanton/Library/Application Support/Code/User/globalStorage/bmd.stm32-for-vscode/@xpack-dev-tools/arm-none-eabi-gcc/10.3.1-2.3.1/.content/arm-none-eabi/include/c++/10.3.1/array ****       constexpr const_reference
 227:/Users/lawrencestanton/Library/Application Support/Code/User/globalStorage/bmd.stm32-for-vscode/@xpack-dev-tools/arm-none-eabi-gcc/10.3.1-2.3.1/.content/arm-none-eabi/include/c++/10.3.1/array ****       back() const noexcept
 228:/Users/lawrencestanton/Library/Application Support/Code/User/globalStorage/bmd.stm32-for-vscode/@xpack-dev-tools/arm-none-eabi-gcc/10.3.1-2.3.1/.content/arm-none-eabi/include/c++/10.3.1/array ****       {
 229:/Users/lawrencestanton/Library/Application Support/Code/User/globalStorage/bmd.stm32-for-vscode/@xpack-dev-tools/arm-none-eabi-gcc/10.3.1-2.3.1/.content/arm-none-eabi/include/c++/10.3.1/array **** 	return _Nm ? _AT_Type::_S_ref(_M_elems, _Nm - 1)
 230:/Users/lawrencestanton/Library/Application Support/Code/User/globalStorage/bmd.stm32-for-vscode/@xpack-dev-tools/arm-none-eabi-gcc/10.3.1-2.3.1/.content/arm-none-eabi/include/c++/10.3.1/array ****  	           : _AT_Type::_S_ref(_M_elems, 0);
 231:/Users/lawrencestanton/Library/Application Support/Code/User/globalStorage/bmd.stm32-for-vscode/@xpack-dev-tools/arm-none-eabi-gcc/10.3.1-2.3.1/.content/arm-none-eabi/include/c++/10.3.1/array ****       }
 232:/Users/lawrencestanton/Library/Application Support/Code/User/globalStorage/bmd.stm32-for-vscode/@xpack-dev-tools/arm-none-eabi-gcc/10.3.1-2.3.1/.content/arm-none-eabi/include/c++/10.3.1/array **** 
 233:/Users/lawrencestanton/Library/Application Support/Code/User/globalStorage/bmd.stm32-for-vscode/@xpack-dev-tools/arm-none-eabi-gcc/10.3.1-2.3.1/.content/arm-none-eabi/include/c++/10.3.1/array ****       _GLIBCXX17_CONSTEXPR pointer
 234:/Users/lawrencestanton/Library/Application Support/Code/User/globalStorage/bmd.stm32-for-vscode/@xpack-dev-tools/arm-none-eabi-gcc/10.3.1-2.3.1/.content/arm-none-eabi/include/c++/10.3.1/array ****       data() noexcept
 235:/Users/lawrencestanton/Library/Application Support/Code/User/globalStorage/bmd.stm32-for-vscode/@xpack-dev-tools/arm-none-eabi-gcc/10.3.1-2.3.1/.content/arm-none-eabi/include/c++/10.3.1/array ****       { return _AT_Type::_S_ptr(_M_elems); }
 236:/Users/lawrencestanton/Library/Application Support/Code/User/globalStorage/bmd.stm32-for-vscode/@xpack-dev-tools/arm-none-eabi-gcc/10.3.1-2.3.1/.content/arm-none-eabi/include/c++/10.3.1/array **** 
 237:/Users/lawrencestanton/Library/Application Support/Code/User/globalStorage/bmd.stm32-for-vscode/@xpack-dev-tools/arm-none-eabi-gcc/10.3.1-2.3.1/.content/arm-none-eabi/include/c++/10.3.1/array ****       _GLIBCXX17_CONSTEXPR const_pointer
 238:/Users/lawrencestanton/Library/Application Support/Code/User/globalStorage/bmd.stm32-for-vscode/@xpack-dev-tools/arm-none-eabi-gcc/10.3.1-2.3.1/.content/arm-none-eabi/include/c++/10.3.1/array ****       data() const noexcept
 1146              		.loc 7 238 7
 1147              		.cfi_startproc
 1148              		@ args = 0, pretend = 0, frame = 8
 1149              		@ frame_needed = 1, uses_anonymous_args = 0
 1150 0000 80B5     		push	{r7, lr}
 1151              		.cfi_def_cfa_offset 8
 1152              		.cfi_offset 7, -8
 1153              		.cfi_offset 14, -4
 1154 0002 82B0     		sub	sp, sp, #8
 1155              		.cfi_def_cfa_offset 16
 1156 0004 00AF     		add	r7, sp, #0
 1157              		.cfi_def_cfa_register 7
 1158 0006 7860     		str	r0, [r7, #4]
 239:/Users/lawrencestanton/Library/Application Support/Code/User/globalStorage/bmd.stm32-for-vscode/@xpack-dev-tools/arm-none-eabi-gcc/10.3.1-2.3.1/.content/arm-none-eabi/include/c++/10.3.1/array ****       { return _AT_Type::_S_ptr(_M_elems); }
 1159              		.loc 7 239 33
 1160 0008 7B68     		ldr	r3, [r7, #4]
 1161              		.loc 7 239 32
 1162 000a 1846     		mov	r0, r3
 1163 000c FFF7FEFF 		bl	_ZNSt14__array_traitsIN8M9N_Base9NMEA_PUBX7MessageELj7EE6_S_ptrERA7_KS2_
 1164 0010 0346     		mov	r3, r0
 1165              		.loc 7 239 44
 1166 0012 1846     		mov	r0, r3
 1167 0014 0837     		adds	r7, r7, #8
 1168              		.cfi_def_cfa_offset 8
ARM GAS  /var/folders/bb/dhrb69655gd8t4nf464nxc_00000gn/T//ccX9z21m.s 			page 34


 1169 0016 BD46     		mov	sp, r7
 1170              		.cfi_def_cfa_register 13
 1171              		@ sp needed
 1172 0018 80BD     		pop	{r7, pc}
 1173              		.cfi_endproc
 1174              	.LFE2352:
 1175              		.cantunwind
 1176              		.fnend
 1178              		.section	.text._ZNSt14__array_traitsIN8M9N_Base9NMEA_PUBX7MessageELj7EE6_S_ptrERA7_KS2_,"axG",%pro
 1179              		.align	1
 1180              		.weak	_ZNSt14__array_traitsIN8M9N_Base9NMEA_PUBX7MessageELj7EE6_S_ptrERA7_KS2_
 1181              		.syntax unified
 1182              		.thumb
 1183              		.thumb_func
 1185              	_ZNSt14__array_traitsIN8M9N_Base9NMEA_PUBX7MessageELj7EE6_S_ptrERA7_KS2_:
 1186              		.fnstart
 1187              	.LFB2403:
  59:/Users/lawrencestanton/Library/Application Support/Code/User/globalStorage/bmd.stm32-for-vscode/@xpack-dev-tools/arm-none-eabi-gcc/10.3.1-2.3.1/.content/arm-none-eabi/include/c++/10.3.1/array ****       { return const_cast<_Tp*>(__t); }
 1188              		.loc 7 59 7
 1189              		.cfi_startproc
 1190              		@ args = 0, pretend = 0, frame = 8
 1191              		@ frame_needed = 1, uses_anonymous_args = 0
 1192              		@ link register save eliminated.
 1193 0000 80B4     		push	{r7}
 1194              		.cfi_def_cfa_offset 4
 1195              		.cfi_offset 7, -4
 1196 0002 83B0     		sub	sp, sp, #12
 1197              		.cfi_def_cfa_offset 16
 1198 0004 00AF     		add	r7, sp, #0
 1199              		.cfi_def_cfa_register 7
 1200 0006 7860     		str	r0, [r7, #4]
  60:/Users/lawrencestanton/Library/Application Support/Code/User/globalStorage/bmd.stm32-for-vscode/@xpack-dev-tools/arm-none-eabi-gcc/10.3.1-2.3.1/.content/arm-none-eabi/include/c++/10.3.1/array ****     };
 1201              		.loc 7 60 36
 1202 0008 7B68     		ldr	r3, [r7, #4]
  60:/Users/lawrencestanton/Library/Application Support/Code/User/globalStorage/bmd.stm32-for-vscode/@xpack-dev-tools/arm-none-eabi-gcc/10.3.1-2.3.1/.content/arm-none-eabi/include/c++/10.3.1/array ****     };
 1203              		.loc 7 60 39
 1204 000a 1846     		mov	r0, r3
 1205 000c 0C37     		adds	r7, r7, #12
 1206              		.cfi_def_cfa_offset 4
 1207 000e BD46     		mov	sp, r7
 1208              		.cfi_def_cfa_register 13
 1209              		@ sp needed
 1210 0010 5DF8047B 		ldr	r7, [sp], #4
 1211              		.cfi_restore 7
 1212              		.cfi_def_cfa_offset 0
 1213 0014 7047     		bx	lr
 1214              		.cfi_endproc
 1215              	.LFE2403:
 1216              		.cantunwind
 1217              		.fnend
 1219              		.weak	_ZTVN8M9N_Base9NMEA_PUBX4PUBXE
 1220              		.section	.rodata._ZTVN8M9N_Base9NMEA_PUBX4PUBXE,"aG",%progbits,_ZTVN8M9N_Base9NMEA_PUBX4PUBXE,comd
 1221              		.align	2
 1224              	_ZTVN8M9N_Base9NMEA_PUBX4PUBXE:
 1225 0000 00000000 		.word	0
 1226 0004 00000000 		.word	_ZTIN8M9N_Base9NMEA_PUBX4PUBXE
 1227 0008 00000000 		.word	0
ARM GAS  /var/folders/bb/dhrb69655gd8t4nf464nxc_00000gn/T//ccX9z21m.s 			page 35


 1228 000c 00000000 		.word	0
 1229 0010 00000000 		.word	__cxa_pure_virtual
 1230              		.weak	_ZTVN8M9N_Base9NMEA_PUBXE
 1231              		.section	.rodata._ZTVN8M9N_Base9NMEA_PUBXE,"aG",%progbits,_ZTVN8M9N_Base9NMEA_PUBXE,comdat
 1232              		.align	2
 1235              	_ZTVN8M9N_Base9NMEA_PUBXE:
 1236 0000 00000000 		.word	0
 1237 0004 00000000 		.word	_ZTIN8M9N_Base9NMEA_PUBXE
 1238 0008 00000000 		.word	0
 1239 000c 00000000 		.word	0
 1240 0010 00000000 		.word	__cxa_pure_virtual
 1241              		.weak	_ZTV13NMEA_Standard
 1242              		.section	.rodata._ZTV13NMEA_Standard,"aG",%progbits,_ZTV13NMEA_Standard,comdat
 1243              		.align	2
 1246              	_ZTV13NMEA_Standard:
 1247 0000 00000000 		.word	0
 1248 0004 00000000 		.word	_ZTI13NMEA_Standard
 1249 0008 00000000 		.word	0
 1250 000c 00000000 		.word	0
 1251 0010 00000000 		.word	__cxa_pure_virtual
 1252              		.weak	_ZTIN8M9N_Base9NMEA_PUBX4PUBXE
 1253              		.section	.rodata._ZTIN8M9N_Base9NMEA_PUBX4PUBXE,"aG",%progbits,_ZTIN8M9N_Base9NMEA_PUBX4PUBXE,comd
 1254              		.align	2
 1257              	_ZTIN8M9N_Base9NMEA_PUBX4PUBXE:
 1258 0000 08000000 		.word	_ZTVN10__cxxabiv120__si_class_type_infoE+8
 1259 0004 00000000 		.word	_ZTSN8M9N_Base9NMEA_PUBX4PUBXE
 1260 0008 00000000 		.word	_ZTIN8M9N_Base9NMEA_PUBXE
 1261              		.weak	_ZTSN8M9N_Base9NMEA_PUBX4PUBXE
 1262              		.section	.rodata._ZTSN8M9N_Base9NMEA_PUBX4PUBXE,"aG",%progbits,_ZTSN8M9N_Base9NMEA_PUBX4PUBXE,comd
 1263              		.align	2
 1266              	_ZTSN8M9N_Base9NMEA_PUBX4PUBXE:
 1267 0000 4E384D39 		.ascii	"N8M9N_Base9NMEA_PUBX4PUBXE\000"
 1267      4E5F4261 
 1267      7365394E 
 1267      4D45415F 
 1267      50554258 
 1268              		.weak	_ZTIN8M9N_Base9NMEA_PUBXE
 1269              		.section	.rodata._ZTIN8M9N_Base9NMEA_PUBXE,"aG",%progbits,_ZTIN8M9N_Base9NMEA_PUBXE,comdat
 1270              		.align	2
 1273              	_ZTIN8M9N_Base9NMEA_PUBXE:
 1274 0000 08000000 		.word	_ZTVN10__cxxabiv120__si_class_type_infoE+8
 1275 0004 00000000 		.word	_ZTSN8M9N_Base9NMEA_PUBXE
 1276 0008 00000000 		.word	_ZTI13NMEA_Standard
 1277              		.weak	_ZTSN8M9N_Base9NMEA_PUBXE
 1278              		.section	.rodata._ZTSN8M9N_Base9NMEA_PUBXE,"aG",%progbits,_ZTSN8M9N_Base9NMEA_PUBXE,comdat
 1279              		.align	2
 1282              	_ZTSN8M9N_Base9NMEA_PUBXE:
 1283 0000 4E384D39 		.ascii	"N8M9N_Base9NMEA_PUBXE\000"
 1283      4E5F4261 
 1283      7365394E 
 1283      4D45415F 
 1283      50554258 
 1284              		.weak	_ZTI13NMEA_Standard
 1285              		.section	.rodata._ZTI13NMEA_Standard,"aG",%progbits,_ZTI13NMEA_Standard,comdat
 1286              		.align	2
 1289              	_ZTI13NMEA_Standard:
 1290 0000 08000000 		.word	_ZTVN10__cxxabiv117__class_type_infoE+8
ARM GAS  /var/folders/bb/dhrb69655gd8t4nf464nxc_00000gn/T//ccX9z21m.s 			page 36


 1291 0004 00000000 		.word	_ZTS13NMEA_Standard
 1292              		.weak	_ZTS13NMEA_Standard
 1293              		.section	.rodata._ZTS13NMEA_Standard,"aG",%progbits,_ZTS13NMEA_Standard,comdat
 1294              		.align	2
 1297              	_ZTS13NMEA_Standard:
 1298 0000 31334E4D 		.ascii	"13NMEA_Standard\000"
 1298      45415F53 
 1298      74616E64 
 1298      61726400 
 1299              		.section	.text._ZN8M9N_Base9NMEA_PUBX4RateD2Ev,"axG",%progbits,_ZN8M9N_Base9NMEA_PUBX4RateD5Ev,com
 1300              		.align	1
 1301              		.weak	_ZN8M9N_Base9NMEA_PUBX4RateD2Ev
 1302              		.syntax unified
 1303              		.thumb
 1304              		.thumb_func
 1306              	_ZN8M9N_Base9NMEA_PUBX4RateD2Ev:
 1307              		.fnstart
 1308              	.LFB2541:
  61:Core/Inc/NMEA_PUBX.hpp **** protected:
  62:Core/Inc/NMEA_PUBX.hpp **** 	struct Address{
  63:Core/Inc/NMEA_PUBX.hpp **** 		const string pubx{"PUBX"};
  64:Core/Inc/NMEA_PUBX.hpp **** 		uint8_t msgId;
  65:Core/Inc/NMEA_PUBX.hpp **** 
  66:Core/Inc/NMEA_PUBX.hpp **** 		Address(uint8_t msgId);
  67:Core/Inc/NMEA_PUBX.hpp **** 	} addr;
  68:Core/Inc/NMEA_PUBX.hpp **** 
  69:Core/Inc/NMEA_PUBX.hpp **** 	PUBX(uint8_t msgId);
  70:Core/Inc/NMEA_PUBX.hpp **** 	// virtual string toString() = 0;
  71:Core/Inc/NMEA_PUBX.hpp **** };
  72:Core/Inc/NMEA_PUBX.hpp **** 
  73:Core/Inc/NMEA_PUBX.hpp **** class NMEA::Config : public PUBX{
  74:Core/Inc/NMEA_PUBX.hpp **** public:
  75:Core/Inc/NMEA_PUBX.hpp **** 	M9N_Base::PortID portId;
  76:Core/Inc/NMEA_PUBX.hpp **** 	M9N_Base::InProto inProto;
  77:Core/Inc/NMEA_PUBX.hpp **** 	M9N_Base::OutProto outProto;
  78:Core/Inc/NMEA_PUBX.hpp **** 	M9N_Base::Baud baudrate;
  79:Core/Inc/NMEA_PUBX.hpp **** 	bool autobauding;
  80:Core/Inc/NMEA_PUBX.hpp **** 
  81:Core/Inc/NMEA_PUBX.hpp **** 	Config(
  82:Core/Inc/NMEA_PUBX.hpp **** 		M9N_Base::PortID portId, 
  83:Core/Inc/NMEA_PUBX.hpp **** 		M9N_Base::InProto inProto, 
  84:Core/Inc/NMEA_PUBX.hpp **** 		M9N_Base::OutProto outProto, 
  85:Core/Inc/NMEA_PUBX.hpp **** 		M9N_Base::Baud baudrate, 
  86:Core/Inc/NMEA_PUBX.hpp **** 		bool autobauding );
  87:Core/Inc/NMEA_PUBX.hpp **** 
  88:Core/Inc/NMEA_PUBX.hpp **** 	virtual string toString(char [36]) final;
  89:Core/Inc/NMEA_PUBX.hpp **** };
  90:Core/Inc/NMEA_PUBX.hpp **** 
  91:Core/Inc/NMEA_PUBX.hpp **** class NMEA::Rate : public PUBX{
 1309              		.loc 6 91 13
 1310              		.cfi_startproc
 1311              		@ args = 0, pretend = 0, frame = 8
 1312              		@ frame_needed = 1, uses_anonymous_args = 0
 1313 0000 80B5     		push	{r7, lr}
 1314              		.cfi_def_cfa_offset 8
 1315              		.cfi_offset 7, -8
 1316              		.cfi_offset 14, -4
ARM GAS  /var/folders/bb/dhrb69655gd8t4nf464nxc_00000gn/T//ccX9z21m.s 			page 37


 1317 0002 82B0     		sub	sp, sp, #8
 1318              		.cfi_def_cfa_offset 16
 1319 0004 00AF     		add	r7, sp, #0
 1320              		.cfi_def_cfa_register 7
 1321 0006 7860     		str	r0, [r7, #4]
 1322              	.LBB6:
 1323              		.loc 6 91 13
 1324 0008 054A     		ldr	r2, .L48
 1325 000a 7B68     		ldr	r3, [r7, #4]
 1326 000c 1A60     		str	r2, [r3]
 1327 000e 7B68     		ldr	r3, [r7, #4]
 1328 0010 1846     		mov	r0, r3
 1329 0012 FFF7FEFF 		bl	_ZN8M9N_Base9NMEA_PUBX4PUBXD2Ev
 1330              	.LBE6:
 1331 0016 7B68     		ldr	r3, [r7, #4]
 1332 0018 1846     		mov	r0, r3
 1333 001a 0837     		adds	r7, r7, #8
 1334              		.cfi_def_cfa_offset 8
 1335 001c BD46     		mov	sp, r7
 1336              		.cfi_def_cfa_register 13
 1337              		@ sp needed
 1338 001e 80BD     		pop	{r7, pc}
 1339              	.L49:
 1340              		.align	2
 1341              	.L48:
 1342 0020 08000000 		.word	_ZTVN8M9N_Base9NMEA_PUBX4RateE+8
 1343              		.cfi_endproc
 1344              	.LFE2541:
 1345              		.cantunwind
 1346              		.fnend
 1348              		.weak	_ZN8M9N_Base9NMEA_PUBX4RateD1Ev
 1349              		.thumb_set _ZN8M9N_Base9NMEA_PUBX4RateD1Ev,_ZN8M9N_Base9NMEA_PUBX4RateD2Ev
 1350              		.section	.text._ZN8M9N_Base9NMEA_PUBX4RateD0Ev,"axG",%progbits,_ZN8M9N_Base9NMEA_PUBX4RateD5Ev,com
 1351              		.align	1
 1352              		.weak	_ZN8M9N_Base9NMEA_PUBX4RateD0Ev
 1353              		.syntax unified
 1354              		.thumb
 1355              		.thumb_func
 1357              	_ZN8M9N_Base9NMEA_PUBX4RateD0Ev:
 1358              		.fnstart
 1359              	.LFB2543:
 1360              		.loc 6 91 13
 1361              		.cfi_startproc
 1362              		@ args = 0, pretend = 0, frame = 8
 1363              		@ frame_needed = 1, uses_anonymous_args = 0
 1364 0000 80B5     		push	{r7, lr}
 1365              		.cfi_def_cfa_offset 8
 1366              		.cfi_offset 7, -8
 1367              		.cfi_offset 14, -4
 1368 0002 82B0     		sub	sp, sp, #8
 1369              		.cfi_def_cfa_offset 16
 1370 0004 00AF     		add	r7, sp, #0
 1371              		.cfi_def_cfa_register 7
 1372 0006 7860     		str	r0, [r7, #4]
 1373              		.loc 6 91 13
 1374 0008 7868     		ldr	r0, [r7, #4]
 1375 000a FFF7FEFF 		bl	_ZN8M9N_Base9NMEA_PUBX4RateD1Ev
ARM GAS  /var/folders/bb/dhrb69655gd8t4nf464nxc_00000gn/T//ccX9z21m.s 			page 38


 1376 000e 2821     		movs	r1, #40
 1377 0010 7868     		ldr	r0, [r7, #4]
 1378 0012 FFF7FEFF 		bl	_ZdlPvj
 1379 0016 7B68     		ldr	r3, [r7, #4]
 1380 0018 1846     		mov	r0, r3
 1381 001a 0837     		adds	r7, r7, #8
 1382              		.cfi_def_cfa_offset 8
 1383 001c BD46     		mov	sp, r7
 1384              		.cfi_def_cfa_register 13
 1385              		@ sp needed
 1386 001e 80BD     		pop	{r7, pc}
 1387              		.cfi_endproc
 1388              	.LFE2543:
 1389              		.cantunwind
 1390              		.fnend
 1392              		.text
 1393              	.Letext0:
 1394              		.file 8 "/Users/lawrencestanton/Library/Application Support/Code/User/globalStorage/bmd.stm32-for-
 1395              		.file 9 "/Users/lawrencestanton/Library/Application Support/Code/User/globalStorage/bmd.stm32-for-
 1396              		.file 10 "/Users/lawrencestanton/Library/Application Support/Code/User/globalStorage/bmd.stm32-for
 1397              		.file 11 "/Users/lawrencestanton/Library/Application Support/Code/User/globalStorage/bmd.stm32-for
 1398              		.file 12 "/Users/lawrencestanton/Library/Application Support/Code/User/globalStorage/bmd.stm32-for
 1399              		.file 13 "/Users/lawrencestanton/Library/Application Support/Code/User/globalStorage/bmd.stm32-for
 1400              		.file 14 "/Users/lawrencestanton/Library/Application Support/Code/User/globalStorage/bmd.stm32-for
 1401              		.file 15 "/Users/lawrencestanton/Library/Application Support/Code/User/globalStorage/bmd.stm32-for
 1402              		.file 16 "/Users/lawrencestanton/Library/Application Support/Code/User/globalStorage/bmd.stm32-for
 1403              		.file 17 "/Users/lawrencestanton/Library/Application Support/Code/User/globalStorage/bmd.stm32-for
 1404              		.file 18 "/Users/lawrencestanton/Library/Application Support/Code/User/globalStorage/bmd.stm32-for
 1405              		.file 19 "/Users/lawrencestanton/Library/Application Support/Code/User/globalStorage/bmd.stm32-for
 1406              		.file 20 "/Users/lawrencestanton/Library/Application Support/Code/User/globalStorage/bmd.stm32-for
 1407              		.file 21 "/Users/lawrencestanton/Library/Application Support/Code/User/globalStorage/bmd.stm32-for
 1408              		.file 22 "/Users/lawrencestanton/Library/Application Support/Code/User/globalStorage/bmd.stm32-for
 1409              		.file 23 "/Users/lawrencestanton/Library/Application Support/Code/User/globalStorage/bmd.stm32-for
 1410              		.file 24 "/Users/lawrencestanton/Library/Application Support/Code/User/globalStorage/bmd.stm32-for
 1411              		.file 25 "/Users/lawrencestanton/Library/Application Support/Code/User/globalStorage/bmd.stm32-for
 1412              		.file 26 "/Users/lawrencestanton/Library/Application Support/Code/User/globalStorage/bmd.stm32-for
 1413              		.file 27 "/Users/lawrencestanton/Library/Application Support/Code/User/globalStorage/bmd.stm32-for
 1414              		.file 28 "/Users/lawrencestanton/Library/Application Support/Code/User/globalStorage/bmd.stm32-for
 1415              		.file 29 "/Users/lawrencestanton/Library/Application Support/Code/User/globalStorage/bmd.stm32-for
 1416              		.file 30 "/Users/lawrencestanton/Library/Application Support/Code/User/globalStorage/bmd.stm32-for
 1417              		.file 31 "/Users/lawrencestanton/Library/Application Support/Code/User/globalStorage/bmd.stm32-for
 1418              		.file 32 "/Users/lawrencestanton/Library/Application Support/Code/User/globalStorage/bmd.stm32-for
 1419              		.file 33 "/Users/lawrencestanton/Library/Application Support/Code/User/globalStorage/bmd.stm32-for
 1420              		.file 34 "/Users/lawrencestanton/Library/Application Support/Code/User/globalStorage/bmd.stm32-for
 1421              		.file 35 "/Users/lawrencestanton/Library/Application Support/Code/User/globalStorage/bmd.stm32-for
 1422              		.file 36 "/Users/lawrencestanton/Library/Application Support/Code/User/globalStorage/bmd.stm32-for
 1423              		.file 37 "/Users/lawrencestanton/Library/Application Support/Code/User/globalStorage/bmd.stm32-for
 1424              		.file 38 "/Users/lawrencestanton/Library/Application Support/Code/User/globalStorage/bmd.stm32-for
 1425              		.file 39 "/Users/lawrencestanton/Library/Application Support/Code/User/globalStorage/bmd.stm32-for
 1426              		.file 40 "/Users/lawrencestanton/Library/Application Support/Code/User/globalStorage/bmd.stm32-for
 1427              		.file 41 "/Users/lawrencestanton/Library/Application Support/Code/User/globalStorage/bmd.stm32-for
 1428              		.file 42 "/Users/lawrencestanton/Library/Application Support/Code/User/globalStorage/bmd.stm32-for
 1429              		.file 43 "Core/Inc/UBX.hpp"
 1430              		.file 44 "Core/Inc/UBX_CFG.hpp"
 1431              		.file 45 "Core/Inc/UBX_CFG_KEYID.hpp"
 1432              		.file 46 "<built-in>"
ARM GAS  /var/folders/bb/dhrb69655gd8t4nf464nxc_00000gn/T//ccX9z21m.s 			page 39

