ARM GAS  /var/folders/bb/dhrb69655gd8t4nf464nxc_00000gn/T//ccHP6Bp0.s 			page 1


   1              		.cpu cortex-m4
   2              		.arch armv7e-m
   3              		.fpu fpv4-sp-d16
   4              		.eabi_attribute 27, 1
   5              		.eabi_attribute 28, 1
   6              		.eabi_attribute 20, 1
   7              		.eabi_attribute 21, 1
   8              		.eabi_attribute 23, 3
   9              		.eabi_attribute 24, 1
  10              		.eabi_attribute 25, 1
  11              		.eabi_attribute 26, 1
  12              		.eabi_attribute 30, 6
  13              		.eabi_attribute 34, 1
  14              		.eabi_attribute 18, 4
  15              		.file	"NMEA_Standard.cpp"
  16              		.text
  17              	.Ltext0:
  18              		.cfi_sections	.debug_frame
  19              		.section	.rodata._ZStL19piecewise_construct,"a"
  20              		.align	2
  23              	_ZStL19piecewise_construct:
  24 0000 00       		.space	1
  25              		.section	.text._ZN12StaticStringC2Ev,"axG",%progbits,_ZN12StaticStringC5Ev,comdat
  26              		.align	1
  27              		.weak	_ZN12StaticStringC2Ev
  28              		.syntax unified
  29              		.thumb
  30              		.thumb_func
  32              	_ZN12StaticStringC2Ev:
  33              		.fnstart
  34              	.LFB909:
  35              		.file 1 "Core/Inc/StaticString.hpp"
   1:Core/Inc/StaticString.hpp **** /**
   2:Core/Inc/StaticString.hpp ****   ******************************************************************************
   3:Core/Inc/StaticString.hpp ****   * @file			: StaticString.hpp
   4:Core/Inc/StaticString.hpp ****   * @brief			: Structure for Stack-Based Static String with Helper Functions
   5:Core/Inc/StaticString.hpp ****   * @author			: Lawrence Stanton
   6:Core/Inc/StaticString.hpp ****   ******************************************************************************
   7:Core/Inc/StaticString.hpp ****   * @attention
   8:Core/Inc/StaticString.hpp ****   *
   9:Core/Inc/StaticString.hpp ****   * © LD Stanton 2022
  10:Core/Inc/StaticString.hpp ****   * 
  11:Core/Inc/StaticString.hpp ****   * This file and its content are the copyright property of the author. All 
  12:Core/Inc/StaticString.hpp ****   * rights are reserved. No warranty is given. No liability is assumed.
  13:Core/Inc/StaticString.hpp ****   * Confidential unless licensed otherwise. If licensed, refer to the 
  14:Core/Inc/StaticString.hpp ****   * accompanying file "LICENCE" for license details.
  15:Core/Inc/StaticString.hpp ****   * 
  16:Core/Inc/StaticString.hpp ****   ******************************************************************************
  17:Core/Inc/StaticString.hpp ****   */
  18:Core/Inc/StaticString.hpp **** 
  19:Core/Inc/StaticString.hpp **** #pragma once
  20:Core/Inc/StaticString.hpp **** 
  21:Core/Inc/StaticString.hpp **** #include <stdint.h>
  22:Core/Inc/StaticString.hpp **** #include <string.h>
  23:Core/Inc/StaticString.hpp **** 
  24:Core/Inc/StaticString.hpp **** #include <algorithm>
  25:Core/Inc/StaticString.hpp **** 
ARM GAS  /var/folders/bb/dhrb69655gd8t4nf464nxc_00000gn/T//ccHP6Bp0.s 			page 2


  26:Core/Inc/StaticString.hpp **** class StaticString{
  27:Core/Inc/StaticString.hpp **** private:
  28:Core/Inc/StaticString.hpp **** 	const char * s;
  29:Core/Inc/StaticString.hpp **** 	size_t l;
  30:Core/Inc/StaticString.hpp **** 
  31:Core/Inc/StaticString.hpp **** 
  32:Core/Inc/StaticString.hpp **** public:
  33:Core/Inc/StaticString.hpp **** 	StaticString() : s(nullptr), l(0u){}
  36              		.loc 1 33 2
  37              		.cfi_startproc
  38              		@ args = 0, pretend = 0, frame = 8
  39              		@ frame_needed = 1, uses_anonymous_args = 0
  40              		@ link register save eliminated.
  41 0000 80B4     		push	{r7}
  42              		.cfi_def_cfa_offset 4
  43              		.cfi_offset 7, -4
  44 0002 83B0     		sub	sp, sp, #12
  45              		.cfi_def_cfa_offset 16
  46 0004 00AF     		add	r7, sp, #0
  47              		.cfi_def_cfa_register 7
  48 0006 7860     		str	r0, [r7, #4]
  49              	.LBB2:
  50              		.loc 1 33 35
  51 0008 7B68     		ldr	r3, [r7, #4]
  52 000a 0022     		movs	r2, #0
  53 000c 1A60     		str	r2, [r3]
  54 000e 7B68     		ldr	r3, [r7, #4]
  55 0010 0022     		movs	r2, #0
  56 0012 5A60     		str	r2, [r3, #4]
  57              	.LBE2:
  58              		.loc 1 33 37
  59 0014 7B68     		ldr	r3, [r7, #4]
  60 0016 1846     		mov	r0, r3
  61 0018 0C37     		adds	r7, r7, #12
  62              		.cfi_def_cfa_offset 4
  63 001a BD46     		mov	sp, r7
  64              		.cfi_def_cfa_register 13
  65              		@ sp needed
  66 001c 5DF8047B 		ldr	r7, [sp], #4
  67              		.cfi_restore 7
  68              		.cfi_def_cfa_offset 0
  69 0020 7047     		bx	lr
  70              		.cfi_endproc
  71              	.LFE909:
  72              		.cantunwind
  73              		.fnend
  75              		.weak	_ZN12StaticStringC1Ev
  76              		.thumb_set _ZN12StaticStringC1Ev,_ZN12StaticStringC2Ev
  77              		.section	.text._ZN12StaticStringC2EPKc,"axG",%progbits,_ZN12StaticStringC5EPKc,comdat
  78              		.align	1
  79              		.weak	_ZN12StaticStringC2EPKc
  80              		.syntax unified
  81              		.thumb
  82              		.thumb_func
  84              	_ZN12StaticStringC2EPKc:
  85              		.fnstart
  86              	.LFB914:
ARM GAS  /var/folders/bb/dhrb69655gd8t4nf464nxc_00000gn/T//ccHP6Bp0.s 			page 3


  34:Core/Inc/StaticString.hpp **** 
  35:Core/Inc/StaticString.hpp **** 	template<typename C>
  36:Core/Inc/StaticString.hpp **** 	StaticString(C * c_str, size_t len) : s(c_str), l(len){}
  37:Core/Inc/StaticString.hpp **** 
  38:Core/Inc/StaticString.hpp **** 	template<typename C>
  39:Core/Inc/StaticString.hpp **** 	StaticString(C * begin, C * end) : s((char *)begin), l(end-begin){}
  40:Core/Inc/StaticString.hpp **** 
  41:Core/Inc/StaticString.hpp **** 	StaticString(const char * c_str) : s(c_str), l(strlen(c_str)){}
  87              		.loc 1 41 2
  88              		.cfi_startproc
  89              		@ args = 0, pretend = 0, frame = 8
  90              		@ frame_needed = 1, uses_anonymous_args = 0
  91 0000 80B5     		push	{r7, lr}
  92              		.cfi_def_cfa_offset 8
  93              		.cfi_offset 7, -8
  94              		.cfi_offset 14, -4
  95 0002 82B0     		sub	sp, sp, #8
  96              		.cfi_def_cfa_offset 16
  97 0004 00AF     		add	r7, sp, #0
  98              		.cfi_def_cfa_register 7
  99 0006 7860     		str	r0, [r7, #4]
 100 0008 3960     		str	r1, [r7]
 101              	.LBB3:
 102              		.loc 1 41 62
 103 000a 7B68     		ldr	r3, [r7, #4]
 104 000c 3A68     		ldr	r2, [r7]
 105 000e 1A60     		str	r2, [r3]
 106              		.loc 1 41 55
 107 0010 3868     		ldr	r0, [r7]
 108 0012 FFF7FEFF 		bl	strlen
 109 0016 0246     		mov	r2, r0
 110              		.loc 1 41 62
 111 0018 7B68     		ldr	r3, [r7, #4]
 112 001a 5A60     		str	r2, [r3, #4]
 113              	.LBE3:
 114              		.loc 1 41 64
 115 001c 7B68     		ldr	r3, [r7, #4]
 116 001e 1846     		mov	r0, r3
 117 0020 0837     		adds	r7, r7, #8
 118              		.cfi_def_cfa_offset 8
 119 0022 BD46     		mov	sp, r7
 120              		.cfi_def_cfa_register 13
 121              		@ sp needed
 122 0024 80BD     		pop	{r7, pc}
 123              		.cfi_endproc
 124              	.LFE914:
 125              		.cantunwind
 126              		.fnend
 128              		.weak	_ZN12StaticStringC1EPKc
 129              		.thumb_set _ZN12StaticStringC1EPKc,_ZN12StaticStringC2EPKc
 130              		.section	.text._ZNK12StaticString4sizeEv,"axG",%progbits,_ZNK12StaticString4sizeEv,comdat
 131              		.align	1
 132              		.weak	_ZNK12StaticString4sizeEv
 133              		.syntax unified
 134              		.thumb
 135              		.thumb_func
 137              	_ZNK12StaticString4sizeEv:
ARM GAS  /var/folders/bb/dhrb69655gd8t4nf464nxc_00000gn/T//ccHP6Bp0.s 			page 4


 138              		.fnstart
 139              	.LFB916:
  42:Core/Inc/StaticString.hpp **** 	StaticString(const StaticString &) = default;
  43:Core/Inc/StaticString.hpp **** 	
  44:Core/Inc/StaticString.hpp **** 	inline size_t size() const { return l; }
 140              		.loc 1 44 16
 141              		.cfi_startproc
 142              		@ args = 0, pretend = 0, frame = 8
 143              		@ frame_needed = 1, uses_anonymous_args = 0
 144              		@ link register save eliminated.
 145 0000 80B4     		push	{r7}
 146              		.cfi_def_cfa_offset 4
 147              		.cfi_offset 7, -4
 148 0002 83B0     		sub	sp, sp, #12
 149              		.cfi_def_cfa_offset 16
 150 0004 00AF     		add	r7, sp, #0
 151              		.cfi_def_cfa_register 7
 152 0006 7860     		str	r0, [r7, #4]
 153              		.loc 1 44 38
 154 0008 7B68     		ldr	r3, [r7, #4]
 155 000a 5B68     		ldr	r3, [r3, #4]
 156              		.loc 1 44 41
 157 000c 1846     		mov	r0, r3
 158 000e 0C37     		adds	r7, r7, #12
 159              		.cfi_def_cfa_offset 4
 160 0010 BD46     		mov	sp, r7
 161              		.cfi_def_cfa_register 13
 162              		@ sp needed
 163 0012 5DF8047B 		ldr	r7, [sp], #4
 164              		.cfi_restore 7
 165              		.cfi_def_cfa_offset 0
 166 0016 7047     		bx	lr
 167              		.cfi_endproc
 168              	.LFE916:
 169              		.cantunwind
 170              		.fnend
 172              		.section	.text._ZNK12StaticString6lengthEv,"axG",%progbits,_ZNK12StaticString6lengthEv,comdat
 173              		.align	1
 174              		.weak	_ZNK12StaticString6lengthEv
 175              		.syntax unified
 176              		.thumb
 177              		.thumb_func
 179              	_ZNK12StaticString6lengthEv:
 180              		.fnstart
 181              	.LFB917:
  45:Core/Inc/StaticString.hpp **** 	inline size_t length() const { return size(); }
 182              		.loc 1 45 16
 183              		.cfi_startproc
 184              		@ args = 0, pretend = 0, frame = 8
 185              		@ frame_needed = 1, uses_anonymous_args = 0
 186 0000 80B5     		push	{r7, lr}
 187              		.cfi_def_cfa_offset 8
 188              		.cfi_offset 7, -8
 189              		.cfi_offset 14, -4
 190 0002 82B0     		sub	sp, sp, #8
 191              		.cfi_def_cfa_offset 16
 192 0004 00AF     		add	r7, sp, #0
ARM GAS  /var/folders/bb/dhrb69655gd8t4nf464nxc_00000gn/T//ccHP6Bp0.s 			page 5


 193              		.cfi_def_cfa_register 7
 194 0006 7860     		str	r0, [r7, #4]
 195              		.loc 1 45 44
 196 0008 7868     		ldr	r0, [r7, #4]
 197 000a FFF7FEFF 		bl	_ZNK12StaticString4sizeEv
 198 000e 0346     		mov	r3, r0
 199              		.loc 1 45 48
 200 0010 1846     		mov	r0, r3
 201 0012 0837     		adds	r7, r7, #8
 202              		.cfi_def_cfa_offset 8
 203 0014 BD46     		mov	sp, r7
 204              		.cfi_def_cfa_register 13
 205              		@ sp needed
 206 0016 80BD     		pop	{r7, pc}
 207              		.cfi_endproc
 208              	.LFE917:
 209              		.cantunwind
 210              		.fnend
 212              		.section	.text._ZNK12StaticString5beginEv,"axG",%progbits,_ZNK12StaticString5beginEv,comdat
 213              		.align	1
 214              		.weak	_ZNK12StaticString5beginEv
 215              		.syntax unified
 216              		.thumb
 217              		.thumb_func
 219              	_ZNK12StaticString5beginEv:
 220              		.fnstart
 221              	.LFB918:
  46:Core/Inc/StaticString.hpp **** 	inline const char * begin() const { return s; }
 222              		.loc 1 46 22
 223              		.cfi_startproc
 224              		@ args = 0, pretend = 0, frame = 8
 225              		@ frame_needed = 1, uses_anonymous_args = 0
 226              		@ link register save eliminated.
 227 0000 80B4     		push	{r7}
 228              		.cfi_def_cfa_offset 4
 229              		.cfi_offset 7, -4
 230 0002 83B0     		sub	sp, sp, #12
 231              		.cfi_def_cfa_offset 16
 232 0004 00AF     		add	r7, sp, #0
 233              		.cfi_def_cfa_register 7
 234 0006 7860     		str	r0, [r7, #4]
 235              		.loc 1 46 45
 236 0008 7B68     		ldr	r3, [r7, #4]
 237 000a 1B68     		ldr	r3, [r3]
 238              		.loc 1 46 48
 239 000c 1846     		mov	r0, r3
 240 000e 0C37     		adds	r7, r7, #12
 241              		.cfi_def_cfa_offset 4
 242 0010 BD46     		mov	sp, r7
 243              		.cfi_def_cfa_register 13
 244              		@ sp needed
 245 0012 5DF8047B 		ldr	r7, [sp], #4
 246              		.cfi_restore 7
 247              		.cfi_def_cfa_offset 0
 248 0016 7047     		bx	lr
 249              		.cfi_endproc
 250              	.LFE918:
ARM GAS  /var/folders/bb/dhrb69655gd8t4nf464nxc_00000gn/T//ccHP6Bp0.s 			page 6


 251              		.cantunwind
 252              		.fnend
 254              		.section	.text._ZNK12StaticString3endEv,"axG",%progbits,_ZNK12StaticString3endEv,comdat
 255              		.align	1
 256              		.weak	_ZNK12StaticString3endEv
 257              		.syntax unified
 258              		.thumb
 259              		.thumb_func
 261              	_ZNK12StaticString3endEv:
 262              		.fnstart
 263              	.LFB919:
  47:Core/Inc/StaticString.hpp **** 	inline const char * end() const { return s + l; }
 264              		.loc 1 47 22
 265              		.cfi_startproc
 266              		@ args = 0, pretend = 0, frame = 8
 267              		@ frame_needed = 1, uses_anonymous_args = 0
 268              		@ link register save eliminated.
 269 0000 80B4     		push	{r7}
 270              		.cfi_def_cfa_offset 4
 271              		.cfi_offset 7, -4
 272 0002 83B0     		sub	sp, sp, #12
 273              		.cfi_def_cfa_offset 16
 274 0004 00AF     		add	r7, sp, #0
 275              		.cfi_def_cfa_register 7
 276 0006 7860     		str	r0, [r7, #4]
 277              		.loc 1 47 43
 278 0008 7B68     		ldr	r3, [r7, #4]
 279 000a 1A68     		ldr	r2, [r3]
 280              		.loc 1 47 47
 281 000c 7B68     		ldr	r3, [r7, #4]
 282 000e 5B68     		ldr	r3, [r3, #4]
 283 0010 1344     		add	r3, r3, r2
 284              		.loc 1 47 50
 285 0012 1846     		mov	r0, r3
 286 0014 0C37     		adds	r7, r7, #12
 287              		.cfi_def_cfa_offset 4
 288 0016 BD46     		mov	sp, r7
 289              		.cfi_def_cfa_register 13
 290              		@ sp needed
 291 0018 5DF8047B 		ldr	r7, [sp], #4
 292              		.cfi_restore 7
 293              		.cfi_def_cfa_offset 0
 294 001c 7047     		bx	lr
 295              		.cfi_endproc
 296              	.LFE919:
 297              		.cantunwind
 298              		.fnend
 300              		.section	.text._ZNK12StaticString5c_strEv,"axG",%progbits,_ZNK12StaticString5c_strEv,comdat
 301              		.align	1
 302              		.weak	_ZNK12StaticString5c_strEv
 303              		.syntax unified
 304              		.thumb
 305              		.thumb_func
 307              	_ZNK12StaticString5c_strEv:
 308              		.fnstart
 309              	.LFB920:
  48:Core/Inc/StaticString.hpp **** 	inline const char * c_str() const { return s; }
ARM GAS  /var/folders/bb/dhrb69655gd8t4nf464nxc_00000gn/T//ccHP6Bp0.s 			page 7


 310              		.loc 1 48 22
 311              		.cfi_startproc
 312              		@ args = 0, pretend = 0, frame = 8
 313              		@ frame_needed = 1, uses_anonymous_args = 0
 314              		@ link register save eliminated.
 315 0000 80B4     		push	{r7}
 316              		.cfi_def_cfa_offset 4
 317              		.cfi_offset 7, -4
 318 0002 83B0     		sub	sp, sp, #12
 319              		.cfi_def_cfa_offset 16
 320 0004 00AF     		add	r7, sp, #0
 321              		.cfi_def_cfa_register 7
 322 0006 7860     		str	r0, [r7, #4]
 323              		.loc 1 48 45
 324 0008 7B68     		ldr	r3, [r7, #4]
 325 000a 1B68     		ldr	r3, [r3]
 326              		.loc 1 48 48
 327 000c 1846     		mov	r0, r3
 328 000e 0C37     		adds	r7, r7, #12
 329              		.cfi_def_cfa_offset 4
 330 0010 BD46     		mov	sp, r7
 331              		.cfi_def_cfa_register 13
 332              		@ sp needed
 333 0012 5DF8047B 		ldr	r7, [sp], #4
 334              		.cfi_restore 7
 335              		.cfi_def_cfa_offset 0
 336 0016 7047     		bx	lr
 337              		.cfi_endproc
 338              	.LFE920:
 339              		.cantunwind
 340              		.fnend
 342              		.section	.text._ZNK12StaticString5emptyEv,"axG",%progbits,_ZNK12StaticString5emptyEv,comdat
 343              		.align	1
 344              		.weak	_ZNK12StaticString5emptyEv
 345              		.syntax unified
 346              		.thumb
 347              		.thumb_func
 349              	_ZNK12StaticString5emptyEv:
 350              		.fnstart
 351              	.LFB921:
  49:Core/Inc/StaticString.hpp **** 	inline bool empty() const { return l == 0; }
 352              		.loc 1 49 14
 353              		.cfi_startproc
 354              		@ args = 0, pretend = 0, frame = 8
 355              		@ frame_needed = 1, uses_anonymous_args = 0
 356              		@ link register save eliminated.
 357 0000 80B4     		push	{r7}
 358              		.cfi_def_cfa_offset 4
 359              		.cfi_offset 7, -4
 360 0002 83B0     		sub	sp, sp, #12
 361              		.cfi_def_cfa_offset 16
 362 0004 00AF     		add	r7, sp, #0
 363              		.cfi_def_cfa_register 7
 364 0006 7860     		str	r0, [r7, #4]
 365              		.loc 1 49 37
 366 0008 7B68     		ldr	r3, [r7, #4]
 367 000a 5B68     		ldr	r3, [r3, #4]
ARM GAS  /var/folders/bb/dhrb69655gd8t4nf464nxc_00000gn/T//ccHP6Bp0.s 			page 8


 368              		.loc 1 49 42
 369 000c 002B     		cmp	r3, #0
 370 000e 0CBF     		ite	eq
 371 0010 0123     		moveq	r3, #1
 372 0012 0023     		movne	r3, #0
 373 0014 DBB2     		uxtb	r3, r3
 374              		.loc 1 49 45
 375 0016 1846     		mov	r0, r3
 376 0018 0C37     		adds	r7, r7, #12
 377              		.cfi_def_cfa_offset 4
 378 001a BD46     		mov	sp, r7
 379              		.cfi_def_cfa_register 13
 380              		@ sp needed
 381 001c 5DF8047B 		ldr	r7, [sp], #4
 382              		.cfi_restore 7
 383              		.cfi_def_cfa_offset 0
 384 0020 7047     		bx	lr
 385              		.cfi_endproc
 386              	.LFE921:
 387              		.cantunwind
 388              		.fnend
 390              		.section	.text._ZNK12StaticString2atEj,"axG",%progbits,_ZNK12StaticString2atEj,comdat
 391              		.align	1
 392              		.weak	_ZNK12StaticString2atEj
 393              		.syntax unified
 394              		.thumb
 395              		.thumb_func
 397              	_ZNK12StaticString2atEj:
 398              		.fnstart
 399              	.LFB922:
  50:Core/Inc/StaticString.hpp **** 	inline char at(size_t n) const { return *(s + n); }
 400              		.loc 1 50 14
 401              		.cfi_startproc
 402              		@ args = 0, pretend = 0, frame = 8
 403              		@ frame_needed = 1, uses_anonymous_args = 0
 404              		@ link register save eliminated.
 405 0000 80B4     		push	{r7}
 406              		.cfi_def_cfa_offset 4
 407              		.cfi_offset 7, -4
 408 0002 83B0     		sub	sp, sp, #12
 409              		.cfi_def_cfa_offset 16
 410 0004 00AF     		add	r7, sp, #0
 411              		.cfi_def_cfa_register 7
 412 0006 7860     		str	r0, [r7, #4]
 413 0008 3960     		str	r1, [r7]
 414              		.loc 1 50 44
 415 000a 7B68     		ldr	r3, [r7, #4]
 416 000c 1A68     		ldr	r2, [r3]
 417              		.loc 1 50 46
 418 000e 3B68     		ldr	r3, [r7]
 419 0010 1344     		add	r3, r3, r2
 420              		.loc 1 50 49
 421 0012 1B78     		ldrb	r3, [r3]	@ zero_extendqisi2
 422              		.loc 1 50 52
 423 0014 1846     		mov	r0, r3
 424 0016 0C37     		adds	r7, r7, #12
 425              		.cfi_def_cfa_offset 4
ARM GAS  /var/folders/bb/dhrb69655gd8t4nf464nxc_00000gn/T//ccHP6Bp0.s 			page 9


 426 0018 BD46     		mov	sp, r7
 427              		.cfi_def_cfa_register 13
 428              		@ sp needed
 429 001a 5DF8047B 		ldr	r7, [sp], #4
 430              		.cfi_restore 7
 431              		.cfi_def_cfa_offset 0
 432 001e 7047     		bx	lr
 433              		.cfi_endproc
 434              	.LFE922:
 435              		.cantunwind
 436              		.fnend
 438              		.section	.text._ZNK12StaticString6substrEjj,"axG",%progbits,_ZNK12StaticString6substrEjj,comdat
 439              		.align	1
 440              		.weak	_ZNK12StaticString6substrEjj
 441              		.syntax unified
 442              		.thumb
 443              		.thumb_func
 445              	_ZNK12StaticString6substrEjj:
 446              		.fnstart
 447              	.LFB923:
  51:Core/Inc/StaticString.hpp **** 
  52:Core/Inc/StaticString.hpp **** 
  53:Core/Inc/StaticString.hpp **** 	StaticString substr(size_t begin, size_t len = npos) const { return StaticString(s + begin, (len =
 448              		.loc 1 53 15
 449              		.cfi_startproc
 450              		@ args = 0, pretend = 0, frame = 16
 451              		@ frame_needed = 1, uses_anonymous_args = 0
 452 0000 80B5     		push	{r7, lr}
 453              		.cfi_def_cfa_offset 8
 454              		.cfi_offset 7, -8
 455              		.cfi_offset 14, -4
 456 0002 84B0     		sub	sp, sp, #16
 457              		.cfi_def_cfa_offset 24
 458 0004 00AF     		add	r7, sp, #0
 459              		.cfi_def_cfa_register 7
 460 0006 F860     		str	r0, [r7, #12]
 461 0008 B960     		str	r1, [r7, #8]
 462 000a 7A60     		str	r2, [r7, #4]
 463 000c 3B60     		str	r3, [r7]
 464              		.loc 1 53 83
 465 000e BB68     		ldr	r3, [r7, #8]
 466 0010 1A68     		ldr	r2, [r3]
 467              		.loc 1 53 127
 468 0012 7B68     		ldr	r3, [r7, #4]
 469 0014 D118     		adds	r1, r2, r3
 470 0016 3B68     		ldr	r3, [r7]
 471 0018 B3F1FF3F 		cmp	r3, #-1
 472 001c 04D1     		bne	.L20
 473              		.loc 1 53 111 discriminator 1
 474 001e BB68     		ldr	r3, [r7, #8]
 475 0020 5A68     		ldr	r2, [r3, #4]
 476              		.loc 1 53 127 discriminator 1
 477 0022 7B68     		ldr	r3, [r7, #4]
 478 0024 D31A     		subs	r3, r2, r3
 479 0026 00E0     		b	.L21
 480              	.L20:
 481              		.loc 1 53 127 is_stmt 0 discriminator 2
ARM GAS  /var/folders/bb/dhrb69655gd8t4nf464nxc_00000gn/T//ccHP6Bp0.s 			page 10


 482 0028 3B68     		ldr	r3, [r7]
 483              	.L21:
 484              		.loc 1 53 127 discriminator 4
 485 002a 1A46     		mov	r2, r3
 486 002c F868     		ldr	r0, [r7, #12]
 487 002e FFF7FEFF 		bl	_ZN12StaticStringC1IKcEEPT_j
 488              		.loc 1 53 130 is_stmt 1 discriminator 4
 489 0032 F868     		ldr	r0, [r7, #12]
 490 0034 1037     		adds	r7, r7, #16
 491              		.cfi_def_cfa_offset 8
 492 0036 BD46     		mov	sp, r7
 493              		.cfi_def_cfa_register 13
 494              		@ sp needed
 495 0038 80BD     		pop	{r7, pc}
 496              		.cfi_endproc
 497              	.LFE923:
 498              		.cantunwind
 499              		.fnend
 501              		.section	.text._ZN12StaticStringaSERKS_,"axG",%progbits,_ZN12StaticStringaSERKS_,comdat
 502              		.align	1
 503              		.weak	_ZN12StaticStringaSERKS_
 504              		.syntax unified
 505              		.thumb
 506              		.thumb_func
 508              	_ZN12StaticStringaSERKS_:
 509              		.fnstart
 510              	.LFB924:
  54:Core/Inc/StaticString.hpp **** 	size_t find(char c) const;
  55:Core/Inc/StaticString.hpp **** 	size_t find_last_of(char c) const;
  56:Core/Inc/StaticString.hpp **** 
  57:Core/Inc/StaticString.hpp **** 	inline const char * operator = (const StaticString & str){ return str.s; }
 511              		.loc 1 57 22
 512              		.cfi_startproc
 513              		@ args = 0, pretend = 0, frame = 8
 514              		@ frame_needed = 1, uses_anonymous_args = 0
 515              		@ link register save eliminated.
 516 0000 80B4     		push	{r7}
 517              		.cfi_def_cfa_offset 4
 518              		.cfi_offset 7, -4
 519 0002 83B0     		sub	sp, sp, #12
 520              		.cfi_def_cfa_offset 16
 521 0004 00AF     		add	r7, sp, #0
 522              		.cfi_def_cfa_register 7
 523 0006 7860     		str	r0, [r7, #4]
 524 0008 3960     		str	r1, [r7]
 525              		.loc 1 57 72
 526 000a 3B68     		ldr	r3, [r7]
 527 000c 1B68     		ldr	r3, [r3]
 528              		.loc 1 57 75
 529 000e 1846     		mov	r0, r3
 530 0010 0C37     		adds	r7, r7, #12
 531              		.cfi_def_cfa_offset 4
 532 0012 BD46     		mov	sp, r7
 533              		.cfi_def_cfa_register 13
 534              		@ sp needed
 535 0014 5DF8047B 		ldr	r7, [sp], #4
 536              		.cfi_restore 7
ARM GAS  /var/folders/bb/dhrb69655gd8t4nf464nxc_00000gn/T//ccHP6Bp0.s 			page 11


 537              		.cfi_def_cfa_offset 0
 538 0018 7047     		bx	lr
 539              		.cfi_endproc
 540              	.LFE924:
 541              		.cantunwind
 542              		.fnend
 544              		.section	.text._ZN13NMEA_Standard5validERK12StaticString,"axG",%progbits,_ZN13NMEA_Standard5validE
 545              		.align	1
 546              		.weak	_ZN13NMEA_Standard5validERK12StaticString
 547              		.syntax unified
 548              		.thumb
 549              		.thumb_func
 551              	_ZN13NMEA_Standard5validERK12StaticString:
 552              		.fnstart
 553              	.LFB926:
 554              		.file 2 "Core/Inc/NMEA_Standard.hpp"
   1:Core/Inc/NMEA_Standard.hpp **** /**
   2:Core/Inc/NMEA_Standard.hpp ****   ******************************************************************************
   3:Core/Inc/NMEA_Standard.hpp ****   * @file           : NMEA.hpp
   4:Core/Inc/NMEA_Standard.hpp ****   * @brief          : NMEA Protocol Standard Driver
   5:Core/Inc/NMEA_Standard.hpp ****   * @author			: Lawrence Stanton
   6:Core/Inc/NMEA_Standard.hpp ****   ******************************************************************************
   7:Core/Inc/NMEA_Standard.hpp ****   * @attention
   8:Core/Inc/NMEA_Standard.hpp ****   *
   9:Core/Inc/NMEA_Standard.hpp ****   * © LD Stanton 2022
  10:Core/Inc/NMEA_Standard.hpp ****   * 
  11:Core/Inc/NMEA_Standard.hpp ****   * This file and its content are the copyright property of the author. All 
  12:Core/Inc/NMEA_Standard.hpp ****   * rights are reserved. No warranty is given. No liability is assumed.
  13:Core/Inc/NMEA_Standard.hpp ****   * Confidential unless licensed otherwise. If licensed, refer to the 
  14:Core/Inc/NMEA_Standard.hpp ****   * accompanying file "LICENCE" for license details.
  15:Core/Inc/NMEA_Standard.hpp ****   * 
  16:Core/Inc/NMEA_Standard.hpp ****   ******************************************************************************
  17:Core/Inc/NMEA_Standard.hpp ****   */
  18:Core/Inc/NMEA_Standard.hpp **** 
  19:Core/Inc/NMEA_Standard.hpp **** #pragma once
  20:Core/Inc/NMEA_Standard.hpp **** 
  21:Core/Inc/NMEA_Standard.hpp **** #include <array>
  22:Core/Inc/NMEA_Standard.hpp **** #include <stdint.h>
  23:Core/Inc/NMEA_Standard.hpp **** 
  24:Core/Inc/NMEA_Standard.hpp **** #include "StaticString.hpp"
  25:Core/Inc/NMEA_Standard.hpp **** 
  26:Core/Inc/NMEA_Standard.hpp **** using string = StaticString;
  27:Core/Inc/NMEA_Standard.hpp **** 
  28:Core/Inc/NMEA_Standard.hpp **** class NMEA_Standard{
  29:Core/Inc/NMEA_Standard.hpp **** protected:
  30:Core/Inc/NMEA_Standard.hpp **** 	struct Address;
  31:Core/Inc/NMEA_Standard.hpp **** 	struct Checksum;
  32:Core/Inc/NMEA_Standard.hpp **** 
  33:Core/Inc/NMEA_Standard.hpp **** public:
  34:Core/Inc/NMEA_Standard.hpp **** 	enum class TalkerID;
  35:Core/Inc/NMEA_Standard.hpp **** 	enum class Message;
  36:Core/Inc/NMEA_Standard.hpp **** 
  37:Core/Inc/NMEA_Standard.hpp **** 	class DTM;
  38:Core/Inc/NMEA_Standard.hpp **** 	class GBS;
  39:Core/Inc/NMEA_Standard.hpp **** 	class GGA;
  40:Core/Inc/NMEA_Standard.hpp **** 	class GLL;
  41:Core/Inc/NMEA_Standard.hpp **** 	class GNS;
ARM GAS  /var/folders/bb/dhrb69655gd8t4nf464nxc_00000gn/T//ccHP6Bp0.s 			page 12


  42:Core/Inc/NMEA_Standard.hpp **** 	class GRS;
  43:Core/Inc/NMEA_Standard.hpp **** 	class GSA;
  44:Core/Inc/NMEA_Standard.hpp **** 	class GST;
  45:Core/Inc/NMEA_Standard.hpp **** 	class GSV;
  46:Core/Inc/NMEA_Standard.hpp **** 	class RLM;
  47:Core/Inc/NMEA_Standard.hpp **** 	class RMC;
  48:Core/Inc/NMEA_Standard.hpp **** 	class TXT;
  49:Core/Inc/NMEA_Standard.hpp **** 	class VLW;
  50:Core/Inc/NMEA_Standard.hpp **** 	class VTG;
  51:Core/Inc/NMEA_Standard.hpp **** 	class ZDA;
  52:Core/Inc/NMEA_Standard.hpp **** 
  53:Core/Inc/NMEA_Standard.hpp **** 	class BAD;	// NOT a real NMEA object. Returned by factory when an invalid NMEA sentence is passed.
  54:Core/Inc/NMEA_Standard.hpp **** 	
  55:Core/Inc/NMEA_Standard.hpp **** 	virtual ~NMEA_Standard() = default;
  56:Core/Inc/NMEA_Standard.hpp **** 
  57:Core/Inc/NMEA_Standard.hpp **** 	virtual string toString(char * buff) = 0;	// Generates the NMEA Sentence representing teh NMEA obj
  58:Core/Inc/NMEA_Standard.hpp **** 
  59:Core/Inc/NMEA_Standard.hpp **** 	inline static bool valid(const string & nmea) {return Checksum::valid(nmea);}
 555              		.loc 2 59 21
 556              		.cfi_startproc
 557              		@ args = 0, pretend = 0, frame = 8
 558              		@ frame_needed = 1, uses_anonymous_args = 0
 559 0000 80B5     		push	{r7, lr}
 560              		.save {r7, lr}
 561              		.cfi_def_cfa_offset 8
 562              		.cfi_offset 7, -8
 563              		.cfi_offset 14, -4
 564              		.pad #8
 565 0002 82B0     		sub	sp, sp, #8
 566              		.cfi_def_cfa_offset 16
 567              		.setfp r7, sp, #0
 568 0004 00AF     		add	r7, sp, #0
 569              		.cfi_def_cfa_register 7
 570 0006 7860     		str	r0, [r7, #4]
 571              		.loc 2 59 71
 572 0008 7868     		ldr	r0, [r7, #4]
 573 000a FFF7FEFF 		bl	_ZN13NMEA_Standard8Checksum5validERK12StaticString
 574 000e 0346     		mov	r3, r0
 575              		.loc 2 59 78
 576 0010 1846     		mov	r0, r3
 577 0012 0837     		adds	r7, r7, #8
 578              		.cfi_def_cfa_offset 8
 579 0014 BD46     		mov	sp, r7
 580              		.cfi_def_cfa_register 13
 581              		@ sp needed
 582 0016 80BD     		pop	{r7, pc}
 583              		.cfi_endproc
 584              	.LFE926:
 585              		.fnend
 587              		.section	.rodata
 588              		.align	2
 589              	.LC0:
 590 0000 00       		.ascii	"\000"
 591              		.section	.text._ZN13NMEA_Standard3GNS8toStringEv,"axG",%progbits,_ZN13NMEA_Standard3GNS8toStringEv
 592              		.align	1
 593              		.weak	_ZN13NMEA_Standard3GNS8toStringEv
 594              		.syntax unified
ARM GAS  /var/folders/bb/dhrb69655gd8t4nf464nxc_00000gn/T//ccHP6Bp0.s 			page 13


 595              		.thumb
 596              		.thumb_func
 598              	_ZN13NMEA_Standard3GNS8toStringEv:
 599              		.fnstart
 600              	.LFB927:
  60:Core/Inc/NMEA_Standard.hpp **** 
  61:Core/Inc/NMEA_Standard.hpp **** protected:
  62:Core/Inc/NMEA_Standard.hpp **** 	struct Address{
  63:Core/Inc/NMEA_Standard.hpp **** 		string tt;	// Talker Identifier (string format)
  64:Core/Inc/NMEA_Standard.hpp **** 		string sss;	// Sentence Formatter
  65:Core/Inc/NMEA_Standard.hpp **** 		// Note: tt and sss are typically that many characters long but proprietary messages can be diffe
  66:Core/Inc/NMEA_Standard.hpp **** 		
  67:Core/Inc/NMEA_Standard.hpp **** 		Address() = default;
  68:Core/Inc/NMEA_Standard.hpp **** 		Address(const string & s);
  69:Core/Inc/NMEA_Standard.hpp **** 		Address(const string & tt, const string & sss);
  70:Core/Inc/NMEA_Standard.hpp **** 		string toString();
  71:Core/Inc/NMEA_Standard.hpp **** 	};
  72:Core/Inc/NMEA_Standard.hpp **** 	
  73:Core/Inc/NMEA_Standard.hpp **** 	struct Checksum{
  74:Core/Inc/NMEA_Standard.hpp **** 		static const char ast = '*';	// Checksum Prefix
  75:Core/Inc/NMEA_Standard.hpp **** 		uint8_t cs;						// Checksum Value
  76:Core/Inc/NMEA_Standard.hpp **** 
  77:Core/Inc/NMEA_Standard.hpp **** 		Checksum() = default;
  78:Core/Inc/NMEA_Standard.hpp **** 		Checksum(const string & s);		// s is the checksum substring including the '*'.
  79:Core/Inc/NMEA_Standard.hpp **** 		Checksum(uint8_t cs);			// Set a hexadecimal value for cs.
  80:Core/Inc/NMEA_Standard.hpp **** 		
  81:Core/Inc/NMEA_Standard.hpp **** 		static uint8_t checksum(const string & nmea);	// Calculates and sets the checksum based upon a NM
  82:Core/Inc/NMEA_Standard.hpp **** 		static bool valid(const string & nmea);
  83:Core/Inc/NMEA_Standard.hpp **** 		string toString(char cStr[4]);
  84:Core/Inc/NMEA_Standard.hpp **** 	};
  85:Core/Inc/NMEA_Standard.hpp **** 
  86:Core/Inc/NMEA_Standard.hpp **** 	struct UTC_Time{
  87:Core/Inc/NMEA_Standard.hpp **** 		uint8_t hh;	// Hours
  88:Core/Inc/NMEA_Standard.hpp **** 		uint8_t mm;	// Minutes
  89:Core/Inc/NMEA_Standard.hpp **** 		float ss;	// Seconds (2 or 3 decimal points of precision)
  90:Core/Inc/NMEA_Standard.hpp **** 
  91:Core/Inc/NMEA_Standard.hpp **** 		UTC_Time() = default;
  92:Core/Inc/NMEA_Standard.hpp **** 		UTC_Time(const string & tStr);
  93:Core/Inc/NMEA_Standard.hpp **** 		UTC_Time(const UTC_Time & t) = default;
  94:Core/Inc/NMEA_Standard.hpp **** 		string toString();
  95:Core/Inc/NMEA_Standard.hpp **** 
  96:Core/Inc/NMEA_Standard.hpp **** 		// uint32_t operator = (const UTC_Time & t);	// Time in ms since Jan 1 1980
  97:Core/Inc/NMEA_Standard.hpp **** 	};
  98:Core/Inc/NMEA_Standard.hpp **** 
  99:Core/Inc/NMEA_Standard.hpp **** 	struct Coordinate{
 100:Core/Inc/NMEA_Standard.hpp **** 		uint16_t deg;
 101:Core/Inc/NMEA_Standard.hpp **** 		float min;
 102:Core/Inc/NMEA_Standard.hpp **** 
 103:Core/Inc/NMEA_Standard.hpp **** 		Coordinate() = default;
 104:Core/Inc/NMEA_Standard.hpp **** 		Coordinate(const string & s);
 105:Core/Inc/NMEA_Standard.hpp **** 		Coordinate(const Coordinate & c) = default;
 106:Core/Inc/NMEA_Standard.hpp **** 
 107:Core/Inc/NMEA_Standard.hpp **** 		string toString(char cStr[11]);
 108:Core/Inc/NMEA_Standard.hpp **** 
 109:Core/Inc/NMEA_Standard.hpp **** 		float operator = (const Coordinate c);
 110:Core/Inc/NMEA_Standard.hpp **** 
 111:Core/Inc/NMEA_Standard.hpp **** 	};
ARM GAS  /var/folders/bb/dhrb69655gd8t4nf464nxc_00000gn/T//ccHP6Bp0.s 			page 14


 112:Core/Inc/NMEA_Standard.hpp **** 
 113:Core/Inc/NMEA_Standard.hpp **** 	NMEA_Standard() = default;	// Derived classes shall be responsible for all base member initialisat
 114:Core/Inc/NMEA_Standard.hpp **** 
 115:Core/Inc/NMEA_Standard.hpp **** 	void setChecksum();	// Sets the checksum from the member toString representation.
 116:Core/Inc/NMEA_Standard.hpp **** 	
 117:Core/Inc/NMEA_Standard.hpp **** 	/* Static helper functions */
 118:Core/Inc/NMEA_Standard.hpp **** 	template<size_t N>
 119:Core/Inc/NMEA_Standard.hpp **** 	static std::array<StaticString, N> parseFields(const string & nmea);
 120:Core/Inc/NMEA_Standard.hpp **** 	static string toString(const Message msg);
 121:Core/Inc/NMEA_Standard.hpp **** 	static string toString(const TalkerID tId);
 122:Core/Inc/NMEA_Standard.hpp **** 
 123:Core/Inc/NMEA_Standard.hpp **** 									// Address below.
 124:Core/Inc/NMEA_Standard.hpp **** 	const char start = '$';	// Start Character
 125:Core/Inc/NMEA_Standard.hpp **** 									// Payload defined in derived class.
 126:Core/Inc/NMEA_Standard.hpp **** 	Checksum cs;					// Checksum
 127:Core/Inc/NMEA_Standard.hpp **** 	const string crlf = "\r\n";		// Carriage Return, Line Forward
 128:Core/Inc/NMEA_Standard.hpp **** };
 129:Core/Inc/NMEA_Standard.hpp **** 
 130:Core/Inc/NMEA_Standard.hpp **** enum class NMEA_Standard::TalkerID {
 131:Core/Inc/NMEA_Standard.hpp **** 	GP,	// GPS, SBAS
 132:Core/Inc/NMEA_Standard.hpp **** 	GL, // GLONASS
 133:Core/Inc/NMEA_Standard.hpp **** 	GA,	// Galileo
 134:Core/Inc/NMEA_Standard.hpp **** 	GB,	// BeiDou
 135:Core/Inc/NMEA_Standard.hpp **** 	GQ,	// QZSS
 136:Core/Inc/NMEA_Standard.hpp **** 	GN,	// Any Combination
 137:Core/Inc/NMEA_Standard.hpp **** };
 138:Core/Inc/NMEA_Standard.hpp **** 
 139:Core/Inc/NMEA_Standard.hpp **** enum class NMEA_Standard::Message{
 140:Core/Inc/NMEA_Standard.hpp **** 	DTM,	// Datum Reference
 141:Core/Inc/NMEA_Standard.hpp **** 	GAQ,	// GA Poll
 142:Core/Inc/NMEA_Standard.hpp **** 	GBQ,	// GB Poll
 143:Core/Inc/NMEA_Standard.hpp **** 	GBS,	// Satellite Fault Detection
 144:Core/Inc/NMEA_Standard.hpp **** 	GGA,	// GPS Fix Data
 145:Core/Inc/NMEA_Standard.hpp **** 	GLL,	// Location with Time and Fix Status
 146:Core/Inc/NMEA_Standard.hpp **** 	GLQ,	// GL Poll
 147:Core/Inc/NMEA_Standard.hpp **** 	GNQ,	// GN Poll
 148:Core/Inc/NMEA_Standard.hpp **** 	GNS,	// GNSS Fix Data
 149:Core/Inc/NMEA_Standard.hpp **** 	GPQ,	// GP Poll
 150:Core/Inc/NMEA_Standard.hpp **** 	GRS,	// GNSS Range Residuals
 151:Core/Inc/NMEA_Standard.hpp **** 	GSA,	// GNSS Dilution of Precision
 152:Core/Inc/NMEA_Standard.hpp **** 	GST,	// GNSS Pseudorange Error Statistics
 153:Core/Inc/NMEA_Standard.hpp **** 	GSV,	// GNSS Satellites in View
 154:Core/Inc/NMEA_Standard.hpp **** 	RLM,	// Return Link Message
 155:Core/Inc/NMEA_Standard.hpp **** 	RMC,	// Recommended Minimum Data
 156:Core/Inc/NMEA_Standard.hpp **** 	TXT,	// Test transmission
 157:Core/Inc/NMEA_Standard.hpp **** 	VLW,	// Dual Ground/Water Distance
 158:Core/Inc/NMEA_Standard.hpp **** 	VTG,	// Course over Ground and Speed
 159:Core/Inc/NMEA_Standard.hpp **** 	ZDA 	// Time and Date
 160:Core/Inc/NMEA_Standard.hpp **** };
 161:Core/Inc/NMEA_Standard.hpp **** 
 162:Core/Inc/NMEA_Standard.hpp **** class NMEA_Standard::GNS : public NMEA_Standard{
 163:Core/Inc/NMEA_Standard.hpp **** private:
 164:Core/Inc/NMEA_Standard.hpp **** 	Address addr;
 165:Core/Inc/NMEA_Standard.hpp **** 	UTC_Time time;	// GNSS UTC Time
 166:Core/Inc/NMEA_Standard.hpp **** 	Coordinate lat;	// Latitude
 167:Core/Inc/NMEA_Standard.hpp **** 	char NS;	// North / South
 168:Core/Inc/NMEA_Standard.hpp **** 	Coordinate lon;	// Longitude
ARM GAS  /var/folders/bb/dhrb69655gd8t4nf464nxc_00000gn/T//ccHP6Bp0.s 			page 15


 169:Core/Inc/NMEA_Standard.hpp **** 	char EW;	// East / West
 170:Core/Inc/NMEA_Standard.hpp **** 	string posMode;	// Positioning Mode
 171:Core/Inc/NMEA_Standard.hpp **** 	uint8_t numSV;	// Number of Satellites
 172:Core/Inc/NMEA_Standard.hpp **** 	float hdop;	// Horizontal Dilution of Precision
 173:Core/Inc/NMEA_Standard.hpp **** 	float alt;	// Altitude
 174:Core/Inc/NMEA_Standard.hpp **** 	float sep;	// Geoid Separation
 175:Core/Inc/NMEA_Standard.hpp **** 	float diffAge;	// Age of Differential Corrections
 176:Core/Inc/NMEA_Standard.hpp **** 	uint16_t diffStation;	// Differential Correction Station ID
 177:Core/Inc/NMEA_Standard.hpp **** 	char navStatus;	// Navigational Status Indicator
 178:Core/Inc/NMEA_Standard.hpp **** 	
 179:Core/Inc/NMEA_Standard.hpp **** public:
 180:Core/Inc/NMEA_Standard.hpp **** 	GNS(const std::array<StaticString, 15> & fields);
 181:Core/Inc/NMEA_Standard.hpp **** 	GNS(const string & nmea);
 182:Core/Inc/NMEA_Standard.hpp **** 	virtual ~GNS() = default;
 183:Core/Inc/NMEA_Standard.hpp **** 
 184:Core/Inc/NMEA_Standard.hpp **** 	virtual string toString() final { return ""; }	// Unimplemented
 601              		.loc 2 184 17
 602              		.cfi_startproc
 603              		@ args = 0, pretend = 0, frame = 8
 604              		@ frame_needed = 1, uses_anonymous_args = 0
 605 0000 80B5     		push	{r7, lr}
 606              		.cfi_def_cfa_offset 8
 607              		.cfi_offset 7, -8
 608              		.cfi_offset 14, -4
 609 0002 82B0     		sub	sp, sp, #8
 610              		.cfi_def_cfa_offset 16
 611 0004 00AF     		add	r7, sp, #0
 612              		.cfi_def_cfa_register 7
 613 0006 7860     		str	r0, [r7, #4]
 614 0008 3960     		str	r1, [r7]
 615              		.loc 2 184 43
 616 000a 0449     		ldr	r1, .L29
 617 000c 7868     		ldr	r0, [r7, #4]
 618 000e FFF7FEFF 		bl	_ZN12StaticStringC1EPKc
 619              		.loc 2 184 47
 620 0012 7868     		ldr	r0, [r7, #4]
 621 0014 0837     		adds	r7, r7, #8
 622              		.cfi_def_cfa_offset 8
 623 0016 BD46     		mov	sp, r7
 624              		.cfi_def_cfa_register 13
 625              		@ sp needed
 626 0018 80BD     		pop	{r7, pc}
 627              	.L30:
 628 001a 00BF     		.align	2
 629              	.L29:
 630 001c 00000000 		.word	.LC0
 631              		.cfi_endproc
 632              	.LFE927:
 633              		.cantunwind
 634              		.fnend
 636              		.section	.text._ZN13NMEA_Standard3GLL8toStringEPc,"axG",%progbits,_ZN13NMEA_Standard3GLL8toStringE
 637              		.align	1
 638              		.weak	_ZN13NMEA_Standard3GLL8toStringEPc
 639              		.syntax unified
 640              		.thumb
 641              		.thumb_func
 643              	_ZN13NMEA_Standard3GLL8toStringEPc:
ARM GAS  /var/folders/bb/dhrb69655gd8t4nf464nxc_00000gn/T//ccHP6Bp0.s 			page 16


 644              		.fnstart
 645              	.LFB928:
 185:Core/Inc/NMEA_Standard.hpp **** };
 186:Core/Inc/NMEA_Standard.hpp **** 
 187:Core/Inc/NMEA_Standard.hpp **** class NMEA_Standard::GLL : public NMEA_Standard{
 188:Core/Inc/NMEA_Standard.hpp **** private:
 189:Core/Inc/NMEA_Standard.hpp **** 	Address addr;
 190:Core/Inc/NMEA_Standard.hpp **** 	Coordinate lat;
 191:Core/Inc/NMEA_Standard.hpp **** 	char NS;
 192:Core/Inc/NMEA_Standard.hpp **** 	Coordinate lon;
 193:Core/Inc/NMEA_Standard.hpp **** 	char EW;
 194:Core/Inc/NMEA_Standard.hpp **** 	UTC_Time time;
 195:Core/Inc/NMEA_Standard.hpp **** 	char status;
 196:Core/Inc/NMEA_Standard.hpp **** 	char posMode;
 197:Core/Inc/NMEA_Standard.hpp **** 
 198:Core/Inc/NMEA_Standard.hpp **** public:
 199:Core/Inc/NMEA_Standard.hpp **** 	GLL(const std::array<StaticString, 9> & fields);
 200:Core/Inc/NMEA_Standard.hpp **** 	GLL(const string & nmea);
 201:Core/Inc/NMEA_Standard.hpp **** 	virtual string toString(char *) final{return "";}
 646              		.loc 2 201 17
 647              		.cfi_startproc
 648              		@ args = 0, pretend = 0, frame = 16
 649              		@ frame_needed = 1, uses_anonymous_args = 0
 650 0000 80B5     		push	{r7, lr}
 651              		.cfi_def_cfa_offset 8
 652              		.cfi_offset 7, -8
 653              		.cfi_offset 14, -4
 654 0002 84B0     		sub	sp, sp, #16
 655              		.cfi_def_cfa_offset 24
 656 0004 00AF     		add	r7, sp, #0
 657              		.cfi_def_cfa_register 7
 658 0006 F860     		str	r0, [r7, #12]
 659 0008 B960     		str	r1, [r7, #8]
 660 000a 7A60     		str	r2, [r7, #4]
 661              		.loc 2 201 47
 662 000c 0349     		ldr	r1, .L33
 663 000e F868     		ldr	r0, [r7, #12]
 664 0010 FFF7FEFF 		bl	_ZN12StaticStringC1EPKc
 665              		.loc 2 201 50
 666 0014 F868     		ldr	r0, [r7, #12]
 667 0016 1037     		adds	r7, r7, #16
 668              		.cfi_def_cfa_offset 8
 669 0018 BD46     		mov	sp, r7
 670              		.cfi_def_cfa_register 13
 671              		@ sp needed
 672 001a 80BD     		pop	{r7, pc}
 673              	.L34:
 674              		.align	2
 675              	.L33:
 676 001c 00000000 		.word	.LC0
 677              		.cfi_endproc
 678              	.LFE928:
 679              		.cantunwind
 680              		.fnend
 682              		.section	.text._ZN13NMEA_Standard3GSA8toStringEv,"axG",%progbits,_ZN13NMEA_Standard3GSA8toStringEv
 683              		.align	1
 684              		.weak	_ZN13NMEA_Standard3GSA8toStringEv
ARM GAS  /var/folders/bb/dhrb69655gd8t4nf464nxc_00000gn/T//ccHP6Bp0.s 			page 17


 685              		.syntax unified
 686              		.thumb
 687              		.thumb_func
 689              	_ZN13NMEA_Standard3GSA8toStringEv:
 690              		.fnstart
 691              	.LFB929:
 202:Core/Inc/NMEA_Standard.hpp **** };
 203:Core/Inc/NMEA_Standard.hpp **** 
 204:Core/Inc/NMEA_Standard.hpp **** class NMEA_Standard::GSA : public NMEA_Standard{
 205:Core/Inc/NMEA_Standard.hpp **** private:
 206:Core/Inc/NMEA_Standard.hpp **** 	Address addr;
 207:Core/Inc/NMEA_Standard.hpp **** 	char opMode;	// Operational Mode ('M' or 'A')
 208:Core/Inc/NMEA_Standard.hpp **** 	uint8_t navMode;	// Navigation Mode
 209:Core/Inc/NMEA_Standard.hpp **** 	std::array<uint8_t, 12> svid;	// Satellite Numbers
 210:Core/Inc/NMEA_Standard.hpp **** 	float pdop;	// Position DOP
 211:Core/Inc/NMEA_Standard.hpp **** 	float hdop;	// Horizontal DOP
 212:Core/Inc/NMEA_Standard.hpp **** 	float vdop;	// Vertical DOP
 213:Core/Inc/NMEA_Standard.hpp **** 	uint8_t systemId;	// GNSS System ID
 214:Core/Inc/NMEA_Standard.hpp **** 
 215:Core/Inc/NMEA_Standard.hpp **** public:
 216:Core/Inc/NMEA_Standard.hpp **** 	GSA(const std::array<StaticString, 20> & fields);
 217:Core/Inc/NMEA_Standard.hpp **** 	GSA(const string & nmea);
 218:Core/Inc/NMEA_Standard.hpp **** 	virtual ~GSA() = default;
 219:Core/Inc/NMEA_Standard.hpp **** 
 220:Core/Inc/NMEA_Standard.hpp **** 	virtual string toString() final{return "";}	// Unimplemented
 692              		.loc 2 220 17
 693              		.cfi_startproc
 694              		@ args = 0, pretend = 0, frame = 8
 695              		@ frame_needed = 1, uses_anonymous_args = 0
 696 0000 80B5     		push	{r7, lr}
 697              		.cfi_def_cfa_offset 8
 698              		.cfi_offset 7, -8
 699              		.cfi_offset 14, -4
 700 0002 82B0     		sub	sp, sp, #8
 701              		.cfi_def_cfa_offset 16
 702 0004 00AF     		add	r7, sp, #0
 703              		.cfi_def_cfa_register 7
 704 0006 7860     		str	r0, [r7, #4]
 705 0008 3960     		str	r1, [r7]
 706              		.loc 2 220 41
 707 000a 0449     		ldr	r1, .L37
 708 000c 7868     		ldr	r0, [r7, #4]
 709 000e FFF7FEFF 		bl	_ZN12StaticStringC1EPKc
 710              		.loc 2 220 44
 711 0012 7868     		ldr	r0, [r7, #4]
 712 0014 0837     		adds	r7, r7, #8
 713              		.cfi_def_cfa_offset 8
 714 0016 BD46     		mov	sp, r7
 715              		.cfi_def_cfa_register 13
 716              		@ sp needed
 717 0018 80BD     		pop	{r7, pc}
 718              	.L38:
 719 001a 00BF     		.align	2
 720              	.L37:
 721 001c 00000000 		.word	.LC0
 722              		.cfi_endproc
 723              	.LFE929:
ARM GAS  /var/folders/bb/dhrb69655gd8t4nf464nxc_00000gn/T//ccHP6Bp0.s 			page 18


 724              		.cantunwind
 725              		.fnend
 727              		.section	.text._ZN13NMEA_Standard3ZDA8toStringEv,"axG",%progbits,_ZN13NMEA_Standard3ZDA8toStringEv
 728              		.align	1
 729              		.weak	_ZN13NMEA_Standard3ZDA8toStringEv
 730              		.syntax unified
 731              		.thumb
 732              		.thumb_func
 734              	_ZN13NMEA_Standard3ZDA8toStringEv:
 735              		.fnstart
 736              	.LFB930:
 221:Core/Inc/NMEA_Standard.hpp **** };
 222:Core/Inc/NMEA_Standard.hpp **** 
 223:Core/Inc/NMEA_Standard.hpp **** class NMEA_Standard::ZDA : public NMEA_Standard{
 224:Core/Inc/NMEA_Standard.hpp **** private:
 225:Core/Inc/NMEA_Standard.hpp **** 	struct UTC_DateTime : UTC_Time{
 226:Core/Inc/NMEA_Standard.hpp **** 		uint8_t day;
 227:Core/Inc/NMEA_Standard.hpp **** 		uint8_t month;
 228:Core/Inc/NMEA_Standard.hpp **** 		uint16_t year;
 229:Core/Inc/NMEA_Standard.hpp **** 		uint8_t ltzh;
 230:Core/Inc/NMEA_Standard.hpp **** 		uint8_t ltzm;
 231:Core/Inc/NMEA_Standard.hpp **** 
 232:Core/Inc/NMEA_Standard.hpp **** 		UTC_DateTime() = default;
 233:Core/Inc/NMEA_Standard.hpp **** 		UTC_DateTime(const string & time, 
 234:Core/Inc/NMEA_Standard.hpp **** 			uint8_t day, uint8_t month, uint16_t year, 
 235:Core/Inc/NMEA_Standard.hpp **** 			uint8_t ltzh, uint8_t ltzm);
 236:Core/Inc/NMEA_Standard.hpp **** 
 237:Core/Inc/NMEA_Standard.hpp **** 		};
 238:Core/Inc/NMEA_Standard.hpp **** 
 239:Core/Inc/NMEA_Standard.hpp **** 	Address addr;
 240:Core/Inc/NMEA_Standard.hpp **** 	UTC_DateTime time;
 241:Core/Inc/NMEA_Standard.hpp **** 
 242:Core/Inc/NMEA_Standard.hpp **** public:
 243:Core/Inc/NMEA_Standard.hpp **** 	ZDA(const std::array<StaticString, 9> & fields);
 244:Core/Inc/NMEA_Standard.hpp **** 	ZDA(const string & nmea);
 245:Core/Inc/NMEA_Standard.hpp **** 	virtual ~ZDA() = default;
 246:Core/Inc/NMEA_Standard.hpp **** 
 247:Core/Inc/NMEA_Standard.hpp **** 	virtual string toString() final{return "";}	// Unimplemented
 737              		.loc 2 247 17
 738              		.cfi_startproc
 739              		@ args = 0, pretend = 0, frame = 8
 740              		@ frame_needed = 1, uses_anonymous_args = 0
 741 0000 80B5     		push	{r7, lr}
 742              		.cfi_def_cfa_offset 8
 743              		.cfi_offset 7, -8
 744              		.cfi_offset 14, -4
 745 0002 82B0     		sub	sp, sp, #8
 746              		.cfi_def_cfa_offset 16
 747 0004 00AF     		add	r7, sp, #0
 748              		.cfi_def_cfa_register 7
 749 0006 7860     		str	r0, [r7, #4]
 750 0008 3960     		str	r1, [r7]
 751              		.loc 2 247 41
 752 000a 0449     		ldr	r1, .L41
 753 000c 7868     		ldr	r0, [r7, #4]
 754 000e FFF7FEFF 		bl	_ZN12StaticStringC1EPKc
 755              		.loc 2 247 44
ARM GAS  /var/folders/bb/dhrb69655gd8t4nf464nxc_00000gn/T//ccHP6Bp0.s 			page 19


 756 0012 7868     		ldr	r0, [r7, #4]
 757 0014 0837     		adds	r7, r7, #8
 758              		.cfi_def_cfa_offset 8
 759 0016 BD46     		mov	sp, r7
 760              		.cfi_def_cfa_register 13
 761              		@ sp needed
 762 0018 80BD     		pop	{r7, pc}
 763              	.L42:
 764 001a 00BF     		.align	2
 765              	.L41:
 766 001c 00000000 		.word	.LC0
 767              		.cfi_endproc
 768              	.LFE930:
 769              		.cantunwind
 770              		.fnend
 772              		.section	.rodata
 773 0001 000000   		.align	2
 774              	.LC1:
 775 0004 0D0A00   		.ascii	"\015\012\000"
 776              		.section	.text._ZN13NMEA_StandardC2Ev,"axG",%progbits,_ZN13NMEA_StandardC5Ev,comdat
 777              		.align	1
 778              		.weak	_ZN13NMEA_StandardC2Ev
 779              		.syntax unified
 780              		.thumb
 781              		.thumb_func
 783              	_ZN13NMEA_StandardC2Ev:
 784              		.fnstart
 785              	.LFB933:
 113:Core/Inc/NMEA_Standard.hpp **** 
 786              		.loc 2 113 2
 787              		.cfi_startproc
 788              		@ args = 0, pretend = 0, frame = 8
 789              		@ frame_needed = 1, uses_anonymous_args = 0
 790 0000 80B5     		push	{r7, lr}
 791              		.cfi_def_cfa_offset 8
 792              		.cfi_offset 7, -8
 793              		.cfi_offset 14, -4
 794 0002 82B0     		sub	sp, sp, #8
 795              		.cfi_def_cfa_offset 16
 796 0004 00AF     		add	r7, sp, #0
 797              		.cfi_def_cfa_register 7
 798 0006 7860     		str	r0, [r7, #4]
 799              	.LBB4:
 113:Core/Inc/NMEA_Standard.hpp **** 
 800              		.loc 2 113 2
 801 0008 084A     		ldr	r2, .L45
 802 000a 7B68     		ldr	r3, [r7, #4]
 803 000c 1A60     		str	r2, [r3]
 804 000e 7B68     		ldr	r3, [r7, #4]
 805 0010 2422     		movs	r2, #36
 806 0012 1A71     		strb	r2, [r3, #4]
 807 0014 7B68     		ldr	r3, [r7, #4]
 808 0016 0833     		adds	r3, r3, #8
 809 0018 0549     		ldr	r1, .L45+4
 810 001a 1846     		mov	r0, r3
 811 001c FFF7FEFF 		bl	_ZN12StaticStringC1EPKc
 812              	.LBE4:
ARM GAS  /var/folders/bb/dhrb69655gd8t4nf464nxc_00000gn/T//ccHP6Bp0.s 			page 20


 813 0020 7B68     		ldr	r3, [r7, #4]
 814 0022 1846     		mov	r0, r3
 815 0024 0837     		adds	r7, r7, #8
 816              		.cfi_def_cfa_offset 8
 817 0026 BD46     		mov	sp, r7
 818              		.cfi_def_cfa_register 13
 819              		@ sp needed
 820 0028 80BD     		pop	{r7, pc}
 821              	.L46:
 822 002a 00BF     		.align	2
 823              	.L45:
 824 002c 08000000 		.word	_ZTV13NMEA_Standard+8
 825 0030 04000000 		.word	.LC1
 826              		.cfi_endproc
 827              	.LFE933:
 828              		.cantunwind
 829              		.fnend
 831              		.weak	_ZN13NMEA_StandardC1Ev
 832              		.thumb_set _ZN13NMEA_StandardC1Ev,_ZN13NMEA_StandardC2Ev
 833              		.section	.text._ZN13NMEA_StandardD2Ev,"axG",%progbits,_ZN13NMEA_StandardD5Ev,comdat
 834              		.align	1
 835              		.weak	_ZN13NMEA_StandardD2Ev
 836              		.syntax unified
 837              		.thumb
 838              		.thumb_func
 840              	_ZN13NMEA_StandardD2Ev:
 841              		.fnstart
 842              	.LFB936:
  55:Core/Inc/NMEA_Standard.hpp **** 
 843              		.loc 2 55 10
 844              		.cfi_startproc
 845              		@ args = 0, pretend = 0, frame = 8
 846              		@ frame_needed = 1, uses_anonymous_args = 0
 847              		@ link register save eliminated.
 848 0000 80B4     		push	{r7}
 849              		.cfi_def_cfa_offset 4
 850              		.cfi_offset 7, -4
 851 0002 83B0     		sub	sp, sp, #12
 852              		.cfi_def_cfa_offset 16
 853 0004 00AF     		add	r7, sp, #0
 854              		.cfi_def_cfa_register 7
 855 0006 7860     		str	r0, [r7, #4]
 856              	.LBB5:
  55:Core/Inc/NMEA_Standard.hpp **** 
 857              		.loc 2 55 10
 858 0008 044A     		ldr	r2, .L49
 859 000a 7B68     		ldr	r3, [r7, #4]
 860 000c 1A60     		str	r2, [r3]
 861              	.LBE5:
 862 000e 7B68     		ldr	r3, [r7, #4]
 863 0010 1846     		mov	r0, r3
 864 0012 0C37     		adds	r7, r7, #12
 865              		.cfi_def_cfa_offset 4
 866 0014 BD46     		mov	sp, r7
 867              		.cfi_def_cfa_register 13
 868              		@ sp needed
 869 0016 5DF8047B 		ldr	r7, [sp], #4
ARM GAS  /var/folders/bb/dhrb69655gd8t4nf464nxc_00000gn/T//ccHP6Bp0.s 			page 21


 870              		.cfi_restore 7
 871              		.cfi_def_cfa_offset 0
 872 001a 7047     		bx	lr
 873              	.L50:
 874              		.align	2
 875              	.L49:
 876 001c 08000000 		.word	_ZTV13NMEA_Standard+8
 877              		.cfi_endproc
 878              	.LFE936:
 879              		.cantunwind
 880              		.fnend
 882              		.weak	_ZN13NMEA_StandardD1Ev
 883              		.thumb_set _ZN13NMEA_StandardD1Ev,_ZN13NMEA_StandardD2Ev
 884              		.section	.text._ZN13NMEA_StandardD0Ev,"axG",%progbits,_ZN13NMEA_StandardD5Ev,comdat
 885              		.align	1
 886              		.weak	_ZN13NMEA_StandardD0Ev
 887              		.syntax unified
 888              		.thumb
 889              		.thumb_func
 891              	_ZN13NMEA_StandardD0Ev:
 892              		.fnstart
 893              	.LFB938:
  55:Core/Inc/NMEA_Standard.hpp **** 
 894              		.loc 2 55 10
 895              		.cfi_startproc
 896              		@ args = 0, pretend = 0, frame = 8
 897              		@ frame_needed = 1, uses_anonymous_args = 0
 898 0000 80B5     		push	{r7, lr}
 899              		.cfi_def_cfa_offset 8
 900              		.cfi_offset 7, -8
 901              		.cfi_offset 14, -4
 902 0002 82B0     		sub	sp, sp, #8
 903              		.cfi_def_cfa_offset 16
 904 0004 00AF     		add	r7, sp, #0
 905              		.cfi_def_cfa_register 7
 906 0006 7860     		str	r0, [r7, #4]
  55:Core/Inc/NMEA_Standard.hpp **** 
 907              		.loc 2 55 10
 908 0008 7868     		ldr	r0, [r7, #4]
 909 000a FFF7FEFF 		bl	_ZN13NMEA_StandardD1Ev
 910 000e 1021     		movs	r1, #16
 911 0010 7868     		ldr	r0, [r7, #4]
 912 0012 FFF7FEFF 		bl	_ZdlPvj
 913 0016 7B68     		ldr	r3, [r7, #4]
 914 0018 1846     		mov	r0, r3
 915 001a 0837     		adds	r7, r7, #8
 916              		.cfi_def_cfa_offset 8
 917 001c BD46     		mov	sp, r7
 918              		.cfi_def_cfa_register 13
 919              		@ sp needed
 920 001e 80BD     		pop	{r7, pc}
 921              		.cfi_endproc
 922              	.LFE938:
 923              		.cantunwind
 924              		.fnend
 926              		.section	.text._ZN13NMEA_Standard7AddressC2ERK12StaticString,"ax",%progbits
 927              		.align	1
ARM GAS  /var/folders/bb/dhrb69655gd8t4nf464nxc_00000gn/T//ccHP6Bp0.s 			page 22


 928              		.global	_ZN13NMEA_Standard7AddressC2ERK12StaticString
 929              		.syntax unified
 930              		.thumb
 931              		.thumb_func
 933              	_ZN13NMEA_Standard7AddressC2ERK12StaticString:
 934              		.fnstart
 935              	.LFB945:
 936              		.file 3 "Core/Src/NMEA_Standard.cpp"
   1:Core/Src/NMEA_Standard.cpp **** /**
   2:Core/Src/NMEA_Standard.cpp ****   ******************************************************************************
   3:Core/Src/NMEA_Standard.cpp ****   * @file           : NMEA.cpp
   4:Core/Src/NMEA_Standard.cpp ****   * @brief          : Header file for NMEA_Standard.hpp
   5:Core/Src/NMEA_Standard.cpp ****   * @author			: Lawrence Stanton
   6:Core/Src/NMEA_Standard.cpp ****   ******************************************************************************
   7:Core/Src/NMEA_Standard.cpp ****   * @attention
   8:Core/Src/NMEA_Standard.cpp ****   *
   9:Core/Src/NMEA_Standard.cpp ****   * © LD Stanton 2022
  10:Core/Src/NMEA_Standard.cpp ****   * 
  11:Core/Src/NMEA_Standard.cpp ****   * This file and its content are the copyright property of the author. All 
  12:Core/Src/NMEA_Standard.cpp ****   * rights are reserved. No warranty is given. No liability is assumed.
  13:Core/Src/NMEA_Standard.cpp ****   * Confidential unless licensed otherwise. If licensed, refer to the 
  14:Core/Src/NMEA_Standard.cpp ****   * accompanying file "LICENCE" for license details.
  15:Core/Src/NMEA_Standard.cpp ****   * 
  16:Core/Src/NMEA_Standard.cpp ****   ******************************************************************************
  17:Core/Src/NMEA_Standard.cpp ****   */
  18:Core/Src/NMEA_Standard.cpp **** 
  19:Core/Src/NMEA_Standard.cpp **** /* --------------------------------------------------------------------------- */
  20:Core/Src/NMEA_Standard.cpp **** /* Begin Private Includes */
  21:Core/Src/NMEA_Standard.cpp **** #include "NMEA_Standard.hpp"
  22:Core/Src/NMEA_Standard.cpp **** 
  23:Core/Src/NMEA_Standard.cpp **** #include <algorithm>
  24:Core/Src/NMEA_Standard.cpp **** #include <cstdio>
  25:Core/Src/NMEA_Standard.cpp **** 
  26:Core/Src/NMEA_Standard.cpp **** template<size_t N>
  27:Core/Src/NMEA_Standard.cpp **** std::array<string, N> NMEA_Standard::parseFields(const string & nmea){
  28:Core/Src/NMEA_Standard.cpp **** 	std::array<string, N> fields;
  29:Core/Src/NMEA_Standard.cpp **** 
  30:Core/Src/NMEA_Standard.cpp **** 	size_t i = 1, n = 0;
  31:Core/Src/NMEA_Standard.cpp **** 	if(!nmea.empty() && valid(nmea)){	// Only proceed if the NMEA sentence was valid.
  32:Core/Src/NMEA_Standard.cpp **** 		if(nmea.at(0) == '$'){
  33:Core/Src/NMEA_Standard.cpp **** 			std::size_t j;
  34:Core/Src/NMEA_Standard.cpp **** 			for(j = 1; j < nmea.length(); j++){
  35:Core/Src/NMEA_Standard.cpp **** 				if(nmea.at(j) == ','){	// Push each comma delimited item.
  36:Core/Src/NMEA_Standard.cpp **** 					fields[n++] = nmea.substr(i, j-i); 
  37:Core/Src/NMEA_Standard.cpp **** 					i = j+1;
  38:Core/Src/NMEA_Standard.cpp **** 					if(n >= N) goto InvalidNoFields;
  39:Core/Src/NMEA_Standard.cpp **** 				}
  40:Core/Src/NMEA_Standard.cpp **** 				else if(nmea.at(j) == '*'){
  41:Core/Src/NMEA_Standard.cpp **** 					fields[n++] = (nmea.substr(i, j-i));	// Last field before checksum
  42:Core/Src/NMEA_Standard.cpp **** 					break;
  43:Core/Src/NMEA_Standard.cpp **** 				}
  44:Core/Src/NMEA_Standard.cpp **** 			}
  45:Core/Src/NMEA_Standard.cpp **** 			if(j < nmea.length() - 3) fields[n] = (nmea.substr(j, 3));	// Checksum characters.
  46:Core/Src/NMEA_Standard.cpp **** 		}
  47:Core/Src/NMEA_Standard.cpp **** 	}
  48:Core/Src/NMEA_Standard.cpp **** 	return fields;
  49:Core/Src/NMEA_Standard.cpp **** 
ARM GAS  /var/folders/bb/dhrb69655gd8t4nf464nxc_00000gn/T//ccHP6Bp0.s 			page 23


  50:Core/Src/NMEA_Standard.cpp **** InvalidNoFields:
  51:Core/Src/NMEA_Standard.cpp **** 	for(auto k = 0u; ++k < N; ) fields[k] = "";
  52:Core/Src/NMEA_Standard.cpp **** 	return fields;
  53:Core/Src/NMEA_Standard.cpp **** }
  54:Core/Src/NMEA_Standard.cpp **** 
  55:Core/Src/NMEA_Standard.cpp **** 
  56:Core/Src/NMEA_Standard.cpp **** /* NMEA Address Methods */
  57:Core/Src/NMEA_Standard.cpp **** 
  58:Core/Src/NMEA_Standard.cpp **** /**
  59:Core/Src/NMEA_Standard.cpp ****  * @brief Construct a new NMEA::Address::Address object
  60:Core/Src/NMEA_Standard.cpp ****  * 
  61:Core/Src/NMEA_Standard.cpp ****  * @param str
  62:Core/Src/NMEA_Standard.cpp ****  * 
  63:Core/Src/NMEA_Standard.cpp ****  * @note sss always filled with 3 characters. tt will assume the remainder.
  64:Core/Src/NMEA_Standard.cpp ****  */
  65:Core/Src/NMEA_Standard.cpp **** NMEA_Standard::Address::Address(const string & str){
 937              		.loc 3 65 1
 938              		.cfi_startproc
 939              		@ args = 0, pretend = 0, frame = 24
 940              		@ frame_needed = 1, uses_anonymous_args = 0
 941 0000 90B5     		push	{r4, r7, lr}
 942              		.cfi_def_cfa_offset 12
 943              		.cfi_offset 4, -12
 944              		.cfi_offset 7, -8
 945              		.cfi_offset 14, -4
 946 0002 87B0     		sub	sp, sp, #28
 947              		.cfi_def_cfa_offset 40
 948 0004 00AF     		add	r7, sp, #0
 949              		.cfi_def_cfa_register 7
 950 0006 7860     		str	r0, [r7, #4]
 951 0008 3960     		str	r1, [r7]
 952              	.LBB6:
 953              		.loc 3 65 51
 954 000a 7B68     		ldr	r3, [r7, #4]
 955 000c 1846     		mov	r0, r3
 956 000e FFF7FEFF 		bl	_ZN12StaticStringC1Ev
 957 0012 7B68     		ldr	r3, [r7, #4]
 958 0014 0833     		adds	r3, r3, #8
 959 0016 1846     		mov	r0, r3
 960 0018 FFF7FEFF 		bl	_ZN12StaticStringC1Ev
  66:Core/Src/NMEA_Standard.cpp **** 	if(str.length() >= 3){
 961              		.loc 3 66 15
 962 001c 3868     		ldr	r0, [r7]
 963 001e FFF7FEFF 		bl	_ZNK12StaticString6lengthEv
 964 0022 0346     		mov	r3, r0
 965              		.loc 3 66 18
 966 0024 022B     		cmp	r3, #2
 967 0026 8CBF     		ite	hi
 968 0028 0123     		movhi	r3, #1
 969 002a 0023     		movls	r3, #0
 970 002c DBB2     		uxtb	r3, r3
 971              		.loc 3 66 2
 972 002e 002B     		cmp	r3, #0
 973 0030 22D0     		beq	.L54
  67:Core/Src/NMEA_Standard.cpp **** 		tt = str.substr(0, str.length() - 3);
 974              		.loc 3 67 6
 975 0032 7C68     		ldr	r4, [r7, #4]
ARM GAS  /var/folders/bb/dhrb69655gd8t4nf464nxc_00000gn/T//ccHP6Bp0.s 			page 24


 976              		.loc 3 67 32
 977 0034 3868     		ldr	r0, [r7]
 978 0036 FFF7FEFF 		bl	_ZNK12StaticString6lengthEv
 979 003a 0346     		mov	r3, r0
 980              		.loc 3 67 38
 981 003c 033B     		subs	r3, r3, #3
 982 003e 07F10800 		add	r0, r7, #8
 983 0042 0022     		movs	r2, #0
 984 0044 3968     		ldr	r1, [r7]
 985 0046 FFF7FEFF 		bl	_ZNK12StaticString6substrEjj
 986              		.loc 3 67 6
 987 004a 07F10803 		add	r3, r7, #8
 988 004e 1946     		mov	r1, r3
 989 0050 2046     		mov	r0, r4
 990 0052 FFF7FEFF 		bl	_ZN12StaticStringaSERKS_
  68:Core/Src/NMEA_Standard.cpp **** 		sss = str.substr(2);
 991              		.loc 3 68 7
 992 0056 7B68     		ldr	r3, [r7, #4]
 993 0058 03F10804 		add	r4, r3, #8
 994              		.loc 3 68 21
 995 005c 07F11000 		add	r0, r7, #16
 996 0060 4FF0FF33 		mov	r3, #-1
 997 0064 0222     		movs	r2, #2
 998 0066 3968     		ldr	r1, [r7]
 999 0068 FFF7FEFF 		bl	_ZNK12StaticString6substrEjj
 1000              		.loc 3 68 7
 1001 006c 07F11003 		add	r3, r7, #16
 1002 0070 1946     		mov	r1, r3
 1003 0072 2046     		mov	r0, r4
 1004 0074 FFF7FEFF 		bl	_ZN12StaticStringaSERKS_
 1005              	.L54:
 1006              	.LBE6:
  69:Core/Src/NMEA_Standard.cpp **** 	}
  70:Core/Src/NMEA_Standard.cpp **** }
 1007              		.loc 3 70 1
 1008 0078 7B68     		ldr	r3, [r7, #4]
 1009 007a 1846     		mov	r0, r3
 1010 007c 1C37     		adds	r7, r7, #28
 1011              		.cfi_def_cfa_offset 12
 1012 007e BD46     		mov	sp, r7
 1013              		.cfi_def_cfa_register 13
 1014              		@ sp needed
 1015 0080 90BD     		pop	{r4, r7, pc}
 1016              		.cfi_endproc
 1017              	.LFE945:
 1018              		.cantunwind
 1019              		.fnend
 1021              		.global	_ZN13NMEA_Standard7AddressC1ERK12StaticString
 1022              		.thumb_set _ZN13NMEA_Standard7AddressC1ERK12StaticString,_ZN13NMEA_Standard7AddressC2ERK12StaticSt
 1023              		.section	.text._ZN13NMEA_Standard7AddressC2ERK12StaticStringS3_,"ax",%progbits
 1024              		.align	1
 1025              		.global	_ZN13NMEA_Standard7AddressC2ERK12StaticStringS3_
 1026              		.syntax unified
 1027              		.thumb
 1028              		.thumb_func
 1030              	_ZN13NMEA_Standard7AddressC2ERK12StaticStringS3_:
 1031              		.fnstart
ARM GAS  /var/folders/bb/dhrb69655gd8t4nf464nxc_00000gn/T//ccHP6Bp0.s 			page 25


 1032              	.LFB948:
  71:Core/Src/NMEA_Standard.cpp **** 
  72:Core/Src/NMEA_Standard.cpp **** NMEA_Standard::Address::Address(const string & tt, const string & sss) :
 1033              		.loc 3 72 1
 1034              		.cfi_startproc
 1035              		@ args = 0, pretend = 0, frame = 16
 1036              		@ frame_needed = 1, uses_anonymous_args = 0
 1037              		@ link register save eliminated.
 1038 0000 80B4     		push	{r7}
 1039              		.cfi_def_cfa_offset 4
 1040              		.cfi_offset 7, -4
 1041 0002 85B0     		sub	sp, sp, #20
 1042              		.cfi_def_cfa_offset 24
 1043 0004 00AF     		add	r7, sp, #0
 1044              		.cfi_def_cfa_register 7
 1045 0006 F860     		str	r0, [r7, #12]
 1046 0008 B960     		str	r1, [r7, #8]
 1047 000a 7A60     		str	r2, [r7, #4]
 1048              	.LBB7:
  73:Core/Src/NMEA_Standard.cpp **** 	tt(tt), sss(sss){}
 1049              		.loc 3 73 17
 1050 000c FB68     		ldr	r3, [r7, #12]
 1051 000e BA68     		ldr	r2, [r7, #8]
 1052 0010 92E80300 		ldm	r2, {r0, r1}
 1053 0014 83E80300 		stm	r3, {r0, r1}
 1054 0018 FB68     		ldr	r3, [r7, #12]
 1055 001a 7A68     		ldr	r2, [r7, #4]
 1056 001c 0833     		adds	r3, r3, #8
 1057 001e 92E80300 		ldm	r2, {r0, r1}
 1058 0022 83E80300 		stm	r3, {r0, r1}
 1059              	.LBE7:
 1060              		.loc 3 73 19
 1061 0026 FB68     		ldr	r3, [r7, #12]
 1062 0028 1846     		mov	r0, r3
 1063 002a 1437     		adds	r7, r7, #20
 1064              		.cfi_def_cfa_offset 4
 1065 002c BD46     		mov	sp, r7
 1066              		.cfi_def_cfa_register 13
 1067              		@ sp needed
 1068 002e 5DF8047B 		ldr	r7, [sp], #4
 1069              		.cfi_restore 7
 1070              		.cfi_def_cfa_offset 0
 1071 0032 7047     		bx	lr
 1072              		.cfi_endproc
 1073              	.LFE948:
 1074              		.cantunwind
 1075              		.fnend
 1077              		.global	_ZN13NMEA_Standard7AddressC1ERK12StaticStringS3_
 1078              		.thumb_set _ZN13NMEA_Standard7AddressC1ERK12StaticStringS3_,_ZN13NMEA_Standard7AddressC2ERK12Stati
 1079              		.section	.text._ZN13NMEA_Standard7Address8toStringEv,"ax",%progbits
 1080              		.align	1
 1081              		.global	_ZN13NMEA_Standard7Address8toStringEv
 1082              		.syntax unified
 1083              		.thumb
 1084              		.thumb_func
 1086              	_ZN13NMEA_Standard7Address8toStringEv:
 1087              		.fnstart
ARM GAS  /var/folders/bb/dhrb69655gd8t4nf464nxc_00000gn/T//ccHP6Bp0.s 			page 26


 1088              	.LFB950:
  74:Core/Src/NMEA_Standard.cpp **** 
  75:Core/Src/NMEA_Standard.cpp **** string NMEA_Standard::Address::toString(){
 1089              		.loc 3 75 42
 1090              		.cfi_startproc
 1091              		@ args = 0, pretend = 0, frame = 8
 1092              		@ frame_needed = 1, uses_anonymous_args = 0
 1093 0000 80B5     		push	{r7, lr}
 1094              		.save {r7, lr}
 1095              		.cfi_def_cfa_offset 8
 1096              		.cfi_offset 7, -8
 1097              		.cfi_offset 14, -4
 1098              		.pad #8
 1099 0002 82B0     		sub	sp, sp, #8
 1100              		.cfi_def_cfa_offset 16
 1101              		.setfp r7, sp, #0
 1102 0004 00AF     		add	r7, sp, #0
 1103              		.cfi_def_cfa_register 7
 1104 0006 7860     		str	r0, [r7, #4]
 1105 0008 3960     		str	r1, [r7]
  76:Core/Src/NMEA_Standard.cpp **** 	return tt + sss;
 1106              		.loc 3 76 14
 1107 000a 3968     		ldr	r1, [r7]
 1108 000c 3B68     		ldr	r3, [r7]
 1109 000e 03F10802 		add	r2, r3, #8
 1110 0012 7B68     		ldr	r3, [r7, #4]
 1111 0014 1846     		mov	r0, r3
 1112 0016 FFF7FEFF 		bl	_ZN12StaticStringplERS_
  77:Core/Src/NMEA_Standard.cpp **** }
 1113              		.loc 3 77 1
 1114 001a 7868     		ldr	r0, [r7, #4]
 1115 001c 0837     		adds	r7, r7, #8
 1116              		.cfi_def_cfa_offset 8
 1117 001e BD46     		mov	sp, r7
 1118              		.cfi_def_cfa_register 13
 1119              		@ sp needed
 1120 0020 80BD     		pop	{r7, pc}
 1121              		.cfi_endproc
 1122              	.LFE950:
 1123              		.fnend
 1125              		.section	.rodata
 1126 0007 00       		.align	2
 1127              	.LC2:
 1128 0008 2A253268 		.ascii	"*%2hhX\000"
 1128      685800
 1129              		.section	.text._ZN13NMEA_Standard8ChecksumC2ERK12StaticString,"ax",%progbits
 1130              		.align	1
 1131              		.global	_ZN13NMEA_Standard8ChecksumC2ERK12StaticString
 1132              		.syntax unified
 1133              		.thumb
 1134              		.thumb_func
 1136              	_ZN13NMEA_Standard8ChecksumC2ERK12StaticString:
 1137              		.fnstart
 1138              	.LFB952:
  78:Core/Src/NMEA_Standard.cpp **** 
  79:Core/Src/NMEA_Standard.cpp **** /* NMEA Checksum Methods */
  80:Core/Src/NMEA_Standard.cpp **** 
ARM GAS  /var/folders/bb/dhrb69655gd8t4nf464nxc_00000gn/T//ccHP6Bp0.s 			page 27


  81:Core/Src/NMEA_Standard.cpp **** NMEA_Standard::Checksum::Checksum(const string & s){
 1139              		.loc 3 81 1
 1140              		.cfi_startproc
 1141              		@ args = 0, pretend = 0, frame = 8
 1142              		@ frame_needed = 1, uses_anonymous_args = 0
 1143 0000 80B5     		push	{r7, lr}
 1144              		.cfi_def_cfa_offset 8
 1145              		.cfi_offset 7, -8
 1146              		.cfi_offset 14, -4
 1147 0002 82B0     		sub	sp, sp, #8
 1148              		.cfi_def_cfa_offset 16
 1149 0004 00AF     		add	r7, sp, #0
 1150              		.cfi_def_cfa_register 7
 1151 0006 7860     		str	r0, [r7, #4]
 1152 0008 3960     		str	r1, [r7]
 1153              	.LBB8:
  82:Core/Src/NMEA_Standard.cpp **** 	std::sscanf(s.c_str(), "*%2hhX", &cs);
 1154              		.loc 3 82 13
 1155 000a 3868     		ldr	r0, [r7]
 1156 000c FFF7FEFF 		bl	_ZNK12StaticString5c_strEv
 1157 0010 7B68     		ldr	r3, [r7, #4]
 1158 0012 1A46     		mov	r2, r3
 1159 0014 0349     		ldr	r1, .L62
 1160 0016 FFF7FEFF 		bl	sscanf
 1161              	.LBE8:
  83:Core/Src/NMEA_Standard.cpp **** }
 1162              		.loc 3 83 1
 1163 001a 7B68     		ldr	r3, [r7, #4]
 1164 001c 1846     		mov	r0, r3
 1165 001e 0837     		adds	r7, r7, #8
 1166              		.cfi_def_cfa_offset 8
 1167 0020 BD46     		mov	sp, r7
 1168              		.cfi_def_cfa_register 13
 1169              		@ sp needed
 1170 0022 80BD     		pop	{r7, pc}
 1171              	.L63:
 1172              		.align	2
 1173              	.L62:
 1174 0024 08000000 		.word	.LC2
 1175              		.cfi_endproc
 1176              	.LFE952:
 1177              		.cantunwind
 1178              		.fnend
 1180              		.global	_ZN13NMEA_Standard8ChecksumC1ERK12StaticString
 1181              		.thumb_set _ZN13NMEA_Standard8ChecksumC1ERK12StaticString,_ZN13NMEA_Standard8ChecksumC2ERK12Static
 1182              		.section	.text._ZN13NMEA_Standard8ChecksumC2Eh,"ax",%progbits
 1183              		.align	1
 1184              		.global	_ZN13NMEA_Standard8ChecksumC2Eh
 1185              		.syntax unified
 1186              		.thumb
 1187              		.thumb_func
 1189              	_ZN13NMEA_Standard8ChecksumC2Eh:
 1190              		.fnstart
 1191              	.LFB955:
  84:Core/Src/NMEA_Standard.cpp **** 
  85:Core/Src/NMEA_Standard.cpp **** NMEA_Standard::Checksum::Checksum(uint8_t c){
 1192              		.loc 3 85 1
ARM GAS  /var/folders/bb/dhrb69655gd8t4nf464nxc_00000gn/T//ccHP6Bp0.s 			page 28


 1193              		.cfi_startproc
 1194              		@ args = 0, pretend = 0, frame = 8
 1195              		@ frame_needed = 1, uses_anonymous_args = 0
 1196              		@ link register save eliminated.
 1197 0000 80B4     		push	{r7}
 1198              		.cfi_def_cfa_offset 4
 1199              		.cfi_offset 7, -4
 1200 0002 83B0     		sub	sp, sp, #12
 1201              		.cfi_def_cfa_offset 16
 1202 0004 00AF     		add	r7, sp, #0
 1203              		.cfi_def_cfa_register 7
 1204 0006 7860     		str	r0, [r7, #4]
 1205 0008 0B46     		mov	r3, r1
 1206 000a FB70     		strb	r3, [r7, #3]
 1207              	.LBB9:
  86:Core/Src/NMEA_Standard.cpp **** 	cs = c;
 1208              		.loc 3 86 5
 1209 000c 7B68     		ldr	r3, [r7, #4]
 1210 000e FA78     		ldrb	r2, [r7, #3]
 1211 0010 1A70     		strb	r2, [r3]
 1212              	.LBE9:
  87:Core/Src/NMEA_Standard.cpp **** }
 1213              		.loc 3 87 1
 1214 0012 7B68     		ldr	r3, [r7, #4]
 1215 0014 1846     		mov	r0, r3
 1216 0016 0C37     		adds	r7, r7, #12
 1217              		.cfi_def_cfa_offset 4
 1218 0018 BD46     		mov	sp, r7
 1219              		.cfi_def_cfa_register 13
 1220              		@ sp needed
 1221 001a 5DF8047B 		ldr	r7, [sp], #4
 1222              		.cfi_restore 7
 1223              		.cfi_def_cfa_offset 0
 1224 001e 7047     		bx	lr
 1225              		.cfi_endproc
 1226              	.LFE955:
 1227              		.cantunwind
 1228              		.fnend
 1230              		.global	_ZN13NMEA_Standard8ChecksumC1Eh
 1231              		.thumb_set _ZN13NMEA_Standard8ChecksumC1Eh,_ZN13NMEA_Standard8ChecksumC2Eh
 1232              		.section	.rodata
 1233 000f 00       		.align	2
 1234              	.LC3:
 1235 0010 2A253268 		.ascii	"*%2hX\015\012\000"
 1235      580D0A00 
 1236              		.section	.text._ZN13NMEA_Standard8Checksum5validERK12StaticString,"ax",%progbits
 1237              		.align	1
 1238              		.global	_ZN13NMEA_Standard8Checksum5validERK12StaticString
 1239              		.syntax unified
 1240              		.thumb
 1241              		.thumb_func
 1243              	_ZN13NMEA_Standard8Checksum5validERK12StaticString:
 1244              		.fnstart
 1245              	.LFB957:
  88:Core/Src/NMEA_Standard.cpp **** 
  89:Core/Src/NMEA_Standard.cpp **** bool NMEA_Standard::Checksum::valid(const string & nmea){
 1246              		.loc 3 89 57
ARM GAS  /var/folders/bb/dhrb69655gd8t4nf464nxc_00000gn/T//ccHP6Bp0.s 			page 29


 1247              		.cfi_startproc
 1248              		@ args = 0, pretend = 0, frame = 32
 1249              		@ frame_needed = 1, uses_anonymous_args = 0
 1250 0000 80B5     		push	{r7, lr}
 1251              		.save {r7, lr}
 1252              		.cfi_def_cfa_offset 8
 1253              		.cfi_offset 7, -8
 1254              		.cfi_offset 14, -4
 1255              		.pad #32
 1256 0002 88B0     		sub	sp, sp, #32
 1257              		.cfi_def_cfa_offset 40
 1258              		.setfp r7, sp, #0
 1259 0004 00AF     		add	r7, sp, #0
 1260              		.cfi_def_cfa_register 7
 1261 0006 7860     		str	r0, [r7, #4]
  90:Core/Src/NMEA_Standard.cpp **** 	auto astI = nmea.find_last_of('*');
 1262              		.loc 3 90 31
 1263 0008 2A21     		movs	r1, #42
 1264 000a 7868     		ldr	r0, [r7, #4]
 1265 000c FFF7FEFF 		bl	_ZNK12StaticString12find_last_ofEc
 1266 0010 0346     		mov	r3, r0
 1267 0012 FB61     		str	r3, [r7, #28]
  91:Core/Src/NMEA_Standard.cpp **** 
  92:Core/Src/NMEA_Standard.cpp **** 	if(nmea.empty() || astI == string::npos) return false;
 1268              		.loc 3 92 15
 1269 0014 7868     		ldr	r0, [r7, #4]
 1270 0016 FFF7FEFF 		bl	_ZNK12StaticString5emptyEv
 1271 001a 0346     		mov	r3, r0
 1272              		.loc 3 92 18
 1273 001c 002B     		cmp	r3, #0
 1274 001e 03D1     		bne	.L67
 1275              		.loc 3 92 18 is_stmt 0 discriminator 2
 1276 0020 FB69     		ldr	r3, [r7, #28]
 1277 0022 B3F1FF3F 		cmp	r3, #-1
 1278 0026 01D1     		bne	.L68
 1279              	.L67:
 1280              		.loc 3 92 18 discriminator 3
 1281 0028 0123     		movs	r3, #1
 1282 002a 00E0     		b	.L69
 1283              	.L68:
 1284              		.loc 3 92 18 discriminator 4
 1285 002c 0023     		movs	r3, #0
 1286              	.L69:
 1287              		.loc 3 92 2 is_stmt 1 discriminator 6
 1288 002e 002B     		cmp	r3, #0
 1289 0030 01D0     		beq	.L70
 1290              		.loc 3 92 50 discriminator 7
 1291 0032 0023     		movs	r3, #0
 1292 0034 24E0     		b	.L73
 1293              	.L70:
  93:Core/Src/NMEA_Standard.cpp **** 
  94:Core/Src/NMEA_Standard.cpp **** 	uint8_t givenC = 0;
 1294              		.loc 3 94 10
 1295 0036 0023     		movs	r3, #0
 1296 0038 FB73     		strb	r3, [r7, #15]
  95:Core/Src/NMEA_Standard.cpp **** 	auto nConv = std::sscanf(nmea.substr(astI, 5).c_str(), "*%2hX\r\n", (uint16_t *)&givenC);
 1297              		.loc 3 95 46
ARM GAS  /var/folders/bb/dhrb69655gd8t4nf464nxc_00000gn/T//ccHP6Bp0.s 			page 30


 1298 003a 07F11000 		add	r0, r7, #16
 1299 003e 0523     		movs	r3, #5
 1300 0040 FA69     		ldr	r2, [r7, #28]
 1301 0042 7968     		ldr	r1, [r7, #4]
 1302 0044 FFF7FEFF 		bl	_ZNK12StaticString6substrEjj
 1303              		.loc 3 95 26
 1304 0048 07F11003 		add	r3, r7, #16
 1305 004c 1846     		mov	r0, r3
 1306 004e FFF7FEFF 		bl	_ZNK12StaticString5c_strEv
 1307 0052 07F10F03 		add	r3, r7, #15
 1308 0056 1A46     		mov	r2, r3
 1309 0058 0B49     		ldr	r1, .L74
 1310 005a FFF7FEFF 		bl	sscanf
 1311 005e B861     		str	r0, [r7, #24]
  96:Core/Src/NMEA_Standard.cpp **** 		// In sscanf using "*%2hhX\r\n" should have been appropriate for a uint8_t value but this formatt
  97:Core/Src/NMEA_Standard.cpp **** 		// the checksum as a decimal number. This appears to be a legitimate bug with the compiler.
  98:Core/Src/NMEA_Standard.cpp **** 		// The above using the type cast remains safe because %2 guarantees the value will fit within giv
  99:Core/Src/NMEA_Standard.cpp **** 	if(nConv != 1) return false;	// Scan failed.
 1312              		.loc 3 99 2
 1313 0060 BB69     		ldr	r3, [r7, #24]
 1314 0062 012B     		cmp	r3, #1
 1315 0064 01D0     		beq	.L72
 1316              		.loc 3 99 24 discriminator 1
 1317 0066 0023     		movs	r3, #0
 1318 0068 0AE0     		b	.L73
 1319              	.L72:
 100:Core/Src/NMEA_Standard.cpp **** 	else return givenC == checksum(nmea);
 1320              		.loc 3 100 32
 1321 006a 7868     		ldr	r0, [r7, #4]
 1322 006c FFF7FEFF 		bl	_ZN13NMEA_Standard8Checksum8checksumERK12StaticString
 1323 0070 0346     		mov	r3, r0
 1324 0072 1A46     		mov	r2, r3
 1325              		.loc 3 100 21
 1326 0074 FB7B     		ldrb	r3, [r7, #15]	@ zero_extendqisi2
 1327              		.loc 3 100 37
 1328 0076 9A42     		cmp	r2, r3
 1329 0078 0CBF     		ite	eq
 1330 007a 0123     		moveq	r3, #1
 1331 007c 0023     		movne	r3, #0
 1332 007e DBB2     		uxtb	r3, r3
 1333              	.L73:
 101:Core/Src/NMEA_Standard.cpp **** }
 1334              		.loc 3 101 1 discriminator 1
 1335 0080 1846     		mov	r0, r3
 1336 0082 2037     		adds	r7, r7, #32
 1337              		.cfi_def_cfa_offset 8
 1338 0084 BD46     		mov	sp, r7
 1339              		.cfi_def_cfa_register 13
 1340              		@ sp needed
 1341 0086 80BD     		pop	{r7, pc}
 1342              	.L75:
 1343              		.align	2
 1344              	.L74:
 1345 0088 10000000 		.word	.LC3
 1346              		.cfi_endproc
 1347              	.LFE957:
 1348              		.fnend
ARM GAS  /var/folders/bb/dhrb69655gd8t4nf464nxc_00000gn/T//ccHP6Bp0.s 			page 31


 1350              		.section	.text._ZN13NMEA_Standard8Checksum8checksumERK12StaticString,"ax",%progbits
 1351              		.align	1
 1352              		.global	_ZN13NMEA_Standard8Checksum8checksumERK12StaticString
 1353              		.syntax unified
 1354              		.thumb
 1355              		.thumb_func
 1357              	_ZN13NMEA_Standard8Checksum8checksumERK12StaticString:
 1358              		.fnstart
 1359              	.LFB958:
 102:Core/Src/NMEA_Standard.cpp **** 
 103:Core/Src/NMEA_Standard.cpp **** uint8_t NMEA_Standard::Checksum::checksum(const string & nmea){
 1360              		.loc 3 103 63
 1361              		.cfi_startproc
 1362              		@ args = 0, pretend = 0, frame = 32
 1363              		@ frame_needed = 1, uses_anonymous_args = 0
 1364 0000 80B5     		push	{r7, lr}
 1365              		.cfi_def_cfa_offset 8
 1366              		.cfi_offset 7, -8
 1367              		.cfi_offset 14, -4
 1368 0002 88B0     		sub	sp, sp, #32
 1369              		.cfi_def_cfa_offset 40
 1370 0004 00AF     		add	r7, sp, #0
 1371              		.cfi_def_cfa_register 7
 1372 0006 7860     		str	r0, [r7, #4]
 104:Core/Src/NMEA_Standard.cpp **** 	uint8_t chk = 0x00u;
 1373              		.loc 3 104 10
 1374 0008 0023     		movs	r3, #0
 1375 000a FB77     		strb	r3, [r7, #31]
 1376              	.LBB10:
 105:Core/Src/NMEA_Standard.cpp **** 	for(auto & c : nmea){
 1377              		.loc 3 105 17
 1378 000c 7B68     		ldr	r3, [r7, #4]
 1379 000e 7B61     		str	r3, [r7, #20]
 1380 0010 7869     		ldr	r0, [r7, #20]
 1381 0012 FFF7FEFF 		bl	_ZNK12StaticString5beginEv
 1382 0016 B861     		str	r0, [r7, #24]
 1383 0018 7869     		ldr	r0, [r7, #20]
 1384 001a FFF7FEFF 		bl	_ZNK12StaticString3endEv
 1385 001e 3861     		str	r0, [r7, #16]
 1386              	.L81:
 1387              		.loc 3 105 17 is_stmt 0 discriminator 1
 1388 0020 BA69     		ldr	r2, [r7, #24]
 1389 0022 3B69     		ldr	r3, [r7, #16]
 1390 0024 9A42     		cmp	r2, r3
 1391 0026 15D0     		beq	.L77
 1392              		.loc 3 105 13 is_stmt 1 discriminator 2
 1393 0028 BB69     		ldr	r3, [r7, #24]
 1394 002a FB60     		str	r3, [r7, #12]
 106:Core/Src/NMEA_Standard.cpp **** 		if(c == '$') continue;
 1395              		.loc 3 106 6 discriminator 2
 1396 002c FB68     		ldr	r3, [r7, #12]
 1397 002e 1B78     		ldrb	r3, [r3]	@ zero_extendqisi2
 1398              		.loc 3 106 3 discriminator 2
 1399 0030 242B     		cmp	r3, #36
 1400 0032 09D0     		beq	.L83
 107:Core/Src/NMEA_Standard.cpp **** 		else if (c == '*') break;
 1401              		.loc 3 107 12
ARM GAS  /var/folders/bb/dhrb69655gd8t4nf464nxc_00000gn/T//ccHP6Bp0.s 			page 32


 1402 0034 FB68     		ldr	r3, [r7, #12]
 1403 0036 1B78     		ldrb	r3, [r3]	@ zero_extendqisi2
 1404              		.loc 3 107 8
 1405 0038 2A2B     		cmp	r3, #42
 1406 003a 0AD0     		beq	.L84
 108:Core/Src/NMEA_Standard.cpp **** 		else chk ^= c;
 1407              		.loc 3 108 15
 1408 003c FB68     		ldr	r3, [r7, #12]
 1409 003e 1A78     		ldrb	r2, [r3]	@ zero_extendqisi2
 1410              		.loc 3 108 12
 1411 0040 FB7F     		ldrb	r3, [r7, #31]
 1412 0042 5340     		eors	r3, r3, r2
 1413 0044 FB77     		strb	r3, [r7, #31]
 1414 0046 00E0     		b	.L79
 1415              	.L83:
 106:Core/Src/NMEA_Standard.cpp **** 		if(c == '$') continue;
 1416              		.loc 3 106 16
 1417 0048 00BF     		nop
 1418              	.L79:
 105:Core/Src/NMEA_Standard.cpp **** 		if(c == '$') continue;
 1419              		.loc 3 105 2 discriminator 3
 1420 004a BB69     		ldr	r3, [r7, #24]
 1421 004c 0133     		adds	r3, r3, #1
 1422 004e BB61     		str	r3, [r7, #24]
 1423 0050 E6E7     		b	.L81
 1424              	.L84:
 107:Core/Src/NMEA_Standard.cpp **** 		else if (c == '*') break;
 1425              		.loc 3 107 22
 1426 0052 00BF     		nop
 1427              	.L77:
 1428              	.LBE10:
 109:Core/Src/NMEA_Standard.cpp **** 	}
 110:Core/Src/NMEA_Standard.cpp **** 	return chk;
 1429              		.loc 3 110 9
 1430 0054 FB7F     		ldrb	r3, [r7, #31]	@ zero_extendqisi2
 111:Core/Src/NMEA_Standard.cpp **** }
 1431              		.loc 3 111 1
 1432 0056 1846     		mov	r0, r3
 1433 0058 2037     		adds	r7, r7, #32
 1434              		.cfi_def_cfa_offset 8
 1435 005a BD46     		mov	sp, r7
 1436              		.cfi_def_cfa_register 13
 1437              		@ sp needed
 1438 005c 80BD     		pop	{r7, pc}
 1439              		.cfi_endproc
 1440              	.LFE958:
 1441              		.cantunwind
 1442              		.fnend
 1444              		.section	.text._ZN13NMEA_Standard11setChecksumEv,"ax",%progbits
 1445              		.align	1
 1446              		.global	_ZN13NMEA_Standard11setChecksumEv
 1447              		.syntax unified
 1448              		.thumb
 1449              		.thumb_func
 1451              	_ZN13NMEA_Standard11setChecksumEv:
 1452              		.fnstart
 1453              	.LFB959:
ARM GAS  /var/folders/bb/dhrb69655gd8t4nf464nxc_00000gn/T//ccHP6Bp0.s 			page 33


 112:Core/Src/NMEA_Standard.cpp **** 
 113:Core/Src/NMEA_Standard.cpp **** void NMEA_Standard::setChecksum(){
 1454              		.loc 3 113 34
 1455              		.cfi_startproc
 1456              		@ args = 0, pretend = 0, frame = 16
 1457              		@ frame_needed = 1, uses_anonymous_args = 0
 1458 0000 80B5     		push	{r7, lr}
 1459              		.save {r7, lr}
 1460              		.cfi_def_cfa_offset 8
 1461              		.cfi_offset 7, -8
 1462              		.cfi_offset 14, -4
 1463              		.pad #16
 1464 0002 84B0     		sub	sp, sp, #16
 1465              		.cfi_def_cfa_offset 24
 1466              		.setfp r7, sp, #0
 1467 0004 00AF     		add	r7, sp, #0
 1468              		.cfi_def_cfa_register 7
 1469 0006 7860     		str	r0, [r7, #4]
 114:Core/Src/NMEA_Standard.cpp **** 	cs.cs = Checksum::checksum(this->toString(nullptr));
 1470              		.loc 3 114 51
 1471 0008 7B68     		ldr	r3, [r7, #4]
 1472 000a 1B68     		ldr	r3, [r3]
 1473 000c 0833     		adds	r3, r3, #8
 1474 000e 1B68     		ldr	r3, [r3]
 1475 0010 07F10800 		add	r0, r7, #8
 1476 0014 0022     		movs	r2, #0
 1477 0016 7968     		ldr	r1, [r7, #4]
 1478 0018 9847     		blx	r3
 1479              	.LVL0:
 1480              		.loc 3 114 28
 1481 001a 07F10803 		add	r3, r7, #8
 1482 001e 1846     		mov	r0, r3
 1483 0020 FFF7FEFF 		bl	_ZN13NMEA_Standard8Checksum8checksumERK12StaticString
 1484 0024 0346     		mov	r3, r0
 1485 0026 1A46     		mov	r2, r3
 1486              		.loc 3 114 8
 1487 0028 7B68     		ldr	r3, [r7, #4]
 1488 002a 5A71     		strb	r2, [r3, #5]
 115:Core/Src/NMEA_Standard.cpp **** }
 1489              		.loc 3 115 1
 1490 002c 00BF     		nop
 1491 002e 1037     		adds	r7, r7, #16
 1492              		.cfi_def_cfa_offset 8
 1493 0030 BD46     		mov	sp, r7
 1494              		.cfi_def_cfa_register 13
 1495              		@ sp needed
 1496 0032 80BD     		pop	{r7, pc}
 1497              		.cfi_endproc
 1498              	.LFE959:
 1499              		.fnend
 1501              		.section	.rodata
 1502              		.align	2
 1503              	.LC4:
 1504 0018 44544D00 		.ascii	"DTM\000"
 1505              		.align	2
 1506              	.LC5:
 1507 001c 47415100 		.ascii	"GAQ\000"
ARM GAS  /var/folders/bb/dhrb69655gd8t4nf464nxc_00000gn/T//ccHP6Bp0.s 			page 34


 1508              		.align	2
 1509              	.LC6:
 1510 0020 47425100 		.ascii	"GBQ\000"
 1511              		.align	2
 1512              	.LC7:
 1513 0024 47425300 		.ascii	"GBS\000"
 1514              		.align	2
 1515              	.LC8:
 1516 0028 47474100 		.ascii	"GGA\000"
 1517              		.align	2
 1518              	.LC9:
 1519 002c 474C4C00 		.ascii	"GLL\000"
 1520              		.align	2
 1521              	.LC10:
 1522 0030 474C5100 		.ascii	"GLQ\000"
 1523              		.align	2
 1524              	.LC11:
 1525 0034 474E5100 		.ascii	"GNQ\000"
 1526              		.align	2
 1527              	.LC12:
 1528 0038 474E5300 		.ascii	"GNS\000"
 1529              		.align	2
 1530              	.LC13:
 1531 003c 47505100 		.ascii	"GPQ\000"
 1532              		.align	2
 1533              	.LC14:
 1534 0040 47525300 		.ascii	"GRS\000"
 1535              		.align	2
 1536              	.LC15:
 1537 0044 47534100 		.ascii	"GSA\000"
 1538              		.align	2
 1539              	.LC16:
 1540 0048 47535400 		.ascii	"GST\000"
 1541              		.align	2
 1542              	.LC17:
 1543 004c 47535600 		.ascii	"GSV\000"
 1544              		.align	2
 1545              	.LC18:
 1546 0050 524C4D00 		.ascii	"RLM\000"
 1547              		.align	2
 1548              	.LC19:
 1549 0054 524D4300 		.ascii	"RMC\000"
 1550              		.align	2
 1551              	.LC20:
 1552 0058 54585400 		.ascii	"TXT\000"
 1553              		.align	2
 1554              	.LC21:
 1555 005c 564C5700 		.ascii	"VLW\000"
 1556              		.align	2
 1557              	.LC22:
 1558 0060 56544700 		.ascii	"VTG\000"
 1559              		.align	2
 1560              	.LC23:
 1561 0064 5A444100 		.ascii	"ZDA\000"
 1562              		.section	.text._ZN13NMEA_Standard8toStringENS_7MessageE,"ax",%progbits
 1563              		.align	1
 1564              		.global	_ZN13NMEA_Standard8toStringENS_7MessageE
ARM GAS  /var/folders/bb/dhrb69655gd8t4nf464nxc_00000gn/T//ccHP6Bp0.s 			page 35


 1565              		.syntax unified
 1566              		.thumb
 1567              		.thumb_func
 1569              	_ZN13NMEA_Standard8toStringENS_7MessageE:
 1570              		.fnstart
 1571              	.LFB960:
 116:Core/Src/NMEA_Standard.cpp **** 
 117:Core/Src/NMEA_Standard.cpp **** string NMEA_Standard::toString(const Message msg){
 1572              		.loc 3 117 50
 1573              		.cfi_startproc
 1574              		@ args = 0, pretend = 0, frame = 8
 1575              		@ frame_needed = 1, uses_anonymous_args = 0
 1576 0000 80B5     		push	{r7, lr}
 1577              		.cfi_def_cfa_offset 8
 1578              		.cfi_offset 7, -8
 1579              		.cfi_offset 14, -4
 1580 0002 82B0     		sub	sp, sp, #8
 1581              		.cfi_def_cfa_offset 16
 1582 0004 00AF     		add	r7, sp, #0
 1583              		.cfi_def_cfa_register 7
 1584 0006 7860     		str	r0, [r7, #4]
 1585 0008 3960     		str	r1, [r7]
 118:Core/Src/NMEA_Standard.cpp **** 	switch (msg){
 1586              		.loc 3 118 2
 1587 000a 3B68     		ldr	r3, [r7]
 1588 000c 132B     		cmp	r3, #19
 1589 000e 00F28F80 		bhi	.L87
 1590 0012 01A2     		adr	r2, .L89
 1591 0014 52F823F0 		ldr	pc, [r2, r3, lsl #2]
 1592              		.p2align 2
 1593              	.L89:
 1594 0018 69000000 		.word	.L108+1
 1595 001c 73000000 		.word	.L107+1
 1596 0020 7D000000 		.word	.L106+1
 1597 0024 87000000 		.word	.L105+1
 1598 0028 91000000 		.word	.L104+1
 1599 002c 9B000000 		.word	.L103+1
 1600 0030 A5000000 		.word	.L102+1
 1601 0034 AF000000 		.word	.L101+1
 1602 0038 B9000000 		.word	.L100+1
 1603 003c C3000000 		.word	.L99+1
 1604 0040 CD000000 		.word	.L98+1
 1605 0044 D7000000 		.word	.L97+1
 1606 0048 E1000000 		.word	.L96+1
 1607 004c EB000000 		.word	.L95+1
 1608 0050 F5000000 		.word	.L94+1
 1609 0054 FF000000 		.word	.L93+1
 1610 0058 09010000 		.word	.L92+1
 1611 005c 13010000 		.word	.L91+1
 1612 0060 1D010000 		.word	.L90+1
 1613 0064 27010000 		.word	.L88+1
 1614              		.p2align 1
 1615              	.L108:
 119:Core/Src/NMEA_Standard.cpp **** 		case Message::DTM : return "DTM";
 1616              		.loc 3 119 30
 1617 0068 3549     		ldr	r1, .L110
 1618 006a 7868     		ldr	r0, [r7, #4]
ARM GAS  /var/folders/bb/dhrb69655gd8t4nf464nxc_00000gn/T//ccHP6Bp0.s 			page 36


 1619 006c FFF7FEFF 		bl	_ZN12StaticStringC1EPKc
 1620 0070 62E0     		b	.L109
 1621              	.L107:
 120:Core/Src/NMEA_Standard.cpp **** 		case Message::GAQ : return "GAQ";
 1622              		.loc 3 120 30
 1623 0072 3449     		ldr	r1, .L110+4
 1624 0074 7868     		ldr	r0, [r7, #4]
 1625 0076 FFF7FEFF 		bl	_ZN12StaticStringC1EPKc
 1626 007a 5DE0     		b	.L109
 1627              	.L106:
 121:Core/Src/NMEA_Standard.cpp **** 		case Message::GBQ : return "GBQ";
 1628              		.loc 3 121 30
 1629 007c 3249     		ldr	r1, .L110+8
 1630 007e 7868     		ldr	r0, [r7, #4]
 1631 0080 FFF7FEFF 		bl	_ZN12StaticStringC1EPKc
 1632 0084 58E0     		b	.L109
 1633              	.L105:
 122:Core/Src/NMEA_Standard.cpp **** 		case Message::GBS : return "GBS";
 1634              		.loc 3 122 30
 1635 0086 3149     		ldr	r1, .L110+12
 1636 0088 7868     		ldr	r0, [r7, #4]
 1637 008a FFF7FEFF 		bl	_ZN12StaticStringC1EPKc
 1638 008e 53E0     		b	.L109
 1639              	.L104:
 123:Core/Src/NMEA_Standard.cpp **** 		case Message::GGA : return "GGA";
 1640              		.loc 3 123 30
 1641 0090 2F49     		ldr	r1, .L110+16
 1642 0092 7868     		ldr	r0, [r7, #4]
 1643 0094 FFF7FEFF 		bl	_ZN12StaticStringC1EPKc
 1644 0098 4EE0     		b	.L109
 1645              	.L103:
 124:Core/Src/NMEA_Standard.cpp **** 		case Message::GLL : return "GLL";
 1646              		.loc 3 124 30
 1647 009a 2E49     		ldr	r1, .L110+20
 1648 009c 7868     		ldr	r0, [r7, #4]
 1649 009e FFF7FEFF 		bl	_ZN12StaticStringC1EPKc
 1650 00a2 49E0     		b	.L109
 1651              	.L102:
 125:Core/Src/NMEA_Standard.cpp **** 		case Message::GLQ : return "GLQ";
 1652              		.loc 3 125 30
 1653 00a4 2C49     		ldr	r1, .L110+24
 1654 00a6 7868     		ldr	r0, [r7, #4]
 1655 00a8 FFF7FEFF 		bl	_ZN12StaticStringC1EPKc
 1656 00ac 44E0     		b	.L109
 1657              	.L101:
 126:Core/Src/NMEA_Standard.cpp **** 		case Message::GNQ : return "GNQ";
 1658              		.loc 3 126 30
 1659 00ae 2B49     		ldr	r1, .L110+28
 1660 00b0 7868     		ldr	r0, [r7, #4]
 1661 00b2 FFF7FEFF 		bl	_ZN12StaticStringC1EPKc
 1662 00b6 3FE0     		b	.L109
 1663              	.L100:
 127:Core/Src/NMEA_Standard.cpp **** 		case Message::GNS : return "GNS";
 1664              		.loc 3 127 30
 1665 00b8 2949     		ldr	r1, .L110+32
 1666 00ba 7868     		ldr	r0, [r7, #4]
 1667 00bc FFF7FEFF 		bl	_ZN12StaticStringC1EPKc
ARM GAS  /var/folders/bb/dhrb69655gd8t4nf464nxc_00000gn/T//ccHP6Bp0.s 			page 37


 1668 00c0 3AE0     		b	.L109
 1669              	.L99:
 128:Core/Src/NMEA_Standard.cpp **** 		case Message::GPQ : return "GPQ";
 1670              		.loc 3 128 30
 1671 00c2 2849     		ldr	r1, .L110+36
 1672 00c4 7868     		ldr	r0, [r7, #4]
 1673 00c6 FFF7FEFF 		bl	_ZN12StaticStringC1EPKc
 1674 00ca 35E0     		b	.L109
 1675              	.L98:
 129:Core/Src/NMEA_Standard.cpp **** 		case Message::GRS : return "GRS";
 1676              		.loc 3 129 30
 1677 00cc 2649     		ldr	r1, .L110+40
 1678 00ce 7868     		ldr	r0, [r7, #4]
 1679 00d0 FFF7FEFF 		bl	_ZN12StaticStringC1EPKc
 1680 00d4 30E0     		b	.L109
 1681              	.L97:
 130:Core/Src/NMEA_Standard.cpp **** 		case Message::GSA : return "GSA";
 1682              		.loc 3 130 30
 1683 00d6 2549     		ldr	r1, .L110+44
 1684 00d8 7868     		ldr	r0, [r7, #4]
 1685 00da FFF7FEFF 		bl	_ZN12StaticStringC1EPKc
 1686 00de 2BE0     		b	.L109
 1687              	.L96:
 131:Core/Src/NMEA_Standard.cpp **** 		case Message::GST : return "GST";
 1688              		.loc 3 131 30
 1689 00e0 2349     		ldr	r1, .L110+48
 1690 00e2 7868     		ldr	r0, [r7, #4]
 1691 00e4 FFF7FEFF 		bl	_ZN12StaticStringC1EPKc
 1692 00e8 26E0     		b	.L109
 1693              	.L95:
 132:Core/Src/NMEA_Standard.cpp **** 		case Message::GSV : return "GSV";
 1694              		.loc 3 132 30
 1695 00ea 2249     		ldr	r1, .L110+52
 1696 00ec 7868     		ldr	r0, [r7, #4]
 1697 00ee FFF7FEFF 		bl	_ZN12StaticStringC1EPKc
 1698 00f2 21E0     		b	.L109
 1699              	.L94:
 133:Core/Src/NMEA_Standard.cpp **** 		case Message::RLM : return "RLM";
 1700              		.loc 3 133 30
 1701 00f4 2049     		ldr	r1, .L110+56
 1702 00f6 7868     		ldr	r0, [r7, #4]
 1703 00f8 FFF7FEFF 		bl	_ZN12StaticStringC1EPKc
 1704 00fc 1CE0     		b	.L109
 1705              	.L93:
 134:Core/Src/NMEA_Standard.cpp **** 		case Message::RMC : return "RMC";
 1706              		.loc 3 134 30
 1707 00fe 1F49     		ldr	r1, .L110+60
 1708 0100 7868     		ldr	r0, [r7, #4]
 1709 0102 FFF7FEFF 		bl	_ZN12StaticStringC1EPKc
 1710 0106 17E0     		b	.L109
 1711              	.L92:
 135:Core/Src/NMEA_Standard.cpp **** 		case Message::TXT : return "TXT";
 1712              		.loc 3 135 30
 1713 0108 1D49     		ldr	r1, .L110+64
 1714 010a 7868     		ldr	r0, [r7, #4]
 1715 010c FFF7FEFF 		bl	_ZN12StaticStringC1EPKc
 1716 0110 12E0     		b	.L109
ARM GAS  /var/folders/bb/dhrb69655gd8t4nf464nxc_00000gn/T//ccHP6Bp0.s 			page 38


 1717              	.L91:
 136:Core/Src/NMEA_Standard.cpp **** 		case Message::VLW : return "VLW";
 1718              		.loc 3 136 30
 1719 0112 1C49     		ldr	r1, .L110+68
 1720 0114 7868     		ldr	r0, [r7, #4]
 1721 0116 FFF7FEFF 		bl	_ZN12StaticStringC1EPKc
 1722 011a 0DE0     		b	.L109
 1723              	.L90:
 137:Core/Src/NMEA_Standard.cpp **** 		case Message::VTG : return "VTG";
 1724              		.loc 3 137 30
 1725 011c 1A49     		ldr	r1, .L110+72
 1726 011e 7868     		ldr	r0, [r7, #4]
 1727 0120 FFF7FEFF 		bl	_ZN12StaticStringC1EPKc
 1728 0124 08E0     		b	.L109
 1729              	.L88:
 138:Core/Src/NMEA_Standard.cpp **** 		case Message::ZDA : return "ZDA";
 1730              		.loc 3 138 30
 1731 0126 1949     		ldr	r1, .L110+76
 1732 0128 7868     		ldr	r0, [r7, #4]
 1733 012a FFF7FEFF 		bl	_ZN12StaticStringC1EPKc
 1734 012e 03E0     		b	.L109
 1735              	.L87:
 139:Core/Src/NMEA_Standard.cpp **** 		default: return "";
 1736              		.loc 3 139 19
 1737 0130 1749     		ldr	r1, .L110+80
 1738 0132 7868     		ldr	r0, [r7, #4]
 1739 0134 FFF7FEFF 		bl	_ZN12StaticStringC1EPKc
 1740              	.L109:
 140:Core/Src/NMEA_Standard.cpp **** 	}
 141:Core/Src/NMEA_Standard.cpp **** }
 1741              		.loc 3 141 1
 1742 0138 7868     		ldr	r0, [r7, #4]
 1743 013a 0837     		adds	r7, r7, #8
 1744              		.cfi_def_cfa_offset 8
 1745 013c BD46     		mov	sp, r7
 1746              		.cfi_def_cfa_register 13
 1747              		@ sp needed
 1748 013e 80BD     		pop	{r7, pc}
 1749              	.L111:
 1750              		.align	2
 1751              	.L110:
 1752 0140 18000000 		.word	.LC4
 1753 0144 1C000000 		.word	.LC5
 1754 0148 20000000 		.word	.LC6
 1755 014c 24000000 		.word	.LC7
 1756 0150 28000000 		.word	.LC8
 1757 0154 2C000000 		.word	.LC9
 1758 0158 30000000 		.word	.LC10
 1759 015c 34000000 		.word	.LC11
 1760 0160 38000000 		.word	.LC12
 1761 0164 3C000000 		.word	.LC13
 1762 0168 40000000 		.word	.LC14
 1763 016c 44000000 		.word	.LC15
 1764 0170 48000000 		.word	.LC16
 1765 0174 4C000000 		.word	.LC17
 1766 0178 50000000 		.word	.LC18
 1767 017c 54000000 		.word	.LC19
ARM GAS  /var/folders/bb/dhrb69655gd8t4nf464nxc_00000gn/T//ccHP6Bp0.s 			page 39


 1768 0180 58000000 		.word	.LC20
 1769 0184 5C000000 		.word	.LC21
 1770 0188 60000000 		.word	.LC22
 1771 018c 64000000 		.word	.LC23
 1772 0190 00000000 		.word	.LC0
 1773              		.cfi_endproc
 1774              	.LFE960:
 1775              		.cantunwind
 1776              		.fnend
 1778              		.section	.rodata
 1779              		.align	2
 1780              	.LC24:
 1781 0068 475000   		.ascii	"GP\000"
 1782 006b 00       		.align	2
 1783              	.LC25:
 1784 006c 474C00   		.ascii	"GL\000"
 1785 006f 00       		.align	2
 1786              	.LC26:
 1787 0070 474100   		.ascii	"GA\000"
 1788 0073 00       		.align	2
 1789              	.LC27:
 1790 0074 474200   		.ascii	"GB\000"
 1791 0077 00       		.align	2
 1792              	.LC28:
 1793 0078 475100   		.ascii	"GQ\000"
 1794 007b 00       		.align	2
 1795              	.LC29:
 1796 007c 474E00   		.ascii	"GN\000"
 1797              		.section	.text._ZN13NMEA_Standard8toStringENS_8TalkerIDE,"ax",%progbits
 1798              		.align	1
 1799              		.global	_ZN13NMEA_Standard8toStringENS_8TalkerIDE
 1800              		.syntax unified
 1801              		.thumb
 1802              		.thumb_func
 1804              	_ZN13NMEA_Standard8toStringENS_8TalkerIDE:
 1805              		.fnstart
 1806              	.LFB961:
 142:Core/Src/NMEA_Standard.cpp **** 
 143:Core/Src/NMEA_Standard.cpp **** string NMEA_Standard::toString(const TalkerID tId){
 1807              		.loc 3 143 51
 1808              		.cfi_startproc
 1809              		@ args = 0, pretend = 0, frame = 8
 1810              		@ frame_needed = 1, uses_anonymous_args = 0
 1811 0000 80B5     		push	{r7, lr}
 1812              		.cfi_def_cfa_offset 8
 1813              		.cfi_offset 7, -8
 1814              		.cfi_offset 14, -4
 1815 0002 82B0     		sub	sp, sp, #8
 1816              		.cfi_def_cfa_offset 16
 1817 0004 00AF     		add	r7, sp, #0
 1818              		.cfi_def_cfa_register 7
 1819 0006 7860     		str	r0, [r7, #4]
 1820 0008 3960     		str	r1, [r7]
 144:Core/Src/NMEA_Standard.cpp **** 	switch(tId){
 1821              		.loc 3 144 2
 1822 000a 3B68     		ldr	r3, [r7]
 1823 000c 052B     		cmp	r3, #5
ARM GAS  /var/folders/bb/dhrb69655gd8t4nf464nxc_00000gn/T//ccHP6Bp0.s 			page 40


 1824 000e 2DD8     		bhi	.L113
 1825 0010 01A2     		adr	r2, .L115
 1826 0012 52F823F0 		ldr	pc, [r2, r3, lsl #2]
 1827 0016 00BF     		.p2align 2
 1828              	.L115:
 1829 0018 31000000 		.word	.L120+1
 1830 001c 3B000000 		.word	.L119+1
 1831 0020 45000000 		.word	.L118+1
 1832 0024 4F000000 		.word	.L117+1
 1833 0028 59000000 		.word	.L116+1
 1834 002c 63000000 		.word	.L114+1
 1835              		.p2align 1
 1836              	.L120:
 145:Core/Src/NMEA_Standard.cpp **** 		case TalkerID::GP : return"GP";
 1837              		.loc 3 145 29
 1838 0030 1249     		ldr	r1, .L122
 1839 0032 7868     		ldr	r0, [r7, #4]
 1840 0034 FFF7FEFF 		bl	_ZN12StaticStringC1EPKc
 1841 0038 1CE0     		b	.L121
 1842              	.L119:
 146:Core/Src/NMEA_Standard.cpp **** 		case TalkerID::GL : return"GL";
 1843              		.loc 3 146 29
 1844 003a 1149     		ldr	r1, .L122+4
 1845 003c 7868     		ldr	r0, [r7, #4]
 1846 003e FFF7FEFF 		bl	_ZN12StaticStringC1EPKc
 1847 0042 17E0     		b	.L121
 1848              	.L118:
 147:Core/Src/NMEA_Standard.cpp **** 		case TalkerID::GA : return"GA";
 1849              		.loc 3 147 29
 1850 0044 0F49     		ldr	r1, .L122+8
 1851 0046 7868     		ldr	r0, [r7, #4]
 1852 0048 FFF7FEFF 		bl	_ZN12StaticStringC1EPKc
 1853 004c 12E0     		b	.L121
 1854              	.L117:
 148:Core/Src/NMEA_Standard.cpp **** 		case TalkerID::GB : return"GB";
 1855              		.loc 3 148 29
 1856 004e 0E49     		ldr	r1, .L122+12
 1857 0050 7868     		ldr	r0, [r7, #4]
 1858 0052 FFF7FEFF 		bl	_ZN12StaticStringC1EPKc
 1859 0056 0DE0     		b	.L121
 1860              	.L116:
 149:Core/Src/NMEA_Standard.cpp **** 		case TalkerID::GQ : return"GQ";
 1861              		.loc 3 149 29
 1862 0058 0C49     		ldr	r1, .L122+16
 1863 005a 7868     		ldr	r0, [r7, #4]
 1864 005c FFF7FEFF 		bl	_ZN12StaticStringC1EPKc
 1865 0060 08E0     		b	.L121
 1866              	.L114:
 150:Core/Src/NMEA_Standard.cpp **** 		case TalkerID::GN : return"GN";
 1867              		.loc 3 150 29
 1868 0062 0B49     		ldr	r1, .L122+20
 1869 0064 7868     		ldr	r0, [r7, #4]
 1870 0066 FFF7FEFF 		bl	_ZN12StaticStringC1EPKc
 1871 006a 03E0     		b	.L121
 1872              	.L113:
 151:Core/Src/NMEA_Standard.cpp **** 		default: return "";
 1873              		.loc 3 151 19
ARM GAS  /var/folders/bb/dhrb69655gd8t4nf464nxc_00000gn/T//ccHP6Bp0.s 			page 41


 1874 006c 0949     		ldr	r1, .L122+24
 1875 006e 7868     		ldr	r0, [r7, #4]
 1876 0070 FFF7FEFF 		bl	_ZN12StaticStringC1EPKc
 1877              	.L121:
 152:Core/Src/NMEA_Standard.cpp **** 	}
 153:Core/Src/NMEA_Standard.cpp **** }
 1878              		.loc 3 153 1
 1879 0074 7868     		ldr	r0, [r7, #4]
 1880 0076 0837     		adds	r7, r7, #8
 1881              		.cfi_def_cfa_offset 8
 1882 0078 BD46     		mov	sp, r7
 1883              		.cfi_def_cfa_register 13
 1884              		@ sp needed
 1885 007a 80BD     		pop	{r7, pc}
 1886              	.L123:
 1887              		.align	2
 1888              	.L122:
 1889 007c 68000000 		.word	.LC24
 1890 0080 6C000000 		.word	.LC25
 1891 0084 70000000 		.word	.LC26
 1892 0088 74000000 		.word	.LC27
 1893 008c 78000000 		.word	.LC28
 1894 0090 7C000000 		.word	.LC29
 1895 0094 00000000 		.word	.LC0
 1896              		.cfi_endproc
 1897              	.LFE961:
 1898              		.cantunwind
 1899              		.fnend
 1901              		.section	.rodata
 1902 007f 00       		.align	2
 1903              	.LC30:
 1904 0080 2A253258 		.ascii	"*%2X\000"
 1904      00
 1905              		.section	.text._ZN13NMEA_Standard8Checksum8toStringEPc,"ax",%progbits
 1906              		.align	1
 1907              		.global	_ZN13NMEA_Standard8Checksum8toStringEPc
 1908              		.syntax unified
 1909              		.thumb
 1910              		.thumb_func
 1912              	_ZN13NMEA_Standard8Checksum8toStringEPc:
 1913              		.fnstart
 1914              	.LFB962:
 154:Core/Src/NMEA_Standard.cpp **** 
 155:Core/Src/NMEA_Standard.cpp **** 
 156:Core/Src/NMEA_Standard.cpp **** string NMEA_Standard::Checksum::toString(char cStr[4]){
 1915              		.loc 3 156 55
 1916              		.cfi_startproc
 1917              		@ args = 0, pretend = 0, frame = 24
 1918              		@ frame_needed = 1, uses_anonymous_args = 0
 1919 0000 80B5     		push	{r7, lr}
 1920              		.cfi_def_cfa_offset 8
 1921              		.cfi_offset 7, -8
 1922              		.cfi_offset 14, -4
 1923 0002 86B0     		sub	sp, sp, #24
 1924              		.cfi_def_cfa_offset 32
 1925 0004 00AF     		add	r7, sp, #0
 1926              		.cfi_def_cfa_register 7
ARM GAS  /var/folders/bb/dhrb69655gd8t4nf464nxc_00000gn/T//ccHP6Bp0.s 			page 42


 1927 0006 F860     		str	r0, [r7, #12]
 1928 0008 B960     		str	r1, [r7, #8]
 1929 000a 7A60     		str	r2, [r7, #4]
 157:Core/Src/NMEA_Standard.cpp **** 	auto nConv = std::snprintf(cStr, 4, "*%2X", cs);
 1930              		.loc 3 157 46
 1931 000c BB68     		ldr	r3, [r7, #8]
 1932 000e 1B78     		ldrb	r3, [r3]	@ zero_extendqisi2
 1933              		.loc 3 157 28
 1934 0010 0A4A     		ldr	r2, .L128
 1935 0012 0421     		movs	r1, #4
 1936 0014 7868     		ldr	r0, [r7, #4]
 1937 0016 FFF7FEFF 		bl	snprintf
 1938 001a 7861     		str	r0, [r7, #20]
 158:Core/Src/NMEA_Standard.cpp **** 	return (nConv == 1) ? string(cStr) : "";
 1939              		.loc 3 158 39
 1940 001c 7B69     		ldr	r3, [r7, #20]
 1941 001e 012B     		cmp	r3, #1
 1942 0020 04D1     		bne	.L125
 1943              		.loc 3 158 39 is_stmt 0 discriminator 1
 1944 0022 7968     		ldr	r1, [r7, #4]
 1945 0024 F868     		ldr	r0, [r7, #12]
 1946 0026 FFF7FEFF 		bl	_ZN12StaticStringC1EPKc
 1947 002a 03E0     		b	.L124
 1948              	.L125:
 1949              		.loc 3 158 39 discriminator 2
 1950 002c 0449     		ldr	r1, .L128+4
 1951 002e F868     		ldr	r0, [r7, #12]
 1952 0030 FFF7FEFF 		bl	_ZN12StaticStringC1EPKc
 1953              	.L124:
 159:Core/Src/NMEA_Standard.cpp **** }
 1954              		.loc 3 159 1 is_stmt 1
 1955 0034 F868     		ldr	r0, [r7, #12]
 1956 0036 1837     		adds	r7, r7, #24
 1957              		.cfi_def_cfa_offset 8
 1958 0038 BD46     		mov	sp, r7
 1959              		.cfi_def_cfa_register 13
 1960              		@ sp needed
 1961 003a 80BD     		pop	{r7, pc}
 1962              	.L129:
 1963              		.align	2
 1964              	.L128:
 1965 003c 80000000 		.word	.LC30
 1966 0040 00000000 		.word	.LC0
 1967              		.cfi_endproc
 1968              	.LFE962:
 1969              		.cantunwind
 1970              		.fnend
 1972              		.section	.rodata
 1973 0085 000000   		.align	2
 1974              	.LC31:
 1975 0088 25326868 		.ascii	"%2hhu%2hhu%f\000"
 1975      75253268 
 1975      68752566 
 1975      00
 1976              		.section	.text._ZN13NMEA_Standard8UTC_TimeC2ERK12StaticString,"ax",%progbits
 1977              		.align	1
 1978              		.global	_ZN13NMEA_Standard8UTC_TimeC2ERK12StaticString
ARM GAS  /var/folders/bb/dhrb69655gd8t4nf464nxc_00000gn/T//ccHP6Bp0.s 			page 43


 1979              		.syntax unified
 1980              		.thumb
 1981              		.thumb_func
 1983              	_ZN13NMEA_Standard8UTC_TimeC2ERK12StaticString:
 1984              		.fnstart
 1985              	.LFB964:
 160:Core/Src/NMEA_Standard.cpp **** 
 161:Core/Src/NMEA_Standard.cpp **** /* NMEA UTC Time Methods */
 162:Core/Src/NMEA_Standard.cpp **** 
 163:Core/Src/NMEA_Standard.cpp **** NMEA_Standard::UTC_Time::UTC_Time(const string & tStr){
 1986              		.loc 3 163 1
 1987              		.cfi_startproc
 1988              		@ args = 0, pretend = 0, frame = 8
 1989              		@ frame_needed = 1, uses_anonymous_args = 0
 1990 0000 80B5     		push	{r7, lr}
 1991              		.cfi_def_cfa_offset 8
 1992              		.cfi_offset 7, -8
 1993              		.cfi_offset 14, -4
 1994 0002 84B0     		sub	sp, sp, #16
 1995              		.cfi_def_cfa_offset 24
 1996 0004 02AF     		add	r7, sp, #8
 1997              		.cfi_def_cfa 7, 16
 1998 0006 7860     		str	r0, [r7, #4]
 1999 0008 3960     		str	r1, [r7]
 2000              	.LBB11:
 164:Core/Src/NMEA_Standard.cpp **** 	std::sscanf(tStr.c_str(), "%2hhu%2hhu%f", &hh, &mm, &ss);
 2001              		.loc 3 164 13
 2002 000a 3868     		ldr	r0, [r7]
 2003 000c FFF7FEFF 		bl	_ZNK12StaticString5c_strEv
 2004 0010 7A68     		ldr	r2, [r7, #4]
 2005 0012 7B68     		ldr	r3, [r7, #4]
 2006 0014 591C     		adds	r1, r3, #1
 2007 0016 7B68     		ldr	r3, [r7, #4]
 2008 0018 0433     		adds	r3, r3, #4
 2009 001a 0093     		str	r3, [sp]
 2010 001c 0B46     		mov	r3, r1
 2011 001e 0449     		ldr	r1, .L132
 2012 0020 FFF7FEFF 		bl	sscanf
 2013              	.LBE11:
 165:Core/Src/NMEA_Standard.cpp **** }
 2014              		.loc 3 165 1
 2015 0024 7B68     		ldr	r3, [r7, #4]
 2016 0026 1846     		mov	r0, r3
 2017 0028 0837     		adds	r7, r7, #8
 2018              		.cfi_def_cfa_offset 8
 2019 002a BD46     		mov	sp, r7
 2020              		.cfi_def_cfa_register 13
 2021              		@ sp needed
 2022 002c 80BD     		pop	{r7, pc}
 2023              	.L133:
 2024 002e 00BF     		.align	2
 2025              	.L132:
 2026 0030 88000000 		.word	.LC31
 2027              		.cfi_endproc
 2028              	.LFE964:
 2029              		.cantunwind
 2030              		.fnend
ARM GAS  /var/folders/bb/dhrb69655gd8t4nf464nxc_00000gn/T//ccHP6Bp0.s 			page 44


 2032              		.global	_ZN13NMEA_Standard8UTC_TimeC1ERK12StaticString
 2033              		.thumb_set _ZN13NMEA_Standard8UTC_TimeC1ERK12StaticString,_ZN13NMEA_Standard8UTC_TimeC2ERK12Static
 2034              		.section	.rodata
 2035 0095 000000   		.align	2
 2036              	.LC32:
 2037 0098 25252531 		.ascii	"%%%1dhd%%f\000"
 2037      64686425 
 2037      256600
 2038              		.section	.text._ZN13NMEA_Standard10CoordinateC2ERK12StaticString,"ax",%progbits
 2039              		.align	1
 2040              		.global	_ZN13NMEA_Standard10CoordinateC2ERK12StaticString
 2041              		.syntax unified
 2042              		.thumb
 2043              		.thumb_func
 2045              	_ZN13NMEA_Standard10CoordinateC2ERK12StaticString:
 2046              		.fnstart
 2047              	.LFB967:
 166:Core/Src/NMEA_Standard.cpp **** 
 167:Core/Src/NMEA_Standard.cpp **** /*  NMEA Coordinate Methods */
 168:Core/Src/NMEA_Standard.cpp **** 
 169:Core/Src/NMEA_Standard.cpp **** NMEA_Standard::Coordinate::Coordinate(const string & s){
 2048              		.loc 3 169 1
 2049              		.cfi_startproc
 2050              		@ args = 0, pretend = 0, frame = 24
 2051              		@ frame_needed = 1, uses_anonymous_args = 0
 2052 0000 80B5     		push	{r7, lr}
 2053              		.save {r7, lr}
 2054              		.cfi_def_cfa_offset 8
 2055              		.cfi_offset 7, -8
 2056              		.cfi_offset 14, -4
 2057              		.pad #24
 2058 0002 86B0     		sub	sp, sp, #24
 2059              		.cfi_def_cfa_offset 32
 2060              		.setfp r7, sp, #0
 2061 0004 00AF     		add	r7, sp, #0
 2062              		.cfi_def_cfa_register 7
 2063 0006 7860     		str	r0, [r7, #4]
 2064 0008 3960     		str	r1, [r7]
 2065              	.LBB12:
 2066              	.LBB13:
 170:Core/Src/NMEA_Standard.cpp **** 	auto const decI = s.find('.');
 2067              		.loc 3 170 26
 2068 000a 2E21     		movs	r1, #46
 2069 000c 3868     		ldr	r0, [r7]
 2070 000e FFF7FEFF 		bl	_ZNK12StaticString4findEc
 2071 0012 0346     		mov	r3, r0
 2072 0014 7B61     		str	r3, [r7, #20]
 2073              	.LBB14:
 171:Core/Src/NMEA_Standard.cpp **** 	if(
 172:Core/Src/NMEA_Standard.cpp **** 		(decI != string::npos) &&
 173:Core/Src/NMEA_Standard.cpp **** 		(s.length() >= 6) &&
 2074              		.loc 3 173 21
 2075 0016 7B69     		ldr	r3, [r7, #20]
 2076 0018 B3F1FF3F 		cmp	r3, #-1
 2077 001c 0AD0     		beq	.L135
 2078              		.loc 3 173 12 discriminator 1
 2079 001e 3868     		ldr	r0, [r7]
ARM GAS  /var/folders/bb/dhrb69655gd8t4nf464nxc_00000gn/T//ccHP6Bp0.s 			page 45


 2080 0020 FFF7FEFF 		bl	_ZNK12StaticString6lengthEv
 2081 0024 0346     		mov	r3, r0
 172:Core/Src/NMEA_Standard.cpp **** 		(s.length() >= 6) &&
 2082              		.loc 3 172 26 discriminator 1
 2083 0026 052B     		cmp	r3, #5
 2084 0028 04D9     		bls	.L135
 2085              		.loc 3 173 21 discriminator 4
 2086 002a 7B69     		ldr	r3, [r7, #20]
 2087 002c 032B     		cmp	r3, #3
 2088 002e 01D9     		bls	.L135
 2089              		.loc 3 173 21 is_stmt 0 discriminator 3
 2090 0030 0123     		movs	r3, #1
 2091 0032 00E0     		b	.L136
 2092              	.L135:
 2093              		.loc 3 173 21 discriminator 2
 2094 0034 0023     		movs	r3, #0
 2095              	.L136:
 171:Core/Src/NMEA_Standard.cpp **** 	if(
 2096              		.loc 3 171 2 is_stmt 1 discriminator 6
 2097 0036 002B     		cmp	r3, #0
 2098 0038 11D0     		beq	.L137
 2099              	.LBB15:
 174:Core/Src/NMEA_Standard.cpp **** 		(decI > 3)
 175:Core/Src/NMEA_Standard.cpp **** 	){
 176:Core/Src/NMEA_Standard.cpp **** 		char fmt[7];
 177:Core/Src/NMEA_Standard.cpp **** 		std::snprintf(fmt, 7, "%%%1dhd%%f", decI-2);
 2100              		.loc 3 177 16
 2101 003a 7B69     		ldr	r3, [r7, #20]
 2102 003c 023B     		subs	r3, r3, #2
 2103 003e 07F10C00 		add	r0, r7, #12
 2104 0042 094A     		ldr	r2, .L139
 2105 0044 0721     		movs	r1, #7
 2106 0046 FFF7FEFF 		bl	snprintf
 178:Core/Src/NMEA_Standard.cpp **** 		std::sscanf(s.c_str(), fmt, &deg, &min);
 2107              		.loc 3 178 14
 2108 004a 3868     		ldr	r0, [r7]
 2109 004c FFF7FEFF 		bl	_ZNK12StaticString5c_strEv
 2110 0050 7A68     		ldr	r2, [r7, #4]
 2111 0052 7B68     		ldr	r3, [r7, #4]
 2112 0054 0433     		adds	r3, r3, #4
 2113 0056 07F10C01 		add	r1, r7, #12
 2114 005a FFF7FEFF 		bl	sscanf
 2115              	.L137:
 2116              	.LBE15:
 2117              	.LBE14:
 2118              	.LBE13:
 2119              	.LBE12:
 179:Core/Src/NMEA_Standard.cpp **** 	}
 180:Core/Src/NMEA_Standard.cpp **** }
 2120              		.loc 3 180 1
 2121 005e 7B68     		ldr	r3, [r7, #4]
 2122 0060 1846     		mov	r0, r3
 2123 0062 1837     		adds	r7, r7, #24
 2124              		.cfi_def_cfa_offset 8
 2125 0064 BD46     		mov	sp, r7
 2126              		.cfi_def_cfa_register 13
 2127              		@ sp needed
ARM GAS  /var/folders/bb/dhrb69655gd8t4nf464nxc_00000gn/T//ccHP6Bp0.s 			page 46


 2128 0066 80BD     		pop	{r7, pc}
 2129              	.L140:
 2130              		.align	2
 2131              	.L139:
 2132 0068 98000000 		.word	.LC32
 2133              		.cfi_endproc
 2134              	.LFE967:
 2135              		.fnend
 2137              		.global	_ZN13NMEA_Standard10CoordinateC1ERK12StaticString
 2138              		.thumb_set _ZN13NMEA_Standard10CoordinateC1ERK12StaticString,_ZN13NMEA_Standard10CoordinateC2ERK12
 2139              		.global	__aeabi_f2d
 2140              		.section	.rodata
 2141 00a3 00       		.align	2
 2142              	.LC33:
 2143 00a4 25336425 		.ascii	"%3d%8.4f\000"
 2143      382E3466 
 2143      00
 2144              		.section	.text._ZN13NMEA_Standard10Coordinate8toStringEPc,"ax",%progbits
 2145              		.align	1
 2146              		.global	_ZN13NMEA_Standard10Coordinate8toStringEPc
 2147              		.syntax unified
 2148              		.thumb
 2149              		.thumb_func
 2151              	_ZN13NMEA_Standard10Coordinate8toStringEPc:
 2152              		.fnstart
 2153              	.LFB969:
 181:Core/Src/NMEA_Standard.cpp **** 
 182:Core/Src/NMEA_Standard.cpp **** string NMEA_Standard::Coordinate::toString(char cStr[12]){
 2154              		.loc 3 182 58
 2155              		.cfi_startproc
 2156              		@ args = 0, pretend = 0, frame = 24
 2157              		@ frame_needed = 1, uses_anonymous_args = 0
 2158 0000 90B5     		push	{r4, r7, lr}
 2159              		.cfi_def_cfa_offset 12
 2160              		.cfi_offset 4, -12
 2161              		.cfi_offset 7, -8
 2162              		.cfi_offset 14, -4
 2163 0002 89B0     		sub	sp, sp, #36
 2164              		.cfi_def_cfa_offset 48
 2165 0004 02AF     		add	r7, sp, #8
 2166              		.cfi_def_cfa 7, 40
 2167 0006 F860     		str	r0, [r7, #12]
 2168 0008 B960     		str	r1, [r7, #8]
 2169 000a 7A60     		str	r2, [r7, #4]
 183:Core/Src/NMEA_Standard.cpp **** 	auto nConv = std::snprintf(cStr, 12, "%3d%8.4f", deg, min);
 2170              		.loc 3 183 51
 2171 000c BB68     		ldr	r3, [r7, #8]
 2172 000e 1B88     		ldrh	r3, [r3]
 2173              		.loc 3 183 28
 2174 0010 1C46     		mov	r4, r3
 2175              		.loc 3 183 56
 2176 0012 BB68     		ldr	r3, [r7, #8]
 2177 0014 5B68     		ldr	r3, [r3, #4]	@ float
 2178              		.loc 3 183 28
 2179 0016 1846     		mov	r0, r3	@ float
 2180 0018 FFF7FEFF 		bl	__aeabi_f2d
 2181 001c 0246     		mov	r2, r0
ARM GAS  /var/folders/bb/dhrb69655gd8t4nf464nxc_00000gn/T//ccHP6Bp0.s 			page 47


 2182 001e 0B46     		mov	r3, r1
 2183 0020 CDE90023 		strd	r2, [sp]
 2184 0024 2346     		mov	r3, r4
 2185 0026 0B4A     		ldr	r2, .L145
 2186 0028 0C21     		movs	r1, #12
 2187 002a 7868     		ldr	r0, [r7, #4]
 2188 002c FFF7FEFF 		bl	snprintf
 2189 0030 7861     		str	r0, [r7, #20]
 184:Core/Src/NMEA_Standard.cpp **** 	return (nConv == 2) ? string(cStr) : "";
 2190              		.loc 3 184 39
 2191 0032 7B69     		ldr	r3, [r7, #20]
 2192 0034 022B     		cmp	r3, #2
 2193 0036 04D1     		bne	.L142
 2194              		.loc 3 184 39 is_stmt 0 discriminator 1
 2195 0038 7968     		ldr	r1, [r7, #4]
 2196 003a F868     		ldr	r0, [r7, #12]
 2197 003c FFF7FEFF 		bl	_ZN12StaticStringC1EPKc
 2198 0040 03E0     		b	.L141
 2199              	.L142:
 2200              		.loc 3 184 39 discriminator 2
 2201 0042 0549     		ldr	r1, .L145+4
 2202 0044 F868     		ldr	r0, [r7, #12]
 2203 0046 FFF7FEFF 		bl	_ZN12StaticStringC1EPKc
 2204              	.L141:
 185:Core/Src/NMEA_Standard.cpp **** }
 2205              		.loc 3 185 1 is_stmt 1
 2206 004a F868     		ldr	r0, [r7, #12]
 2207 004c 1C37     		adds	r7, r7, #28
 2208              		.cfi_def_cfa_offset 12
 2209 004e BD46     		mov	sp, r7
 2210              		.cfi_def_cfa_register 13
 2211              		@ sp needed
 2212 0050 90BD     		pop	{r4, r7, pc}
 2213              	.L146:
 2214 0052 00BF     		.align	2
 2215              	.L145:
 2216 0054 A4000000 		.word	.LC33
 2217 0058 00000000 		.word	.LC0
 2218              		.cfi_endproc
 2219              	.LFE969:
 2220              		.cantunwind
 2221              		.fnend
 2223              		.section	.text._ZN13NMEA_Standard10CoordinateaSES0_,"ax",%progbits
 2224              		.align	1
 2225              		.global	_ZN13NMEA_Standard10CoordinateaSES0_
 2226              		.syntax unified
 2227              		.thumb
 2228              		.thumb_func
 2230              	_ZN13NMEA_Standard10CoordinateaSES0_:
 2231              		.fnstart
 2232              	.LFB970:
 186:Core/Src/NMEA_Standard.cpp **** 
 187:Core/Src/NMEA_Standard.cpp **** /**
 188:Core/Src/NMEA_Standard.cpp ****  * @brief Assignes the Coordinate in terms of fractional degrees.
 189:Core/Src/NMEA_Standard.cpp ****  * 
 190:Core/Src/NMEA_Standard.cpp ****  * @param c	The Coordinate being assigned.
 191:Core/Src/NMEA_Standard.cpp ****  * @return float The Coordinate in fractional degrees.
ARM GAS  /var/folders/bb/dhrb69655gd8t4nf464nxc_00000gn/T//ccHP6Bp0.s 			page 48


 192:Core/Src/NMEA_Standard.cpp ****  */
 193:Core/Src/NMEA_Standard.cpp **** float NMEA_Standard::Coordinate::operator = (const Coordinate c){
 2233              		.loc 3 193 65
 2234              		.cfi_startproc
 2235              		@ args = 0, pretend = 0, frame = 16
 2236              		@ frame_needed = 1, uses_anonymous_args = 0
 2237              		@ link register save eliminated.
 2238 0000 80B4     		push	{r7}
 2239              		.cfi_def_cfa_offset 4
 2240              		.cfi_offset 7, -4
 2241 0002 85B0     		sub	sp, sp, #20
 2242              		.cfi_def_cfa_offset 24
 2243 0004 00AF     		add	r7, sp, #0
 2244              		.cfi_def_cfa_register 7
 2245 0006 F860     		str	r0, [r7, #12]
 2246 0008 3B1D     		adds	r3, r7, #4
 2247 000a 83E80600 		stm	r3, {r1, r2}
 194:Core/Src/NMEA_Standard.cpp **** 	return static_cast<float>(c.deg)*60 + c.min;
 2248              		.loc 3 194 30
 2249 000e BB88     		ldrh	r3, [r7, #4]
 2250              		.loc 3 194 9
 2251 0010 07EE903A 		vmov	s15, r3	@ int
 2252 0014 F8EE677A 		vcvt.f32.u32	s15, s15
 2253              		.loc 3 194 34
 2254 0018 9FED077A 		vldr.32	s14, .L149
 2255 001c 27EE877A 		vmul.f32	s14, s15, s14
 2256              		.loc 3 194 42
 2257 0020 D7ED027A 		vldr.32	s15, [r7, #8]
 2258 0024 77EE277A 		vadd.f32	s15, s14, s15
 195:Core/Src/NMEA_Standard.cpp **** }
 2259              		.loc 3 195 1
 2260 0028 B0EE670A 		vmov.f32	s0, s15
 2261 002c 1437     		adds	r7, r7, #20
 2262              		.cfi_def_cfa_offset 4
 2263 002e BD46     		mov	sp, r7
 2264              		.cfi_def_cfa_register 13
 2265              		@ sp needed
 2266 0030 5DF8047B 		ldr	r7, [sp], #4
 2267              		.cfi_restore 7
 2268              		.cfi_def_cfa_offset 0
 2269 0034 7047     		bx	lr
 2270              	.L150:
 2271 0036 00BF     		.align	2
 2272              	.L149:
 2273 0038 00007042 		.word	1114636288
 2274              		.cfi_endproc
 2275              	.LFE970:
 2276              		.cantunwind
 2277              		.fnend
 2279              		.section	.text._ZN13NMEA_Standard7AddressC2Ev,"axG",%progbits,_ZN13NMEA_Standard7AddressC5Ev,comda
 2280              		.align	1
 2281              		.weak	_ZN13NMEA_Standard7AddressC2Ev
 2282              		.syntax unified
 2283              		.thumb
 2284              		.thumb_func
 2286              	_ZN13NMEA_Standard7AddressC2Ev:
 2287              		.fnstart
ARM GAS  /var/folders/bb/dhrb69655gd8t4nf464nxc_00000gn/T//ccHP6Bp0.s 			page 49


 2288              	.LFB973:
  67:Core/Inc/NMEA_Standard.hpp **** 		Address(const string & s);
 2289              		.loc 2 67 3
 2290              		.cfi_startproc
 2291              		@ args = 0, pretend = 0, frame = 8
 2292              		@ frame_needed = 1, uses_anonymous_args = 0
 2293 0000 80B5     		push	{r7, lr}
 2294              		.cfi_def_cfa_offset 8
 2295              		.cfi_offset 7, -8
 2296              		.cfi_offset 14, -4
 2297 0002 82B0     		sub	sp, sp, #8
 2298              		.cfi_def_cfa_offset 16
 2299 0004 00AF     		add	r7, sp, #0
 2300              		.cfi_def_cfa_register 7
 2301 0006 7860     		str	r0, [r7, #4]
 2302              	.LBB16:
  67:Core/Inc/NMEA_Standard.hpp **** 		Address(const string & s);
 2303              		.loc 2 67 3
 2304 0008 7B68     		ldr	r3, [r7, #4]
 2305 000a 1846     		mov	r0, r3
 2306 000c FFF7FEFF 		bl	_ZN12StaticStringC1Ev
 2307 0010 7B68     		ldr	r3, [r7, #4]
 2308 0012 0833     		adds	r3, r3, #8
 2309 0014 1846     		mov	r0, r3
 2310 0016 FFF7FEFF 		bl	_ZN12StaticStringC1Ev
 2311              	.LBE16:
 2312 001a 7B68     		ldr	r3, [r7, #4]
 2313 001c 1846     		mov	r0, r3
 2314 001e 0837     		adds	r7, r7, #8
 2315              		.cfi_def_cfa_offset 8
 2316 0020 BD46     		mov	sp, r7
 2317              		.cfi_def_cfa_register 13
 2318              		@ sp needed
 2319 0022 80BD     		pop	{r7, pc}
 2320              		.cfi_endproc
 2321              	.LFE973:
 2322              		.cantunwind
 2323              		.fnend
 2325              		.weak	_ZN13NMEA_Standard7AddressC1Ev
 2326              		.thumb_set _ZN13NMEA_Standard7AddressC1Ev,_ZN13NMEA_Standard7AddressC2Ev
 2327              		.section	.text._ZN13NMEA_Standard7AddressaSEOS0_,"axG",%progbits,_ZN13NMEA_Standard7AddressaSEOS0_
 2328              		.align	1
 2329              		.weak	_ZN13NMEA_Standard7AddressaSEOS0_
 2330              		.syntax unified
 2331              		.thumb
 2332              		.thumb_func
 2334              	_ZN13NMEA_Standard7AddressaSEOS0_:
 2335              		.fnstart
 2336              	.LFB975:
  62:Core/Inc/NMEA_Standard.hpp **** 		string tt;	// Talker Identifier (string format)
 2337              		.loc 2 62 9
 2338              		.cfi_startproc
 2339              		@ args = 0, pretend = 0, frame = 8
 2340              		@ frame_needed = 1, uses_anonymous_args = 0
 2341 0000 80B5     		push	{r7, lr}
 2342              		.cfi_def_cfa_offset 8
 2343              		.cfi_offset 7, -8
ARM GAS  /var/folders/bb/dhrb69655gd8t4nf464nxc_00000gn/T//ccHP6Bp0.s 			page 50


 2344              		.cfi_offset 14, -4
 2345 0002 82B0     		sub	sp, sp, #8
 2346              		.cfi_def_cfa_offset 16
 2347 0004 00AF     		add	r7, sp, #0
 2348              		.cfi_def_cfa_register 7
 2349 0006 7860     		str	r0, [r7, #4]
 2350 0008 3960     		str	r1, [r7]
  62:Core/Inc/NMEA_Standard.hpp **** 		string tt;	// Talker Identifier (string format)
 2351              		.loc 2 62 9
 2352 000a 7B68     		ldr	r3, [r7, #4]
 2353 000c 3A68     		ldr	r2, [r7]
 2354 000e 1146     		mov	r1, r2
 2355 0010 1846     		mov	r0, r3
 2356 0012 FFF7FEFF 		bl	_ZN12StaticStringaSERKS_
 2357 0016 7B68     		ldr	r3, [r7, #4]
 2358 0018 03F10802 		add	r2, r3, #8
 2359 001c 3B68     		ldr	r3, [r7]
 2360 001e 0833     		adds	r3, r3, #8
 2361 0020 1946     		mov	r1, r3
 2362 0022 1046     		mov	r0, r2
 2363 0024 FFF7FEFF 		bl	_ZN12StaticStringaSERKS_
 2364 0028 7B68     		ldr	r3, [r7, #4]
 2365 002a 1846     		mov	r0, r3
 2366 002c 0837     		adds	r7, r7, #8
 2367              		.cfi_def_cfa_offset 8
 2368 002e BD46     		mov	sp, r7
 2369              		.cfi_def_cfa_register 13
 2370              		@ sp needed
 2371 0030 80BD     		pop	{r7, pc}
 2372              		.cfi_endproc
 2373              	.LFE975:
 2374              		.cantunwind
 2375              		.fnend
 2377              		.section	.text._ZN13NMEA_Standard3GNSC2ERKSt5arrayI12StaticStringLj15EE,"ax",%progbits
 2378              		.align	1
 2379              		.global	_ZN13NMEA_Standard3GNSC2ERKSt5arrayI12StaticStringLj15EE
 2380              		.syntax unified
 2381              		.thumb
 2382              		.thumb_func
 2384              	_ZN13NMEA_Standard3GNSC2ERKSt5arrayI12StaticStringLj15EE:
 2385              		.fnstart
 2386              	.LFB976:
 196:Core/Src/NMEA_Standard.cpp **** 
 197:Core/Src/NMEA_Standard.cpp **** /* NMEA GNS Message */
 198:Core/Src/NMEA_Standard.cpp **** extern unsigned long strtoul(const char *, char ** = nullptr, int = 10);
 199:Core/Src/NMEA_Standard.cpp **** NMEA_Standard::GNS::GNS(const std::array<StaticString, 15> & fields){
 2387              		.loc 3 199 1
 2388              		.cfi_startproc
 2389              		@ args = 0, pretend = 0, frame = 56
 2390              		@ frame_needed = 1, uses_anonymous_args = 0
 2391 0000 90B5     		push	{r4, r7, lr}
 2392              		.save {r4, r7, lr}
 2393              		.cfi_def_cfa_offset 12
 2394              		.cfi_offset 4, -12
 2395              		.cfi_offset 7, -8
 2396              		.cfi_offset 14, -4
 2397              		.pad #60
ARM GAS  /var/folders/bb/dhrb69655gd8t4nf464nxc_00000gn/T//ccHP6Bp0.s 			page 51


 2398 0002 8FB0     		sub	sp, sp, #60
 2399              		.cfi_def_cfa_offset 72
 2400              		.setfp r7, sp, #0
 2401 0004 00AF     		add	r7, sp, #0
 2402              		.cfi_def_cfa_register 7
 2403 0006 7860     		str	r0, [r7, #4]
 2404 0008 3960     		str	r1, [r7]
 2405              	.LBB17:
 2406              		.loc 3 199 68
 2407 000a 7B68     		ldr	r3, [r7, #4]
 2408 000c 1846     		mov	r0, r3
 2409 000e FFF7FEFF 		bl	_ZN13NMEA_StandardC2Ev
 2410 0012 CD4A     		ldr	r2, .L169
 2411 0014 7B68     		ldr	r3, [r7, #4]
 2412 0016 1A60     		str	r2, [r3]
 2413 0018 7B68     		ldr	r3, [r7, #4]
 2414 001a 1033     		adds	r3, r3, #16
 2415 001c 1846     		mov	r0, r3
 2416 001e FFF7FEFF 		bl	_ZN13NMEA_Standard7AddressC1Ev
 2417 0022 7B68     		ldr	r3, [r7, #4]
 2418 0024 4033     		adds	r3, r3, #64
 2419 0026 1846     		mov	r0, r3
 2420 0028 FFF7FEFF 		bl	_ZN12StaticStringC1Ev
 200:Core/Src/NMEA_Standard.cpp **** 		// Class constructors will handle empty cases.
 201:Core/Src/NMEA_Standard.cpp **** 							addr 		= fields[0];
 2421              		.loc 3 201 25
 2422 002c 7B68     		ldr	r3, [r7, #4]
 2423 002e 03F11004 		add	r4, r3, #16
 2424 0032 0021     		movs	r1, #0
 2425 0034 3868     		ldr	r0, [r7]
 2426 0036 FFF7FEFF 		bl	_ZNKSt5arrayI12StaticStringLj15EEixEj
 2427 003a 0246     		mov	r2, r0
 2428 003c 07F10C03 		add	r3, r7, #12
 2429 0040 1146     		mov	r1, r2
 2430 0042 1846     		mov	r0, r3
 2431 0044 FFF7FEFF 		bl	_ZN13NMEA_Standard7AddressC1ERK12StaticString
 2432 0048 07F10C03 		add	r3, r7, #12
 2433 004c 1946     		mov	r1, r3
 2434 004e 2046     		mov	r0, r4
 2435 0050 FFF7FEFF 		bl	_ZN13NMEA_Standard7AddressaSEOS0_
 202:Core/Src/NMEA_Standard.cpp **** 							time		= fields[1];
 2436              		.loc 3 202 24
 2437 0054 0121     		movs	r1, #1
 2438 0056 3868     		ldr	r0, [r7]
 2439 0058 FFF7FEFF 		bl	_ZNKSt5arrayI12StaticStringLj15EEixEj
 2440 005c 0246     		mov	r2, r0
 2441              		.loc 3 202 14
 2442 005e 07F11C03 		add	r3, r7, #28
 2443 0062 1146     		mov	r1, r2
 2444 0064 1846     		mov	r0, r3
 2445 0066 FFF7FEFF 		bl	_ZN13NMEA_Standard8UTC_TimeC1ERK12StaticString
 2446 006a 7B68     		ldr	r3, [r7, #4]
 2447 006c 2033     		adds	r3, r3, #32
 2448 006e 07F11C02 		add	r2, r7, #28
 2449 0072 92E80300 		ldm	r2, {r0, r1}
 2450 0076 83E80300 		stm	r3, {r0, r1}
 203:Core/Src/NMEA_Standard.cpp **** 							lat			= fields[2];
ARM GAS  /var/folders/bb/dhrb69655gd8t4nf464nxc_00000gn/T//ccHP6Bp0.s 			page 52


 2451              		.loc 3 203 14
 2452 007a 7B68     		ldr	r3, [r7, #4]
 2453 007c 03F12804 		add	r4, r3, #40
 2454              		.loc 3 203 24
 2455 0080 0221     		movs	r1, #2
 2456 0082 3868     		ldr	r0, [r7]
 2457 0084 FFF7FEFF 		bl	_ZNKSt5arrayI12StaticStringLj15EEixEj
 2458 0088 0246     		mov	r2, r0
 2459              		.loc 3 203 14
 2460 008a 07F12403 		add	r3, r7, #36
 2461 008e 1146     		mov	r1, r2
 2462 0090 1846     		mov	r0, r3
 2463              	.LEHB0:
 2464 0092 FFF7FEFF 		bl	_ZN13NMEA_Standard10CoordinateC1ERK12StaticString
 2465              		.loc 3 203 14 is_stmt 0 discriminator 1
 2466 0096 07F12403 		add	r3, r7, #36
 2467 009a 93E80600 		ldm	r3, {r1, r2}
 2468 009e 2046     		mov	r0, r4
 2469 00a0 FFF7FEFF 		bl	_ZN13NMEA_Standard10CoordinateaSES0_
 204:Core/Src/NMEA_Standard.cpp **** 	if(!fields[3].empty())	NS 			= fields[3].at(0);
 2470              		.loc 3 204 14 is_stmt 1 discriminator 1
 2471 00a4 0321     		movs	r1, #3
 2472 00a6 3868     		ldr	r0, [r7]
 2473 00a8 FFF7FEFF 		bl	_ZNKSt5arrayI12StaticStringLj15EEixEj
 2474 00ac 0346     		mov	r3, r0
 2475              		.loc 3 204 21 discriminator 1
 2476 00ae 1846     		mov	r0, r3
 2477 00b0 FFF7FEFF 		bl	_ZNK12StaticString5emptyEv
 2478 00b4 0346     		mov	r3, r0
 2479              		.loc 3 204 5 discriminator 1
 2480 00b6 83F00103 		eor	r3, r3, #1
 2481 00ba DBB2     		uxtb	r3, r3
 2482              		.loc 3 204 2 discriminator 1
 2483 00bc 002B     		cmp	r3, #0
 2484 00be 0DD0     		beq	.L156
 2485              		.loc 3 204 41 discriminator 1
 2486 00c0 0321     		movs	r1, #3
 2487 00c2 3868     		ldr	r0, [r7]
 2488 00c4 FFF7FEFF 		bl	_ZNKSt5arrayI12StaticStringLj15EEixEj
 2489 00c8 0346     		mov	r3, r0
 2490              		.loc 3 204 45 discriminator 1
 2491 00ca 0021     		movs	r1, #0
 2492 00cc 1846     		mov	r0, r3
 2493 00ce FFF7FEFF 		bl	_ZNK12StaticString2atEj
 2494 00d2 0346     		mov	r3, r0
 2495 00d4 1A46     		mov	r2, r3
 2496              		.loc 3 204 31 discriminator 1
 2497 00d6 7B68     		ldr	r3, [r7, #4]
 2498 00d8 83F83020 		strb	r2, [r3, #48]
 2499              	.L156:
 205:Core/Src/NMEA_Standard.cpp **** 							lon			= fields[4];
 2500              		.loc 3 205 14
 2501 00dc 7B68     		ldr	r3, [r7, #4]
 2502 00de 03F13404 		add	r4, r3, #52
 2503              		.loc 3 205 24
 2504 00e2 0421     		movs	r1, #4
 2505 00e4 3868     		ldr	r0, [r7]
ARM GAS  /var/folders/bb/dhrb69655gd8t4nf464nxc_00000gn/T//ccHP6Bp0.s 			page 53


 2506 00e6 FFF7FEFF 		bl	_ZNKSt5arrayI12StaticStringLj15EEixEj
 2507 00ea 0246     		mov	r2, r0
 2508              		.loc 3 205 14
 2509 00ec 07F12C03 		add	r3, r7, #44
 2510 00f0 1146     		mov	r1, r2
 2511 00f2 1846     		mov	r0, r3
 2512 00f4 FFF7FEFF 		bl	_ZN13NMEA_Standard10CoordinateC1ERK12StaticString
 2513              	.LEHE0:
 2514              		.loc 3 205 14 is_stmt 0 discriminator 1
 2515 00f8 07F12C03 		add	r3, r7, #44
 2516 00fc 93E80600 		ldm	r3, {r1, r2}
 2517 0100 2046     		mov	r0, r4
 2518 0102 FFF7FEFF 		bl	_ZN13NMEA_Standard10CoordinateaSES0_
 206:Core/Src/NMEA_Standard.cpp **** 	if(!fields[5].empty())	EW 			= fields[5].at(0);
 2519              		.loc 3 206 14 is_stmt 1 discriminator 1
 2520 0106 0521     		movs	r1, #5
 2521 0108 3868     		ldr	r0, [r7]
 2522 010a FFF7FEFF 		bl	_ZNKSt5arrayI12StaticStringLj15EEixEj
 2523 010e 0346     		mov	r3, r0
 2524              		.loc 3 206 21 discriminator 1
 2525 0110 1846     		mov	r0, r3
 2526 0112 FFF7FEFF 		bl	_ZNK12StaticString5emptyEv
 2527 0116 0346     		mov	r3, r0
 2528              		.loc 3 206 5 discriminator 1
 2529 0118 83F00103 		eor	r3, r3, #1
 2530 011c DBB2     		uxtb	r3, r3
 2531              		.loc 3 206 2 discriminator 1
 2532 011e 002B     		cmp	r3, #0
 2533 0120 0DD0     		beq	.L157
 2534              		.loc 3 206 41 discriminator 1
 2535 0122 0521     		movs	r1, #5
 2536 0124 3868     		ldr	r0, [r7]
 2537 0126 FFF7FEFF 		bl	_ZNKSt5arrayI12StaticStringLj15EEixEj
 2538 012a 0346     		mov	r3, r0
 2539              		.loc 3 206 45 discriminator 1
 2540 012c 0021     		movs	r1, #0
 2541 012e 1846     		mov	r0, r3
 2542 0130 FFF7FEFF 		bl	_ZNK12StaticString2atEj
 2543 0134 0346     		mov	r3, r0
 2544 0136 1A46     		mov	r2, r3
 2545              		.loc 3 206 31 discriminator 1
 2546 0138 7B68     		ldr	r3, [r7, #4]
 2547 013a 83F83C20 		strb	r2, [r3, #60]
 2548              	.L157:
 207:Core/Src/NMEA_Standard.cpp **** 							posMode		= fields[6];
 2549              		.loc 3 207 17
 2550 013e 7B68     		ldr	r3, [r7, #4]
 2551 0140 03F14004 		add	r4, r3, #64
 2552              		.loc 3 207 27
 2553 0144 0621     		movs	r1, #6
 2554 0146 3868     		ldr	r0, [r7]
 2555 0148 FFF7FEFF 		bl	_ZNKSt5arrayI12StaticStringLj15EEixEj
 2556 014c 0346     		mov	r3, r0
 2557              		.loc 3 207 17
 2558 014e 1946     		mov	r1, r3
 2559 0150 2046     		mov	r0, r4
 2560 0152 FFF7FEFF 		bl	_ZN12StaticStringaSERKS_
ARM GAS  /var/folders/bb/dhrb69655gd8t4nf464nxc_00000gn/T//ccHP6Bp0.s 			page 54


 208:Core/Src/NMEA_Standard.cpp **** 	if(!fields[7].empty())	numSV		= std::strtoul(fields[7].c_str(), nullptr, 10);
 2561              		.loc 3 208 14
 2562 0156 0721     		movs	r1, #7
 2563 0158 3868     		ldr	r0, [r7]
 2564 015a FFF7FEFF 		bl	_ZNKSt5arrayI12StaticStringLj15EEixEj
 2565 015e 0346     		mov	r3, r0
 2566              		.loc 3 208 21
 2567 0160 1846     		mov	r0, r3
 2568 0162 FFF7FEFF 		bl	_ZNK12StaticString5emptyEv
 2569 0166 0346     		mov	r3, r0
 2570              		.loc 3 208 5
 2571 0168 83F00103 		eor	r3, r3, #1
 2572 016c DBB2     		uxtb	r3, r3
 2573              		.loc 3 208 2
 2574 016e 002B     		cmp	r3, #0
 2575 0170 12D0     		beq	.L158
 2576              		.loc 3 208 55 discriminator 1
 2577 0172 0721     		movs	r1, #7
 2578 0174 3868     		ldr	r0, [r7]
 2579 0176 FFF7FEFF 		bl	_ZNKSt5arrayI12StaticStringLj15EEixEj
 2580 017a 0346     		mov	r3, r0
 2581              		.loc 3 208 46 discriminator 1
 2582 017c 1846     		mov	r0, r3
 2583 017e FFF7FEFF 		bl	_ZNK12StaticString5c_strEv
 2584 0182 0346     		mov	r3, r0
 2585 0184 0A22     		movs	r2, #10
 2586 0186 0021     		movs	r1, #0
 2587 0188 1846     		mov	r0, r3
 2588 018a FFF7FEFF 		bl	strtoul
 2589 018e 0346     		mov	r3, r0
 2590              		.loc 3 208 32 discriminator 1
 2591 0190 DAB2     		uxtb	r2, r3
 2592 0192 7B68     		ldr	r3, [r7, #4]
 2593 0194 83F84820 		strb	r2, [r3, #72]
 2594              	.L158:
 209:Core/Src/NMEA_Standard.cpp **** 	if(!fields[8].empty())	hdop		= std::strtof(fields[8].c_str(), nullptr);
 2595              		.loc 3 209 14
 2596 0198 0821     		movs	r1, #8
 2597 019a 3868     		ldr	r0, [r7]
 2598 019c FFF7FEFF 		bl	_ZNKSt5arrayI12StaticStringLj15EEixEj
 2599 01a0 0346     		mov	r3, r0
 2600              		.loc 3 209 21
 2601 01a2 1846     		mov	r0, r3
 2602 01a4 FFF7FEFF 		bl	_ZNK12StaticString5emptyEv
 2603 01a8 0346     		mov	r3, r0
 2604              		.loc 3 209 5
 2605 01aa 83F00103 		eor	r3, r3, #1
 2606 01ae DBB2     		uxtb	r3, r3
 2607              		.loc 3 209 2
 2608 01b0 002B     		cmp	r3, #0
 2609 01b2 11D0     		beq	.L159
 2610              		.loc 3 209 53 discriminator 1
 2611 01b4 0821     		movs	r1, #8
 2612 01b6 3868     		ldr	r0, [r7]
 2613 01b8 FFF7FEFF 		bl	_ZNKSt5arrayI12StaticStringLj15EEixEj
 2614 01bc 0346     		mov	r3, r0
 2615              		.loc 3 209 44 discriminator 1
ARM GAS  /var/folders/bb/dhrb69655gd8t4nf464nxc_00000gn/T//ccHP6Bp0.s 			page 55


 2616 01be 1846     		mov	r0, r3
 2617 01c0 FFF7FEFF 		bl	_ZNK12StaticString5c_strEv
 2618 01c4 0346     		mov	r3, r0
 2619 01c6 0021     		movs	r1, #0
 2620 01c8 1846     		mov	r0, r3
 2621 01ca FFF7FEFF 		bl	strtof
 2622 01ce F0EE407A 		vmov.f32	s15, s0
 2623              		.loc 3 209 31 discriminator 1
 2624 01d2 7B68     		ldr	r3, [r7, #4]
 2625 01d4 C3ED137A 		vstr.32	s15, [r3, #76]
 2626              	.L159:
 210:Core/Src/NMEA_Standard.cpp **** 	if(!fields[9].empty())	alt			= std::strtof(fields[9].c_str(), nullptr);
 2627              		.loc 3 210 14
 2628 01d8 0921     		movs	r1, #9
 2629 01da 3868     		ldr	r0, [r7]
 2630 01dc FFF7FEFF 		bl	_ZNKSt5arrayI12StaticStringLj15EEixEj
 2631 01e0 0346     		mov	r3, r0
 2632              		.loc 3 210 21
 2633 01e2 1846     		mov	r0, r3
 2634 01e4 FFF7FEFF 		bl	_ZNK12StaticString5emptyEv
 2635 01e8 0346     		mov	r3, r0
 2636              		.loc 3 210 5
 2637 01ea 83F00103 		eor	r3, r3, #1
 2638 01ee DBB2     		uxtb	r3, r3
 2639              		.loc 3 210 2
 2640 01f0 002B     		cmp	r3, #0
 2641 01f2 11D0     		beq	.L160
 2642              		.loc 3 210 53 discriminator 1
 2643 01f4 0921     		movs	r1, #9
 2644 01f6 3868     		ldr	r0, [r7]
 2645 01f8 FFF7FEFF 		bl	_ZNKSt5arrayI12StaticStringLj15EEixEj
 2646 01fc 0346     		mov	r3, r0
 2647              		.loc 3 210 44 discriminator 1
 2648 01fe 1846     		mov	r0, r3
 2649 0200 FFF7FEFF 		bl	_ZNK12StaticString5c_strEv
 2650 0204 0346     		mov	r3, r0
 2651 0206 0021     		movs	r1, #0
 2652 0208 1846     		mov	r0, r3
 2653 020a FFF7FEFF 		bl	strtof
 2654 020e F0EE407A 		vmov.f32	s15, s0
 2655              		.loc 3 210 31 discriminator 1
 2656 0212 7B68     		ldr	r3, [r7, #4]
 2657 0214 C3ED147A 		vstr.32	s15, [r3, #80]
 2658              	.L160:
 211:Core/Src/NMEA_Standard.cpp **** 	if(!fields[10].empty())	sep			= std::strtof(fields[10].c_str(), nullptr);
 2659              		.loc 3 211 15
 2660 0218 0A21     		movs	r1, #10
 2661 021a 3868     		ldr	r0, [r7]
 2662 021c FFF7FEFF 		bl	_ZNKSt5arrayI12StaticStringLj15EEixEj
 2663 0220 0346     		mov	r3, r0
 2664              		.loc 3 211 22
 2665 0222 1846     		mov	r0, r3
 2666 0224 FFF7FEFF 		bl	_ZNK12StaticString5emptyEv
 2667 0228 0346     		mov	r3, r0
 2668              		.loc 3 211 5
 2669 022a 83F00103 		eor	r3, r3, #1
 2670 022e DBB2     		uxtb	r3, r3
ARM GAS  /var/folders/bb/dhrb69655gd8t4nf464nxc_00000gn/T//ccHP6Bp0.s 			page 56


 2671              		.loc 3 211 2
 2672 0230 002B     		cmp	r3, #0
 2673 0232 11D0     		beq	.L161
 2674              		.loc 3 211 55 discriminator 1
 2675 0234 0A21     		movs	r1, #10
 2676 0236 3868     		ldr	r0, [r7]
 2677 0238 FFF7FEFF 		bl	_ZNKSt5arrayI12StaticStringLj15EEixEj
 2678 023c 0346     		mov	r3, r0
 2679              		.loc 3 211 45 discriminator 1
 2680 023e 1846     		mov	r0, r3
 2681 0240 FFF7FEFF 		bl	_ZNK12StaticString5c_strEv
 2682 0244 0346     		mov	r3, r0
 2683 0246 0021     		movs	r1, #0
 2684 0248 1846     		mov	r0, r3
 2685 024a FFF7FEFF 		bl	strtof
 2686 024e F0EE407A 		vmov.f32	s15, s0
 2687              		.loc 3 211 32 discriminator 1
 2688 0252 7B68     		ldr	r3, [r7, #4]
 2689 0254 C3ED157A 		vstr.32	s15, [r3, #84]
 2690              	.L161:
 212:Core/Src/NMEA_Standard.cpp **** 	if(!fields[11].empty())	diffAge		= std::strtof(fields[11].c_str(), nullptr);
 2691              		.loc 3 212 15
 2692 0258 0B21     		movs	r1, #11
 2693 025a 3868     		ldr	r0, [r7]
 2694 025c FFF7FEFF 		bl	_ZNKSt5arrayI12StaticStringLj15EEixEj
 2695 0260 0346     		mov	r3, r0
 2696              		.loc 3 212 22
 2697 0262 1846     		mov	r0, r3
 2698 0264 FFF7FEFF 		bl	_ZNK12StaticString5emptyEv
 2699 0268 0346     		mov	r3, r0
 2700              		.loc 3 212 5
 2701 026a 83F00103 		eor	r3, r3, #1
 2702 026e DBB2     		uxtb	r3, r3
 2703              		.loc 3 212 2
 2704 0270 002B     		cmp	r3, #0
 2705 0272 11D0     		beq	.L162
 2706              		.loc 3 212 58 discriminator 1
 2707 0274 0B21     		movs	r1, #11
 2708 0276 3868     		ldr	r0, [r7]
 2709 0278 FFF7FEFF 		bl	_ZNKSt5arrayI12StaticStringLj15EEixEj
 2710 027c 0346     		mov	r3, r0
 2711              		.loc 3 212 48 discriminator 1
 2712 027e 1846     		mov	r0, r3
 2713 0280 FFF7FEFF 		bl	_ZNK12StaticString5c_strEv
 2714 0284 0346     		mov	r3, r0
 2715 0286 0021     		movs	r1, #0
 2716 0288 1846     		mov	r0, r3
 2717 028a FFF7FEFF 		bl	strtof
 2718 028e F0EE407A 		vmov.f32	s15, s0
 2719              		.loc 3 212 35 discriminator 1
 2720 0292 7B68     		ldr	r3, [r7, #4]
 2721 0294 C3ED167A 		vstr.32	s15, [r3, #88]
 2722              	.L162:
 213:Core/Src/NMEA_Standard.cpp **** 	if(!fields[12].empty())	diffStation	= std::strtoul(fields[12].c_str(), nullptr, 10);
 2723              		.loc 3 213 15
 2724 0298 0C21     		movs	r1, #12
 2725 029a 3868     		ldr	r0, [r7]
ARM GAS  /var/folders/bb/dhrb69655gd8t4nf464nxc_00000gn/T//ccHP6Bp0.s 			page 57


 2726 029c FFF7FEFF 		bl	_ZNKSt5arrayI12StaticStringLj15EEixEj
 2727 02a0 0346     		mov	r3, r0
 2728              		.loc 3 213 22
 2729 02a2 1846     		mov	r0, r3
 2730 02a4 FFF7FEFF 		bl	_ZNK12StaticString5emptyEv
 2731 02a8 0346     		mov	r3, r0
 2732              		.loc 3 213 5
 2733 02aa 83F00103 		eor	r3, r3, #1
 2734 02ae DBB2     		uxtb	r3, r3
 2735              		.loc 3 213 2
 2736 02b0 002B     		cmp	r3, #0
 2737 02b2 12D0     		beq	.L163
 2738              		.loc 3 213 62 discriminator 1
 2739 02b4 0C21     		movs	r1, #12
 2740 02b6 3868     		ldr	r0, [r7]
 2741 02b8 FFF7FEFF 		bl	_ZNKSt5arrayI12StaticStringLj15EEixEj
 2742 02bc 0346     		mov	r3, r0
 2743              		.loc 3 213 52 discriminator 1
 2744 02be 1846     		mov	r0, r3
 2745 02c0 FFF7FEFF 		bl	_ZNK12StaticString5c_strEv
 2746 02c4 0346     		mov	r3, r0
 2747 02c6 0A22     		movs	r2, #10
 2748 02c8 0021     		movs	r1, #0
 2749 02ca 1846     		mov	r0, r3
 2750 02cc FFF7FEFF 		bl	strtoul
 2751 02d0 0346     		mov	r3, r0
 2752              		.loc 3 213 38 discriminator 1
 2753 02d2 9AB2     		uxth	r2, r3
 2754 02d4 7B68     		ldr	r3, [r7, #4]
 2755 02d6 A3F85C20 		strh	r2, [r3, #92]	@ movhi
 2756              	.L163:
 214:Core/Src/NMEA_Standard.cpp **** 	if(!fields[13].empty()) navStatus 	= fields[13].at(0);
 2757              		.loc 3 214 15
 2758 02da 0D21     		movs	r1, #13
 2759 02dc 3868     		ldr	r0, [r7]
 2760 02de FFF7FEFF 		bl	_ZNKSt5arrayI12StaticStringLj15EEixEj
 2761 02e2 0346     		mov	r3, r0
 2762              		.loc 3 214 22
 2763 02e4 1846     		mov	r0, r3
 2764 02e6 FFF7FEFF 		bl	_ZNK12StaticString5emptyEv
 2765 02ea 0346     		mov	r3, r0
 2766              		.loc 3 214 5
 2767 02ec 83F00103 		eor	r3, r3, #1
 2768 02f0 DBB2     		uxtb	r3, r3
 2769              		.loc 3 214 2
 2770 02f2 002B     		cmp	r3, #0
 2771 02f4 0DD0     		beq	.L164
 2772              		.loc 3 214 48 discriminator 1
 2773 02f6 0D21     		movs	r1, #13
 2774 02f8 3868     		ldr	r0, [r7]
 2775 02fa FFF7FEFF 		bl	_ZNKSt5arrayI12StaticStringLj15EEixEj
 2776 02fe 0346     		mov	r3, r0
 2777              		.loc 3 214 52 discriminator 1
 2778 0300 0021     		movs	r1, #0
 2779 0302 1846     		mov	r0, r3
 2780 0304 FFF7FEFF 		bl	_ZNK12StaticString2atEj
 2781 0308 0346     		mov	r3, r0
ARM GAS  /var/folders/bb/dhrb69655gd8t4nf464nxc_00000gn/T//ccHP6Bp0.s 			page 58


 2782 030a 1A46     		mov	r2, r3
 2783              		.loc 3 214 37 discriminator 1
 2784 030c 7B68     		ldr	r3, [r7, #4]
 2785 030e 83F85E20 		strb	r2, [r3, #94]
 2786              	.L164:
 215:Core/Src/NMEA_Standard.cpp **** 							cs			= fields[14];
 2787              		.loc 3 215 24
 2788 0312 0E21     		movs	r1, #14
 2789 0314 3868     		ldr	r0, [r7]
 2790 0316 FFF7FEFF 		bl	_ZNKSt5arrayI12StaticStringLj15EEixEj
 2791 031a 0246     		mov	r2, r0
 2792              		.loc 3 215 13
 2793 031c 07F13403 		add	r3, r7, #52
 2794 0320 1146     		mov	r1, r2
 2795 0322 1846     		mov	r0, r3
 2796 0324 FFF7FEFF 		bl	_ZN13NMEA_Standard8ChecksumC1ERK12StaticString
 2797 0328 7B68     		ldr	r3, [r7, #4]
 2798 032a 97F83420 		ldrb	r2, [r7, #52]
 2799 032e 5A71     		strb	r2, [r3, #5]
 2800              	.LBE17:
 216:Core/Src/NMEA_Standard.cpp **** }
 2801              		.loc 3 216 1
 2802 0330 7B68     		ldr	r3, [r7, #4]
 2803 0332 05E0     		b	.L168
 2804              	.L167:
 2805              	.LBB18:
 199:Core/Src/NMEA_Standard.cpp **** 		// Class constructors will handle empty cases.
 2806              		.loc 3 199 68
 2807 0334 7B68     		ldr	r3, [r7, #4]
 2808 0336 1846     		mov	r0, r3
 2809 0338 FFF7FEFF 		bl	_ZN13NMEA_StandardD2Ev
 2810              	.LEHB1:
 2811 033c FFF7FEFF 		bl	__cxa_end_cleanup
 2812              	.LEHE1:
 2813              	.L168:
 2814              	.LBE18:
 2815              		.loc 3 216 1
 2816 0340 1846     		mov	r0, r3
 2817 0342 3C37     		adds	r7, r7, #60
 2818              		.cfi_def_cfa_offset 12
 2819 0344 BD46     		mov	sp, r7
 2820              		.cfi_def_cfa_register 13
 2821              		@ sp needed
 2822 0346 90BD     		pop	{r4, r7, pc}
 2823              	.L170:
 2824              		.align	2
 2825              	.L169:
 2826 0348 08000000 		.word	_ZTVN13NMEA_Standard3GNSE+8
 2827              		.cfi_endproc
 2828              	.LFE976:
 2829              		.global	__gxx_personality_v0
 2830              		.personality	__gxx_personality_v0
 2831              		.handlerdata
 2832              	.LLSDA976:
 2833 000c FF       		.byte	0xff
 2834 000d FF       		.byte	0xff
 2835 000e 01       		.byte	0x1
ARM GAS  /var/folders/bb/dhrb69655gd8t4nf464nxc_00000gn/T//ccHP6Bp0.s 			page 59


 2836 000f 0B       		.uleb128 .LLSDACSE976-.LLSDACSB976
 2837              	.LLSDACSB976:
 2838 0010 9201     		.uleb128 .LEHB0-.LFB976
 2839 0012 66       		.uleb128 .LEHE0-.LEHB0
 2840 0013 B406     		.uleb128 .L167-.LFB976
 2841 0015 00       		.uleb128 0
 2842 0016 BC06     		.uleb128 .LEHB1-.LFB976
 2843 0018 04       		.uleb128 .LEHE1-.LEHB1
 2844 0019 00       		.uleb128 0
 2845 001a 00       		.uleb128 0
 2846              	.LLSDACSE976:
 2847              		.section	.text._ZN13NMEA_Standard3GNSC2ERKSt5arrayI12StaticStringLj15EE
 2848              		.fnend
 2850              		.global	_ZN13NMEA_Standard3GNSC1ERKSt5arrayI12StaticStringLj15EE
 2851              		.thumb_set _ZN13NMEA_Standard3GNSC1ERKSt5arrayI12StaticStringLj15EE,_ZN13NMEA_Standard3GNSC2ERKSt5
 2852              		.section	.text._ZN13NMEA_Standard3GNSC2ERK12StaticString,"ax",%progbits
 2853              		.align	1
 2854              		.global	_ZN13NMEA_Standard3GNSC2ERK12StaticString
 2855              		.syntax unified
 2856              		.thumb
 2857              		.thumb_func
 2859              	_ZN13NMEA_Standard3GNSC2ERK12StaticString:
 2860              		.fnstart
 2861              	.LFB979:
 217:Core/Src/NMEA_Standard.cpp **** 
 218:Core/Src/NMEA_Standard.cpp **** NMEA_Standard::GNS::GNS(const string & msg) :
 2862              		.loc 3 218 1
 2863              		.cfi_startproc
 2864              		@ args = 0, pretend = 0, frame = 128
 2865              		@ frame_needed = 1, uses_anonymous_args = 0
 2866 0000 80B5     		push	{r7, lr}
 2867              		.save {r7, lr}
 2868              		.cfi_def_cfa_offset 8
 2869              		.cfi_offset 7, -8
 2870              		.cfi_offset 14, -4
 2871              		.pad #128
 2872 0002 A0B0     		sub	sp, sp, #128
 2873              		.cfi_def_cfa_offset 136
 2874              		.setfp r7, sp, #0
 2875 0004 00AF     		add	r7, sp, #0
 2876              		.cfi_def_cfa_register 7
 2877 0006 7860     		str	r0, [r7, #4]
 2878 0008 3960     		str	r1, [r7]
 2879              	.LBB19:
 219:Core/Src/NMEA_Standard.cpp **** 	GNS(parseFields<15>(msg)){}
 2880              		.loc 3 219 25
 2881 000a 07F10803 		add	r3, r7, #8
 2882 000e 3968     		ldr	r1, [r7]
 2883 0010 1846     		mov	r0, r3
 2884 0012 FFF7FEFF 		bl	_ZN13NMEA_Standard11parseFieldsILj15EEESt5arrayI12StaticStringXT_EERKS2_
 2885              		.loc 3 219 26
 2886 0016 07F10803 		add	r3, r7, #8
 2887 001a 1946     		mov	r1, r3
 2888 001c 7868     		ldr	r0, [r7, #4]
 2889 001e FFF7FEFF 		bl	_ZN13NMEA_Standard3GNSC1ERKSt5arrayI12StaticStringLj15EE
 2890              	.LBE19:
 2891              		.loc 3 219 28
ARM GAS  /var/folders/bb/dhrb69655gd8t4nf464nxc_00000gn/T//ccHP6Bp0.s 			page 60


 2892 0022 7B68     		ldr	r3, [r7, #4]
 2893 0024 1846     		mov	r0, r3
 2894 0026 8037     		adds	r7, r7, #128
 2895              		.cfi_def_cfa_offset 8
 2896 0028 BD46     		mov	sp, r7
 2897              		.cfi_def_cfa_register 13
 2898              		@ sp needed
 2899 002a 80BD     		pop	{r7, pc}
 2900              		.cfi_endproc
 2901              	.LFE979:
 2902              		.fnend
 2904              		.global	_ZN13NMEA_Standard3GNSC1ERK12StaticString
 2905              		.thumb_set _ZN13NMEA_Standard3GNSC1ERK12StaticString,_ZN13NMEA_Standard3GNSC2ERK12StaticString
 2906              		.section	.text._ZN13NMEA_Standard3GLLC2ERKSt5arrayI12StaticStringLj9EE,"ax",%progbits
 2907              		.align	1
 2908              		.global	_ZN13NMEA_Standard3GLLC2ERKSt5arrayI12StaticStringLj9EE
 2909              		.syntax unified
 2910              		.thumb
 2911              		.thumb_func
 2913              	_ZN13NMEA_Standard3GLLC2ERKSt5arrayI12StaticStringLj9EE:
 2914              		.fnstart
 2915              	.LFB982:
 220:Core/Src/NMEA_Standard.cpp **** 
 221:Core/Src/NMEA_Standard.cpp **** /* NMEA GLL Message */
 222:Core/Src/NMEA_Standard.cpp **** 
 223:Core/Src/NMEA_Standard.cpp **** NMEA_Standard::GLL::GLL(const std::array<StaticString, 9> & fields){	
 2916              		.loc 3 223 1
 2917              		.cfi_startproc
 2918              		@ args = 0, pretend = 0, frame = 56
 2919              		@ frame_needed = 1, uses_anonymous_args = 0
 2920 0000 90B5     		push	{r4, r7, lr}
 2921              		.save {r4, r7, lr}
 2922              		.cfi_def_cfa_offset 12
 2923              		.cfi_offset 4, -12
 2924              		.cfi_offset 7, -8
 2925              		.cfi_offset 14, -4
 2926              		.pad #60
 2927 0002 8FB0     		sub	sp, sp, #60
 2928              		.cfi_def_cfa_offset 72
 2929              		.setfp r7, sp, #0
 2930 0004 00AF     		add	r7, sp, #0
 2931              		.cfi_def_cfa_register 7
 2932 0006 7860     		str	r0, [r7, #4]
 2933 0008 3960     		str	r1, [r7]
 2934              	.LBB20:
 2935              		.loc 3 223 67
 2936 000a 7B68     		ldr	r3, [r7, #4]
 2937 000c 1846     		mov	r0, r3
 2938 000e FFF7FEFF 		bl	_ZN13NMEA_StandardC2Ev
 2939 0012 7C4A     		ldr	r2, .L186
 2940 0014 7B68     		ldr	r3, [r7, #4]
 2941 0016 1A60     		str	r2, [r3]
 2942 0018 7B68     		ldr	r3, [r7, #4]
 2943 001a 1033     		adds	r3, r3, #16
 2944 001c 1846     		mov	r0, r3
 2945 001e FFF7FEFF 		bl	_ZN13NMEA_Standard7AddressC1Ev
 224:Core/Src/NMEA_Standard.cpp **** 							addr 	= fields[0];
ARM GAS  /var/folders/bb/dhrb69655gd8t4nf464nxc_00000gn/T//ccHP6Bp0.s 			page 61


 2946              		.loc 3 224 24
 2947 0022 7B68     		ldr	r3, [r7, #4]
 2948 0024 03F11004 		add	r4, r3, #16
 2949 0028 0021     		movs	r1, #0
 2950 002a 3868     		ldr	r0, [r7]
 2951 002c FFF7FEFF 		bl	_ZNKSt5arrayI12StaticStringLj9EEixEj
 2952 0030 0246     		mov	r2, r0
 2953 0032 07F10C03 		add	r3, r7, #12
 2954 0036 1146     		mov	r1, r2
 2955 0038 1846     		mov	r0, r3
 2956 003a FFF7FEFF 		bl	_ZN13NMEA_Standard7AddressC1ERK12StaticString
 2957 003e 07F10C03 		add	r3, r7, #12
 2958 0042 1946     		mov	r1, r3
 2959 0044 2046     		mov	r0, r4
 2960 0046 FFF7FEFF 		bl	_ZN13NMEA_Standard7AddressaSEOS0_
 225:Core/Src/NMEA_Standard.cpp **** 							lat 	= fields[1];
 2961              		.loc 3 225 13
 2962 004a 7B68     		ldr	r3, [r7, #4]
 2963 004c 03F12004 		add	r4, r3, #32
 2964              		.loc 3 225 23
 2965 0050 0121     		movs	r1, #1
 2966 0052 3868     		ldr	r0, [r7]
 2967 0054 FFF7FEFF 		bl	_ZNKSt5arrayI12StaticStringLj9EEixEj
 2968 0058 0246     		mov	r2, r0
 2969              		.loc 3 225 13
 2970 005a 07F11C03 		add	r3, r7, #28
 2971 005e 1146     		mov	r1, r2
 2972 0060 1846     		mov	r0, r3
 2973              	.LEHB2:
 2974 0062 FFF7FEFF 		bl	_ZN13NMEA_Standard10CoordinateC1ERK12StaticString
 2975              		.loc 3 225 13 is_stmt 0 discriminator 1
 2976 0066 07F11C03 		add	r3, r7, #28
 2977 006a 93E80600 		ldm	r3, {r1, r2}
 2978 006e 2046     		mov	r0, r4
 2979 0070 FFF7FEFF 		bl	_ZN13NMEA_Standard10CoordinateaSES0_
 226:Core/Src/NMEA_Standard.cpp **** 	if(!fields[2].empty())	NS 		= fields[2].at(0);
 2980              		.loc 3 226 14 is_stmt 1 discriminator 1
 2981 0074 0221     		movs	r1, #2
 2982 0076 3868     		ldr	r0, [r7]
 2983 0078 FFF7FEFF 		bl	_ZNKSt5arrayI12StaticStringLj9EEixEj
 2984 007c 0346     		mov	r3, r0
 2985              		.loc 3 226 21 discriminator 1
 2986 007e 1846     		mov	r0, r3
 2987 0080 FFF7FEFF 		bl	_ZNK12StaticString5emptyEv
 2988 0084 0346     		mov	r3, r0
 2989              		.loc 3 226 5 discriminator 1
 2990 0086 83F00103 		eor	r3, r3, #1
 2991 008a DBB2     		uxtb	r3, r3
 2992              		.loc 3 226 2 discriminator 1
 2993 008c 002B     		cmp	r3, #0
 2994 008e 0ED0     		beq	.L174
 2995              		.loc 3 226 40 discriminator 1
 2996 0090 0221     		movs	r1, #2
 2997 0092 3868     		ldr	r0, [r7]
 2998 0094 FFF7FEFF 		bl	_ZNKSt5arrayI12StaticStringLj9EEixEj
 2999 0098 0346     		mov	r3, r0
 3000              		.loc 3 226 44 discriminator 1
ARM GAS  /var/folders/bb/dhrb69655gd8t4nf464nxc_00000gn/T//ccHP6Bp0.s 			page 62


 3001 009a 0021     		movs	r1, #0
 3002 009c 1846     		mov	r0, r3
 3003 009e FFF7FEFF 		bl	_ZNK12StaticString2atEj
 3004 00a2 0346     		mov	r3, r0
 3005 00a4 1A46     		mov	r2, r3
 3006              		.loc 3 226 30 discriminator 1
 3007 00a6 7B68     		ldr	r3, [r7, #4]
 3008 00a8 83F82820 		strb	r2, [r3, #40]
 3009 00ac 03E0     		b	.L175
 3010              	.L174:
 227:Core/Src/NMEA_Standard.cpp **** 	else					NS 		= ' ';
 3011              		.loc 3 227 16
 3012 00ae 7B68     		ldr	r3, [r7, #4]
 3013 00b0 2022     		movs	r2, #32
 3014 00b2 83F82820 		strb	r2, [r3, #40]
 3015              	.L175:
 228:Core/Src/NMEA_Standard.cpp **** 							lon 	= fields[3];
 3016              		.loc 3 228 13
 3017 00b6 7B68     		ldr	r3, [r7, #4]
 3018 00b8 03F12C04 		add	r4, r3, #44
 3019              		.loc 3 228 23
 3020 00bc 0321     		movs	r1, #3
 3021 00be 3868     		ldr	r0, [r7]
 3022 00c0 FFF7FEFF 		bl	_ZNKSt5arrayI12StaticStringLj9EEixEj
 3023 00c4 0246     		mov	r2, r0
 3024              		.loc 3 228 13
 3025 00c6 07F12403 		add	r3, r7, #36
 3026 00ca 1146     		mov	r1, r2
 3027 00cc 1846     		mov	r0, r3
 3028 00ce FFF7FEFF 		bl	_ZN13NMEA_Standard10CoordinateC1ERK12StaticString
 3029              	.LEHE2:
 3030              		.loc 3 228 13 is_stmt 0 discriminator 1
 3031 00d2 07F12403 		add	r3, r7, #36
 3032 00d6 93E80600 		ldm	r3, {r1, r2}
 3033 00da 2046     		mov	r0, r4
 3034 00dc FFF7FEFF 		bl	_ZN13NMEA_Standard10CoordinateaSES0_
 229:Core/Src/NMEA_Standard.cpp **** 	if(!fields[4].empty())	EW 		= fields[4].at(0);
 3035              		.loc 3 229 14 is_stmt 1 discriminator 1
 3036 00e0 0421     		movs	r1, #4
 3037 00e2 3868     		ldr	r0, [r7]
 3038 00e4 FFF7FEFF 		bl	_ZNKSt5arrayI12StaticStringLj9EEixEj
 3039 00e8 0346     		mov	r3, r0
 3040              		.loc 3 229 21 discriminator 1
 3041 00ea 1846     		mov	r0, r3
 3042 00ec FFF7FEFF 		bl	_ZNK12StaticString5emptyEv
 3043 00f0 0346     		mov	r3, r0
 3044              		.loc 3 229 5 discriminator 1
 3045 00f2 83F00103 		eor	r3, r3, #1
 3046 00f6 DBB2     		uxtb	r3, r3
 3047              		.loc 3 229 2 discriminator 1
 3048 00f8 002B     		cmp	r3, #0
 3049 00fa 0ED0     		beq	.L176
 3050              		.loc 3 229 40 discriminator 1
 3051 00fc 0421     		movs	r1, #4
 3052 00fe 3868     		ldr	r0, [r7]
 3053 0100 FFF7FEFF 		bl	_ZNKSt5arrayI12StaticStringLj9EEixEj
 3054 0104 0346     		mov	r3, r0
ARM GAS  /var/folders/bb/dhrb69655gd8t4nf464nxc_00000gn/T//ccHP6Bp0.s 			page 63


 3055              		.loc 3 229 44 discriminator 1
 3056 0106 0021     		movs	r1, #0
 3057 0108 1846     		mov	r0, r3
 3058 010a FFF7FEFF 		bl	_ZNK12StaticString2atEj
 3059 010e 0346     		mov	r3, r0
 3060 0110 1A46     		mov	r2, r3
 3061              		.loc 3 229 30 discriminator 1
 3062 0112 7B68     		ldr	r3, [r7, #4]
 3063 0114 83F83420 		strb	r2, [r3, #52]
 3064 0118 03E0     		b	.L177
 3065              	.L176:
 230:Core/Src/NMEA_Standard.cpp **** 	else					EW 		= ' ';
 3066              		.loc 3 230 16
 3067 011a 7B68     		ldr	r3, [r7, #4]
 3068 011c 2022     		movs	r2, #32
 3069 011e 83F83420 		strb	r2, [r3, #52]
 3070              	.L177:
 231:Core/Src/NMEA_Standard.cpp **** 							time 	= fields[5];
 3071              		.loc 3 231 24
 3072 0122 0521     		movs	r1, #5
 3073 0124 3868     		ldr	r0, [r7]
 3074 0126 FFF7FEFF 		bl	_ZNKSt5arrayI12StaticStringLj9EEixEj
 3075 012a 0246     		mov	r2, r0
 3076              		.loc 3 231 14
 3077 012c 07F12C03 		add	r3, r7, #44
 3078 0130 1146     		mov	r1, r2
 3079 0132 1846     		mov	r0, r3
 3080 0134 FFF7FEFF 		bl	_ZN13NMEA_Standard8UTC_TimeC1ERK12StaticString
 3081 0138 7B68     		ldr	r3, [r7, #4]
 3082 013a 3833     		adds	r3, r3, #56
 3083 013c 07F12C02 		add	r2, r7, #44
 3084 0140 92E80300 		ldm	r2, {r0, r1}
 3085 0144 83E80300 		stm	r3, {r0, r1}
 232:Core/Src/NMEA_Standard.cpp **** 	if(!fields[6].empty()) 	status 	= fields[6].at(0);
 3086              		.loc 3 232 14
 3087 0148 0621     		movs	r1, #6
 3088 014a 3868     		ldr	r0, [r7]
 3089 014c FFF7FEFF 		bl	_ZNKSt5arrayI12StaticStringLj9EEixEj
 3090 0150 0346     		mov	r3, r0
 3091              		.loc 3 232 21
 3092 0152 1846     		mov	r0, r3
 3093 0154 FFF7FEFF 		bl	_ZNK12StaticString5emptyEv
 3094 0158 0346     		mov	r3, r0
 3095              		.loc 3 232 5
 3096 015a 83F00103 		eor	r3, r3, #1
 3097 015e DBB2     		uxtb	r3, r3
 3098              		.loc 3 232 2
 3099 0160 002B     		cmp	r3, #0
 3100 0162 0ED0     		beq	.L178
 3101              		.loc 3 232 44 discriminator 1
 3102 0164 0621     		movs	r1, #6
 3103 0166 3868     		ldr	r0, [r7]
 3104 0168 FFF7FEFF 		bl	_ZNKSt5arrayI12StaticStringLj9EEixEj
 3105 016c 0346     		mov	r3, r0
 3106              		.loc 3 232 48 discriminator 1
 3107 016e 0021     		movs	r1, #0
 3108 0170 1846     		mov	r0, r3
ARM GAS  /var/folders/bb/dhrb69655gd8t4nf464nxc_00000gn/T//ccHP6Bp0.s 			page 64


 3109 0172 FFF7FEFF 		bl	_ZNK12StaticString2atEj
 3110 0176 0346     		mov	r3, r0
 3111 0178 1A46     		mov	r2, r3
 3112              		.loc 3 232 34 discriminator 1
 3113 017a 7B68     		ldr	r3, [r7, #4]
 3114 017c 83F84020 		strb	r2, [r3, #64]
 3115 0180 03E0     		b	.L179
 3116              	.L178:
 233:Core/Src/NMEA_Standard.cpp **** 	else					status	= ' ';
 3117              		.loc 3 233 18
 3118 0182 7B68     		ldr	r3, [r7, #4]
 3119 0184 2022     		movs	r2, #32
 3120 0186 83F84020 		strb	r2, [r3, #64]
 3121              	.L179:
 234:Core/Src/NMEA_Standard.cpp **** 	if(!fields[7].empty()) 	posMode = fields[7].at(0);
 3122              		.loc 3 234 14
 3123 018a 0721     		movs	r1, #7
 3124 018c 3868     		ldr	r0, [r7]
 3125 018e FFF7FEFF 		bl	_ZNKSt5arrayI12StaticStringLj9EEixEj
 3126 0192 0346     		mov	r3, r0
 3127              		.loc 3 234 21
 3128 0194 1846     		mov	r0, r3
 3129 0196 FFF7FEFF 		bl	_ZNK12StaticString5emptyEv
 3130 019a 0346     		mov	r3, r0
 3131              		.loc 3 234 5
 3132 019c 83F00103 		eor	r3, r3, #1
 3133 01a0 DBB2     		uxtb	r3, r3
 3134              		.loc 3 234 2
 3135 01a2 002B     		cmp	r3, #0
 3136 01a4 0ED0     		beq	.L180
 3137              		.loc 3 234 44 discriminator 1
 3138 01a6 0721     		movs	r1, #7
 3139 01a8 3868     		ldr	r0, [r7]
 3140 01aa FFF7FEFF 		bl	_ZNKSt5arrayI12StaticStringLj9EEixEj
 3141 01ae 0346     		mov	r3, r0
 3142              		.loc 3 234 48 discriminator 1
 3143 01b0 0021     		movs	r1, #0
 3144 01b2 1846     		mov	r0, r3
 3145 01b4 FFF7FEFF 		bl	_ZNK12StaticString2atEj
 3146 01b8 0346     		mov	r3, r0
 3147 01ba 1A46     		mov	r2, r3
 3148              		.loc 3 234 34 discriminator 1
 3149 01bc 7B68     		ldr	r3, [r7, #4]
 3150 01be 83F84120 		strb	r2, [r3, #65]
 3151 01c2 03E0     		b	.L181
 3152              	.L180:
 235:Core/Src/NMEA_Standard.cpp **** 	else					posMode	= ' ';
 3153              		.loc 3 235 19
 3154 01c4 7B68     		ldr	r3, [r7, #4]
 3155 01c6 2022     		movs	r2, #32
 3156 01c8 83F84120 		strb	r2, [r3, #65]
 3157              	.L181:
 236:Core/Src/NMEA_Standard.cpp **** 							cs 		= fields[8];
 3158              		.loc 3 236 23
 3159 01cc 0821     		movs	r1, #8
 3160 01ce 3868     		ldr	r0, [r7]
 3161 01d0 FFF7FEFF 		bl	_ZNKSt5arrayI12StaticStringLj9EEixEj
ARM GAS  /var/folders/bb/dhrb69655gd8t4nf464nxc_00000gn/T//ccHP6Bp0.s 			page 65


 3162 01d4 0246     		mov	r2, r0
 3163              		.loc 3 236 13
 3164 01d6 07F13403 		add	r3, r7, #52
 3165 01da 1146     		mov	r1, r2
 3166 01dc 1846     		mov	r0, r3
 3167 01de FFF7FEFF 		bl	_ZN13NMEA_Standard8ChecksumC1ERK12StaticString
 3168 01e2 7B68     		ldr	r3, [r7, #4]
 3169 01e4 97F83420 		ldrb	r2, [r7, #52]
 3170 01e8 5A71     		strb	r2, [r3, #5]
 3171              	.LBE20:
 237:Core/Src/NMEA_Standard.cpp **** }
 3172              		.loc 3 237 1
 3173 01ea 7B68     		ldr	r3, [r7, #4]
 3174 01ec 05E0     		b	.L185
 3175              	.L184:
 3176              	.LBB21:
 223:Core/Src/NMEA_Standard.cpp **** 							addr 	= fields[0];
 3177              		.loc 3 223 67
 3178 01ee 7B68     		ldr	r3, [r7, #4]
 3179 01f0 1846     		mov	r0, r3
 3180 01f2 FFF7FEFF 		bl	_ZN13NMEA_StandardD2Ev
 3181              	.LEHB3:
 3182 01f6 FFF7FEFF 		bl	__cxa_end_cleanup
 3183              	.LEHE3:
 3184              	.L185:
 3185              	.LBE21:
 3186              		.loc 3 237 1
 3187 01fa 1846     		mov	r0, r3
 3188 01fc 3C37     		adds	r7, r7, #60
 3189              		.cfi_def_cfa_offset 12
 3190 01fe BD46     		mov	sp, r7
 3191              		.cfi_def_cfa_register 13
 3192              		@ sp needed
 3193 0200 90BD     		pop	{r4, r7, pc}
 3194              	.L187:
 3195 0202 00BF     		.align	2
 3196              	.L186:
 3197 0204 08000000 		.word	_ZTVN13NMEA_Standard3GLLE+8
 3198              		.cfi_endproc
 3199              	.LFE982:
 3200              		.personality	__gxx_personality_v0
 3201              		.handlerdata
 3202              	.LLSDA982:
 3203 000c FF       		.byte	0xff
 3204 000d FF       		.byte	0xff
 3205 000e 01       		.byte	0x1
 3206 000f 0A       		.uleb128 .LLSDACSE982-.LLSDACSB982
 3207              	.LLSDACSB982:
 3208 0010 62       		.uleb128 .LEHB2-.LFB982
 3209 0011 70       		.uleb128 .LEHE2-.LEHB2
 3210 0012 EE03     		.uleb128 .L184-.LFB982
 3211 0014 00       		.uleb128 0
 3212 0015 F603     		.uleb128 .LEHB3-.LFB982
 3213 0017 04       		.uleb128 .LEHE3-.LEHB3
 3214 0018 00       		.uleb128 0
 3215 0019 00       		.uleb128 0
 3216              	.LLSDACSE982:
ARM GAS  /var/folders/bb/dhrb69655gd8t4nf464nxc_00000gn/T//ccHP6Bp0.s 			page 66


 3217              		.section	.text._ZN13NMEA_Standard3GLLC2ERKSt5arrayI12StaticStringLj9EE
 3218              		.fnend
 3220              		.global	_ZN13NMEA_Standard3GLLC1ERKSt5arrayI12StaticStringLj9EE
 3221              		.thumb_set _ZN13NMEA_Standard3GLLC1ERKSt5arrayI12StaticStringLj9EE,_ZN13NMEA_Standard3GLLC2ERKSt5a
 3222              		.section	.text._ZN13NMEA_Standard3GLLC2ERK12StaticString,"ax",%progbits
 3223              		.align	1
 3224              		.global	_ZN13NMEA_Standard3GLLC2ERK12StaticString
 3225              		.syntax unified
 3226              		.thumb
 3227              		.thumb_func
 3229              	_ZN13NMEA_Standard3GLLC2ERK12StaticString:
 3230              		.fnstart
 3231              	.LFB985:
 238:Core/Src/NMEA_Standard.cpp **** 
 239:Core/Src/NMEA_Standard.cpp **** NMEA_Standard::GLL::GLL(const string & nmea):
 3232              		.loc 3 239 1
 3233              		.cfi_startproc
 3234              		@ args = 0, pretend = 0, frame = 80
 3235              		@ frame_needed = 1, uses_anonymous_args = 0
 3236 0000 80B5     		push	{r7, lr}
 3237              		.save {r7, lr}
 3238              		.cfi_def_cfa_offset 8
 3239              		.cfi_offset 7, -8
 3240              		.cfi_offset 14, -4
 3241              		.pad #80
 3242 0002 94B0     		sub	sp, sp, #80
 3243              		.cfi_def_cfa_offset 88
 3244              		.setfp r7, sp, #0
 3245 0004 00AF     		add	r7, sp, #0
 3246              		.cfi_def_cfa_register 7
 3247 0006 7860     		str	r0, [r7, #4]
 3248 0008 3960     		str	r1, [r7]
 3249              	.LBB22:
 240:Core/Src/NMEA_Standard.cpp **** 	GLL(parseFields<9>(nmea)){}
 3250              		.loc 3 240 25
 3251 000a 07F10803 		add	r3, r7, #8
 3252 000e 3968     		ldr	r1, [r7]
 3253 0010 1846     		mov	r0, r3
 3254 0012 FFF7FEFF 		bl	_ZN13NMEA_Standard11parseFieldsILj9EEESt5arrayI12StaticStringXT_EERKS2_
 3255              		.loc 3 240 26
 3256 0016 07F10803 		add	r3, r7, #8
 3257 001a 1946     		mov	r1, r3
 3258 001c 7868     		ldr	r0, [r7, #4]
 3259 001e FFF7FEFF 		bl	_ZN13NMEA_Standard3GLLC1ERKSt5arrayI12StaticStringLj9EE
 3260              	.LBE22:
 3261              		.loc 3 240 28
 3262 0022 7B68     		ldr	r3, [r7, #4]
 3263 0024 1846     		mov	r0, r3
 3264 0026 5037     		adds	r7, r7, #80
 3265              		.cfi_def_cfa_offset 8
 3266 0028 BD46     		mov	sp, r7
 3267              		.cfi_def_cfa_register 13
 3268              		@ sp needed
 3269 002a 80BD     		pop	{r7, pc}
 3270              		.cfi_endproc
 3271              	.LFE985:
 3272              		.fnend
ARM GAS  /var/folders/bb/dhrb69655gd8t4nf464nxc_00000gn/T//ccHP6Bp0.s 			page 67


 3274              		.global	_ZN13NMEA_Standard3GLLC1ERK12StaticString
 3275              		.thumb_set _ZN13NMEA_Standard3GLLC1ERK12StaticString,_ZN13NMEA_Standard3GLLC2ERK12StaticString
 3276              		.section	.text._ZN13NMEA_Standard3GSAC2ERKSt5arrayI12StaticStringLj20EE,"ax",%progbits
 3277              		.align	1
 3278              		.global	_ZN13NMEA_Standard3GSAC2ERKSt5arrayI12StaticStringLj20EE
 3279              		.syntax unified
 3280              		.thumb
 3281              		.thumb_func
 3283              	_ZN13NMEA_Standard3GSAC2ERKSt5arrayI12StaticStringLj20EE:
 3284              		.fnstart
 3285              	.LFB988:
 241:Core/Src/NMEA_Standard.cpp **** 
 242:Core/Src/NMEA_Standard.cpp **** /* NMEA GSA Message */
 243:Core/Src/NMEA_Standard.cpp **** 
 244:Core/Src/NMEA_Standard.cpp **** NMEA_Standard::GSA::GSA(const std::array<StaticString, 20> & fields){
 3286              		.loc 3 244 1
 3287              		.cfi_startproc
 3288              		@ args = 0, pretend = 0, frame = 32
 3289              		@ frame_needed = 1, uses_anonymous_args = 0
 3290 0000 90B5     		push	{r4, r7, lr}
 3291              		.cfi_def_cfa_offset 12
 3292              		.cfi_offset 4, -12
 3293              		.cfi_offset 7, -8
 3294              		.cfi_offset 14, -4
 3295 0002 89B0     		sub	sp, sp, #36
 3296              		.cfi_def_cfa_offset 48
 3297 0004 00AF     		add	r7, sp, #0
 3298              		.cfi_def_cfa_register 7
 3299 0006 7860     		str	r0, [r7, #4]
 3300 0008 3960     		str	r1, [r7]
 3301              	.LBB23:
 3302              		.loc 3 244 68
 3303 000a 7B68     		ldr	r3, [r7, #4]
 3304 000c 1846     		mov	r0, r3
 3305 000e FFF7FEFF 		bl	_ZN13NMEA_StandardC2Ev
 3306 0012 904A     		ldr	r2, .L201
 3307 0014 7B68     		ldr	r3, [r7, #4]
 3308 0016 1A60     		str	r2, [r3]
 3309 0018 7B68     		ldr	r3, [r7, #4]
 3310 001a 1033     		adds	r3, r3, #16
 3311 001c 1846     		mov	r0, r3
 3312 001e FFF7FEFF 		bl	_ZN13NMEA_Standard7AddressC1Ev
 3313              	.LBB24:
 245:Core/Src/NMEA_Standard.cpp **** 							addr 		= fields[0];
 3314              		.loc 3 245 25
 3315 0022 7B68     		ldr	r3, [r7, #4]
 3316 0024 03F11004 		add	r4, r3, #16
 3317 0028 0021     		movs	r1, #0
 3318 002a 3868     		ldr	r0, [r7]
 3319 002c FFF7FEFF 		bl	_ZNKSt5arrayI12StaticStringLj20EEixEj
 3320 0030 0246     		mov	r2, r0
 3321 0032 07F10803 		add	r3, r7, #8
 3322 0036 1146     		mov	r1, r2
 3323 0038 1846     		mov	r0, r3
 3324 003a FFF7FEFF 		bl	_ZN13NMEA_Standard7AddressC1ERK12StaticString
 3325 003e 07F10803 		add	r3, r7, #8
 3326 0042 1946     		mov	r1, r3
ARM GAS  /var/folders/bb/dhrb69655gd8t4nf464nxc_00000gn/T//ccHP6Bp0.s 			page 68


 3327 0044 2046     		mov	r0, r4
 3328 0046 FFF7FEFF 		bl	_ZN13NMEA_Standard7AddressaSEOS0_
 246:Core/Src/NMEA_Standard.cpp **** 	if(!fields[1].empty())	opMode 		= fields[1].at(0);
 3329              		.loc 3 246 14
 3330 004a 0121     		movs	r1, #1
 3331 004c 3868     		ldr	r0, [r7]
 3332 004e FFF7FEFF 		bl	_ZNKSt5arrayI12StaticStringLj20EEixEj
 3333 0052 0346     		mov	r3, r0
 3334              		.loc 3 246 21
 3335 0054 1846     		mov	r0, r3
 3336 0056 FFF7FEFF 		bl	_ZNK12StaticString5emptyEv
 3337 005a 0346     		mov	r3, r0
 3338              		.loc 3 246 5
 3339 005c 83F00103 		eor	r3, r3, #1
 3340 0060 DBB2     		uxtb	r3, r3
 3341              		.loc 3 246 2
 3342 0062 002B     		cmp	r3, #0
 3343 0064 0DD0     		beq	.L191
 3344              		.loc 3 246 44 discriminator 1
 3345 0066 0121     		movs	r1, #1
 3346 0068 3868     		ldr	r0, [r7]
 3347 006a FFF7FEFF 		bl	_ZNKSt5arrayI12StaticStringLj20EEixEj
 3348 006e 0346     		mov	r3, r0
 3349              		.loc 3 246 48 discriminator 1
 3350 0070 0021     		movs	r1, #0
 3351 0072 1846     		mov	r0, r3
 3352 0074 FFF7FEFF 		bl	_ZNK12StaticString2atEj
 3353 0078 0346     		mov	r3, r0
 3354 007a 1A46     		mov	r2, r3
 3355              		.loc 3 246 34 discriminator 1
 3356 007c 7B68     		ldr	r3, [r7, #4]
 3357 007e 83F82020 		strb	r2, [r3, #32]
 3358              	.L191:
 247:Core/Src/NMEA_Standard.cpp **** 	if(!fields[2].empty()) 	navMode 	= std::strtoul(fields[2].c_str(), nullptr, 10);
 3359              		.loc 3 247 14
 3360 0082 0221     		movs	r1, #2
 3361 0084 3868     		ldr	r0, [r7]
 3362 0086 FFF7FEFF 		bl	_ZNKSt5arrayI12StaticStringLj20EEixEj
 3363 008a 0346     		mov	r3, r0
 3364              		.loc 3 247 21
 3365 008c 1846     		mov	r0, r3
 3366 008e FFF7FEFF 		bl	_ZNK12StaticString5emptyEv
 3367 0092 0346     		mov	r3, r0
 3368              		.loc 3 247 5
 3369 0094 83F00103 		eor	r3, r3, #1
 3370 0098 DBB2     		uxtb	r3, r3
 3371              		.loc 3 247 2
 3372 009a 002B     		cmp	r3, #0
 3373 009c 12D0     		beq	.L192
 3374              		.loc 3 247 58 discriminator 1
 3375 009e 0221     		movs	r1, #2
 3376 00a0 3868     		ldr	r0, [r7]
 3377 00a2 FFF7FEFF 		bl	_ZNKSt5arrayI12StaticStringLj20EEixEj
 3378 00a6 0346     		mov	r3, r0
 3379              		.loc 3 247 49 discriminator 1
 3380 00a8 1846     		mov	r0, r3
 3381 00aa FFF7FEFF 		bl	_ZNK12StaticString5c_strEv
ARM GAS  /var/folders/bb/dhrb69655gd8t4nf464nxc_00000gn/T//ccHP6Bp0.s 			page 69


 3382 00ae 0346     		mov	r3, r0
 3383 00b0 0A22     		movs	r2, #10
 3384 00b2 0021     		movs	r1, #0
 3385 00b4 1846     		mov	r0, r3
 3386 00b6 FFF7FEFF 		bl	strtoul
 3387 00ba 0346     		mov	r3, r0
 3388              		.loc 3 247 35 discriminator 1
 3389 00bc DAB2     		uxtb	r2, r3
 3390 00be 7B68     		ldr	r3, [r7, #4]
 3391 00c0 83F82120 		strb	r2, [r3, #33]
 3392              	.L192:
 3393              	.LBB25:
 248:Core/Src/NMEA_Standard.cpp **** 	
 249:Core/Src/NMEA_Standard.cpp **** 	for(int i = 0; i < 12; i++)
 3394              		.loc 3 249 10
 3395 00c4 0023     		movs	r3, #0
 3396 00c6 FB61     		str	r3, [r7, #28]
 3397              	.L195:
 3398              		.loc 3 249 19 discriminator 1
 3399 00c8 FB69     		ldr	r3, [r7, #28]
 3400 00ca 0B2B     		cmp	r3, #11
 3401 00cc 2EDC     		bgt	.L193
 250:Core/Src/NMEA_Standard.cpp **** 	if(!fields[3+i].empty()) svid[i] 	= std::strtoul(fields[3+i].c_str(), nullptr, 10);
 3402              		.loc 3 250 14
 3403 00ce FB69     		ldr	r3, [r7, #28]
 3404 00d0 0333     		adds	r3, r3, #3
 3405              		.loc 3 250 16
 3406 00d2 1946     		mov	r1, r3
 3407 00d4 3868     		ldr	r0, [r7]
 3408 00d6 FFF7FEFF 		bl	_ZNKSt5arrayI12StaticStringLj20EEixEj
 3409 00da 0346     		mov	r3, r0
 3410              		.loc 3 250 23
 3411 00dc 1846     		mov	r0, r3
 3412 00de FFF7FEFF 		bl	_ZNK12StaticString5emptyEv
 3413 00e2 0346     		mov	r3, r0
 3414              		.loc 3 250 5
 3415 00e4 83F00103 		eor	r3, r3, #1
 3416 00e8 DBB2     		uxtb	r3, r3
 3417              		.loc 3 250 2
 3418 00ea 002B     		cmp	r3, #0
 3419 00ec 1AD0     		beq	.L194
 3420              		.loc 3 250 59 discriminator 1
 3421 00ee FB69     		ldr	r3, [r7, #28]
 3422 00f0 0333     		adds	r3, r3, #3
 3423              		.loc 3 250 61 discriminator 1
 3424 00f2 1946     		mov	r1, r3
 3425 00f4 3868     		ldr	r0, [r7]
 3426 00f6 FFF7FEFF 		bl	_ZNKSt5arrayI12StaticStringLj20EEixEj
 3427 00fa 0346     		mov	r3, r0
 3428              		.loc 3 250 50 discriminator 1
 3429 00fc 1846     		mov	r0, r3
 3430 00fe FFF7FEFF 		bl	_ZNK12StaticString5c_strEv
 3431 0102 0346     		mov	r3, r0
 3432 0104 0A22     		movs	r2, #10
 3433 0106 0021     		movs	r1, #0
 3434 0108 1846     		mov	r0, r3
 3435 010a FFF7FEFF 		bl	strtoul
ARM GAS  /var/folders/bb/dhrb69655gd8t4nf464nxc_00000gn/T//ccHP6Bp0.s 			page 70


 3436 010e 0446     		mov	r4, r0
 3437              		.loc 3 250 33 discriminator 1
 3438 0110 7B68     		ldr	r3, [r7, #4]
 3439 0112 2233     		adds	r3, r3, #34
 3440 0114 FA69     		ldr	r2, [r7, #28]
 3441 0116 1146     		mov	r1, r2
 3442 0118 1846     		mov	r0, r3
 3443 011a FFF7FEFF 		bl	_ZNSt5arrayIhLj12EEixEj
 3444 011e 0346     		mov	r3, r0
 3445              		.loc 3 250 36 discriminator 1
 3446 0120 E2B2     		uxtb	r2, r4
 3447 0122 1A70     		strb	r2, [r3]
 3448              	.L194:
 249:Core/Src/NMEA_Standard.cpp **** 	if(!fields[3+i].empty()) svid[i] 	= std::strtoul(fields[3+i].c_str(), nullptr, 10);
 3449              		.loc 3 249 2 discriminator 2
 3450 0124 FB69     		ldr	r3, [r7, #28]
 3451 0126 0133     		adds	r3, r3, #1
 3452 0128 FB61     		str	r3, [r7, #28]
 3453 012a CDE7     		b	.L195
 3454              	.L193:
 3455              	.LBE25:
 251:Core/Src/NMEA_Standard.cpp **** 	
 252:Core/Src/NMEA_Standard.cpp **** 	if(!fields[15].empty()) pdop 		= std::strtof(fields[15].c_str(), nullptr);
 3456              		.loc 3 252 15
 3457 012c 0F21     		movs	r1, #15
 3458 012e 3868     		ldr	r0, [r7]
 3459 0130 FFF7FEFF 		bl	_ZNKSt5arrayI12StaticStringLj20EEixEj
 3460 0134 0346     		mov	r3, r0
 3461              		.loc 3 252 22
 3462 0136 1846     		mov	r0, r3
 3463 0138 FFF7FEFF 		bl	_ZNK12StaticString5emptyEv
 3464 013c 0346     		mov	r3, r0
 3465              		.loc 3 252 5
 3466 013e 83F00103 		eor	r3, r3, #1
 3467 0142 DBB2     		uxtb	r3, r3
 3468              		.loc 3 252 2
 3469 0144 002B     		cmp	r3, #0
 3470 0146 11D0     		beq	.L196
 3471              		.loc 3 252 56 discriminator 1
 3472 0148 0F21     		movs	r1, #15
 3473 014a 3868     		ldr	r0, [r7]
 3474 014c FFF7FEFF 		bl	_ZNKSt5arrayI12StaticStringLj20EEixEj
 3475 0150 0346     		mov	r3, r0
 3476              		.loc 3 252 46 discriminator 1
 3477 0152 1846     		mov	r0, r3
 3478 0154 FFF7FEFF 		bl	_ZNK12StaticString5c_strEv
 3479 0158 0346     		mov	r3, r0
 3480 015a 0021     		movs	r1, #0
 3481 015c 1846     		mov	r0, r3
 3482 015e FFF7FEFF 		bl	strtof
 3483 0162 F0EE407A 		vmov.f32	s15, s0
 3484              		.loc 3 252 33 discriminator 1
 3485 0166 7B68     		ldr	r3, [r7, #4]
 3486 0168 C3ED0C7A 		vstr.32	s15, [r3, #48]
 3487              	.L196:
 253:Core/Src/NMEA_Standard.cpp **** 	if(!fields[16].empty()) hdop 		= std::strtof(fields[16].c_str(), nullptr);
 3488              		.loc 3 253 15
ARM GAS  /var/folders/bb/dhrb69655gd8t4nf464nxc_00000gn/T//ccHP6Bp0.s 			page 71


 3489 016c 1021     		movs	r1, #16
 3490 016e 3868     		ldr	r0, [r7]
 3491 0170 FFF7FEFF 		bl	_ZNKSt5arrayI12StaticStringLj20EEixEj
 3492 0174 0346     		mov	r3, r0
 3493              		.loc 3 253 22
 3494 0176 1846     		mov	r0, r3
 3495 0178 FFF7FEFF 		bl	_ZNK12StaticString5emptyEv
 3496 017c 0346     		mov	r3, r0
 3497              		.loc 3 253 5
 3498 017e 83F00103 		eor	r3, r3, #1
 3499 0182 DBB2     		uxtb	r3, r3
 3500              		.loc 3 253 2
 3501 0184 002B     		cmp	r3, #0
 3502 0186 11D0     		beq	.L197
 3503              		.loc 3 253 56 discriminator 1
 3504 0188 1021     		movs	r1, #16
 3505 018a 3868     		ldr	r0, [r7]
 3506 018c FFF7FEFF 		bl	_ZNKSt5arrayI12StaticStringLj20EEixEj
 3507 0190 0346     		mov	r3, r0
 3508              		.loc 3 253 46 discriminator 1
 3509 0192 1846     		mov	r0, r3
 3510 0194 FFF7FEFF 		bl	_ZNK12StaticString5c_strEv
 3511 0198 0346     		mov	r3, r0
 3512 019a 0021     		movs	r1, #0
 3513 019c 1846     		mov	r0, r3
 3514 019e FFF7FEFF 		bl	strtof
 3515 01a2 F0EE407A 		vmov.f32	s15, s0
 3516              		.loc 3 253 33 discriminator 1
 3517 01a6 7B68     		ldr	r3, [r7, #4]
 3518 01a8 C3ED0D7A 		vstr.32	s15, [r3, #52]
 3519              	.L197:
 254:Core/Src/NMEA_Standard.cpp **** 	if(!fields[17].empty()) vdop 		= std::strtof(fields[17].c_str(), nullptr);
 3520              		.loc 3 254 15
 3521 01ac 1121     		movs	r1, #17
 3522 01ae 3868     		ldr	r0, [r7]
 3523 01b0 FFF7FEFF 		bl	_ZNKSt5arrayI12StaticStringLj20EEixEj
 3524 01b4 0346     		mov	r3, r0
 3525              		.loc 3 254 22
 3526 01b6 1846     		mov	r0, r3
 3527 01b8 FFF7FEFF 		bl	_ZNK12StaticString5emptyEv
 3528 01bc 0346     		mov	r3, r0
 3529              		.loc 3 254 5
 3530 01be 83F00103 		eor	r3, r3, #1
 3531 01c2 DBB2     		uxtb	r3, r3
 3532              		.loc 3 254 2
 3533 01c4 002B     		cmp	r3, #0
 3534 01c6 11D0     		beq	.L198
 3535              		.loc 3 254 56 discriminator 1
 3536 01c8 1121     		movs	r1, #17
 3537 01ca 3868     		ldr	r0, [r7]
 3538 01cc FFF7FEFF 		bl	_ZNKSt5arrayI12StaticStringLj20EEixEj
 3539 01d0 0346     		mov	r3, r0
 3540              		.loc 3 254 46 discriminator 1
 3541 01d2 1846     		mov	r0, r3
 3542 01d4 FFF7FEFF 		bl	_ZNK12StaticString5c_strEv
 3543 01d8 0346     		mov	r3, r0
 3544 01da 0021     		movs	r1, #0
ARM GAS  /var/folders/bb/dhrb69655gd8t4nf464nxc_00000gn/T//ccHP6Bp0.s 			page 72


 3545 01dc 1846     		mov	r0, r3
 3546 01de FFF7FEFF 		bl	strtof
 3547 01e2 F0EE407A 		vmov.f32	s15, s0
 3548              		.loc 3 254 33 discriminator 1
 3549 01e6 7B68     		ldr	r3, [r7, #4]
 3550 01e8 C3ED0E7A 		vstr.32	s15, [r3, #56]
 3551              	.L198:
 255:Core/Src/NMEA_Standard.cpp **** 	if(!fields[18].empty()) systemId 	= std::strtoul(fields[18].c_str(), nullptr, 16);
 3552              		.loc 3 255 15
 3553 01ec 1221     		movs	r1, #18
 3554 01ee 3868     		ldr	r0, [r7]
 3555 01f0 FFF7FEFF 		bl	_ZNKSt5arrayI12StaticStringLj20EEixEj
 3556 01f4 0346     		mov	r3, r0
 3557              		.loc 3 255 22
 3558 01f6 1846     		mov	r0, r3
 3559 01f8 FFF7FEFF 		bl	_ZNK12StaticString5emptyEv
 3560 01fc 0346     		mov	r3, r0
 3561              		.loc 3 255 5
 3562 01fe 83F00103 		eor	r3, r3, #1
 3563 0202 DBB2     		uxtb	r3, r3
 3564              		.loc 3 255 2
 3565 0204 002B     		cmp	r3, #0
 3566 0206 12D0     		beq	.L199
 3567              		.loc 3 255 60 discriminator 1
 3568 0208 1221     		movs	r1, #18
 3569 020a 3868     		ldr	r0, [r7]
 3570 020c FFF7FEFF 		bl	_ZNKSt5arrayI12StaticStringLj20EEixEj
 3571 0210 0346     		mov	r3, r0
 3572              		.loc 3 255 50 discriminator 1
 3573 0212 1846     		mov	r0, r3
 3574 0214 FFF7FEFF 		bl	_ZNK12StaticString5c_strEv
 3575 0218 0346     		mov	r3, r0
 3576 021a 1022     		movs	r2, #16
 3577 021c 0021     		movs	r1, #0
 3578 021e 1846     		mov	r0, r3
 3579 0220 FFF7FEFF 		bl	strtoul
 3580 0224 0346     		mov	r3, r0
 3581              		.loc 3 255 36 discriminator 1
 3582 0226 DAB2     		uxtb	r2, r3
 3583 0228 7B68     		ldr	r3, [r7, #4]
 3584 022a 83F83C20 		strb	r2, [r3, #60]
 3585              	.L199:
 256:Core/Src/NMEA_Standard.cpp **** 							cs 			= fields[19];
 3586              		.loc 3 256 25
 3587 022e 1321     		movs	r1, #19
 3588 0230 3868     		ldr	r0, [r7]
 3589 0232 FFF7FEFF 		bl	_ZNKSt5arrayI12StaticStringLj20EEixEj
 3590 0236 0246     		mov	r2, r0
 3591              		.loc 3 256 14
 3592 0238 07F11803 		add	r3, r7, #24
 3593 023c 1146     		mov	r1, r2
 3594 023e 1846     		mov	r0, r3
 3595 0240 FFF7FEFF 		bl	_ZN13NMEA_Standard8ChecksumC1ERK12StaticString
 3596 0244 7B68     		ldr	r3, [r7, #4]
 3597 0246 3A7E     		ldrb	r2, [r7, #24]
 3598 0248 5A71     		strb	r2, [r3, #5]
 3599              	.LBE24:
ARM GAS  /var/folders/bb/dhrb69655gd8t4nf464nxc_00000gn/T//ccHP6Bp0.s 			page 73


 3600              	.LBE23:
 257:Core/Src/NMEA_Standard.cpp **** }
 3601              		.loc 3 257 1
 3602 024a 7B68     		ldr	r3, [r7, #4]
 3603 024c 1846     		mov	r0, r3
 3604 024e 2437     		adds	r7, r7, #36
 3605              		.cfi_def_cfa_offset 12
 3606 0250 BD46     		mov	sp, r7
 3607              		.cfi_def_cfa_register 13
 3608              		@ sp needed
 3609 0252 90BD     		pop	{r4, r7, pc}
 3610              	.L202:
 3611              		.align	2
 3612              	.L201:
 3613 0254 08000000 		.word	_ZTVN13NMEA_Standard3GSAE+8
 3614              		.cfi_endproc
 3615              	.LFE988:
 3616              		.cantunwind
 3617              		.fnend
 3619              		.global	_ZN13NMEA_Standard3GSAC1ERKSt5arrayI12StaticStringLj20EE
 3620              		.thumb_set _ZN13NMEA_Standard3GSAC1ERKSt5arrayI12StaticStringLj20EE,_ZN13NMEA_Standard3GSAC2ERKSt5
 3621              		.section	.text._ZN13NMEA_Standard3GSAC2ERK12StaticString,"ax",%progbits
 3622              		.align	1
 3623              		.global	_ZN13NMEA_Standard3GSAC2ERK12StaticString
 3624              		.syntax unified
 3625              		.thumb
 3626              		.thumb_func
 3628              	_ZN13NMEA_Standard3GSAC2ERK12StaticString:
 3629              		.fnstart
 3630              	.LFB991:
 258:Core/Src/NMEA_Standard.cpp **** 
 259:Core/Src/NMEA_Standard.cpp **** NMEA_Standard::GSA::GSA(const string & nmea) :
 3631              		.loc 3 259 1
 3632              		.cfi_startproc
 3633              		@ args = 0, pretend = 0, frame = 168
 3634              		@ frame_needed = 1, uses_anonymous_args = 0
 3635 0000 80B5     		push	{r7, lr}
 3636              		.save {r7, lr}
 3637              		.cfi_def_cfa_offset 8
 3638              		.cfi_offset 7, -8
 3639              		.cfi_offset 14, -4
 3640              		.pad #168
 3641 0002 AAB0     		sub	sp, sp, #168
 3642              		.cfi_def_cfa_offset 176
 3643              		.setfp r7, sp, #0
 3644 0004 00AF     		add	r7, sp, #0
 3645              		.cfi_def_cfa_register 7
 3646 0006 7860     		str	r0, [r7, #4]
 3647 0008 3960     		str	r1, [r7]
 3648              	.LBB26:
 260:Core/Src/NMEA_Standard.cpp **** 	GSA(parseFields<20>(nmea)){}
 3649              		.loc 3 260 26
 3650 000a 07F10803 		add	r3, r7, #8
 3651 000e 3968     		ldr	r1, [r7]
 3652 0010 1846     		mov	r0, r3
 3653 0012 FFF7FEFF 		bl	_ZN13NMEA_Standard11parseFieldsILj20EEESt5arrayI12StaticStringXT_EERKS2_
 3654              		.loc 3 260 27
ARM GAS  /var/folders/bb/dhrb69655gd8t4nf464nxc_00000gn/T//ccHP6Bp0.s 			page 74


 3655 0016 07F10803 		add	r3, r7, #8
 3656 001a 1946     		mov	r1, r3
 3657 001c 7868     		ldr	r0, [r7, #4]
 3658 001e FFF7FEFF 		bl	_ZN13NMEA_Standard3GSAC1ERKSt5arrayI12StaticStringLj20EE
 3659              	.LBE26:
 3660              		.loc 3 260 29
 3661 0022 7B68     		ldr	r3, [r7, #4]
 3662 0024 1846     		mov	r0, r3
 3663 0026 A837     		adds	r7, r7, #168
 3664              		.cfi_def_cfa_offset 8
 3665 0028 BD46     		mov	sp, r7
 3666              		.cfi_def_cfa_register 13
 3667              		@ sp needed
 3668 002a 80BD     		pop	{r7, pc}
 3669              		.cfi_endproc
 3670              	.LFE991:
 3671              		.fnend
 3673              		.global	_ZN13NMEA_Standard3GSAC1ERK12StaticString
 3674              		.thumb_set _ZN13NMEA_Standard3GSAC1ERK12StaticString,_ZN13NMEA_Standard3GSAC2ERK12StaticString
 3675              		.section	.text._ZN13NMEA_Standard3ZDAC2ERKSt5arrayI12StaticStringLj9EE,"ax",%progbits
 3676              		.align	1
 3677              		.global	_ZN13NMEA_Standard3ZDAC2ERKSt5arrayI12StaticStringLj9EE
 3678              		.syntax unified
 3679              		.thumb
 3680              		.thumb_func
 3682              	_ZN13NMEA_Standard3ZDAC2ERKSt5arrayI12StaticStringLj9EE:
 3683              		.fnstart
 3684              	.LFB994:
 261:Core/Src/NMEA_Standard.cpp **** 
 262:Core/Src/NMEA_Standard.cpp **** /* NMEA ZDA Message */
 263:Core/Src/NMEA_Standard.cpp **** 
 264:Core/Src/NMEA_Standard.cpp **** 
 265:Core/Src/NMEA_Standard.cpp **** NMEA_Standard::ZDA::ZDA(const std::array<StaticString, 9> & fields){
 3685              		.loc 3 265 1
 3686              		.cfi_startproc
 3687              		@ args = 0, pretend = 0, frame = 48
 3688              		@ frame_needed = 1, uses_anonymous_args = 0
 3689 0000 2DE9F043 		push	{r4, r5, r6, r7, r8, r9, lr}
 3690              		.cfi_def_cfa_offset 28
 3691              		.cfi_offset 4, -28
 3692              		.cfi_offset 5, -24
 3693              		.cfi_offset 6, -20
 3694              		.cfi_offset 7, -16
 3695              		.cfi_offset 8, -12
 3696              		.cfi_offset 9, -8
 3697              		.cfi_offset 14, -4
 3698 0004 91B0     		sub	sp, sp, #68
 3699              		.cfi_def_cfa_offset 96
 3700 0006 04AF     		add	r7, sp, #16
 3701              		.cfi_def_cfa 7, 80
 3702 0008 7860     		str	r0, [r7, #4]
 3703 000a 3960     		str	r1, [r7]
 3704              	.LBB27:
 3705              		.loc 3 265 67
 3706 000c 7B68     		ldr	r3, [r7, #4]
 3707 000e 1846     		mov	r0, r3
 3708 0010 FFF7FEFF 		bl	_ZN13NMEA_StandardC2Ev
ARM GAS  /var/folders/bb/dhrb69655gd8t4nf464nxc_00000gn/T//ccHP6Bp0.s 			page 75


 3709 0014 4D4A     		ldr	r2, .L207
 3710 0016 7B68     		ldr	r3, [r7, #4]
 3711 0018 1A60     		str	r2, [r3]
 3712 001a 7B68     		ldr	r3, [r7, #4]
 3713 001c 1033     		adds	r3, r3, #16
 3714 001e 1846     		mov	r0, r3
 3715 0020 FFF7FEFF 		bl	_ZN13NMEA_Standard7AddressC1Ev
 266:Core/Src/NMEA_Standard.cpp **** 	addr		= fields[0];
 3716              		.loc 3 266 18
 3717 0024 7B68     		ldr	r3, [r7, #4]
 3718 0026 03F11004 		add	r4, r3, #16
 3719 002a 0021     		movs	r1, #0
 3720 002c 3868     		ldr	r0, [r7]
 3721 002e FFF7FEFF 		bl	_ZNKSt5arrayI12StaticStringLj9EEixEj
 3722 0032 0246     		mov	r2, r0
 3723 0034 07F10C03 		add	r3, r7, #12
 3724 0038 1146     		mov	r1, r2
 3725 003a 1846     		mov	r0, r3
 3726 003c FFF7FEFF 		bl	_ZN13NMEA_Standard7AddressC1ERK12StaticString
 3727 0040 07F10C03 		add	r3, r7, #12
 3728 0044 1946     		mov	r1, r3
 3729 0046 2046     		mov	r0, r4
 3730 0048 FFF7FEFF 		bl	_ZN13NMEA_Standard7AddressaSEOS0_
 267:Core/Src/NMEA_Standard.cpp **** 	time		= UTC_DateTime(
 268:Core/Src/NMEA_Standard.cpp **** 					fields[1],
 3731              		.loc 3 268 14
 3732 004c 0121     		movs	r1, #1
 3733 004e 3868     		ldr	r0, [r7]
 3734 0050 FFF7FEFF 		bl	_ZNKSt5arrayI12StaticStringLj9EEixEj
 3735 0054 8146     		mov	r9, r0
 269:Core/Src/NMEA_Standard.cpp **** 					std::strtoul(fields[2].c_str(), nullptr, 10), std::strtoul(fields[3].c_str(), nullptr, 10), st
 3736              		.loc 3 269 27
 3737 0056 0221     		movs	r1, #2
 3738 0058 3868     		ldr	r0, [r7]
 3739 005a FFF7FEFF 		bl	_ZNKSt5arrayI12StaticStringLj9EEixEj
 3740 005e 0346     		mov	r3, r0
 3741              		.loc 3 269 18
 3742 0060 1846     		mov	r0, r3
 3743 0062 FFF7FEFF 		bl	_ZNK12StaticString5c_strEv
 3744 0066 0346     		mov	r3, r0
 3745 0068 0A22     		movs	r2, #10
 3746 006a 0021     		movs	r1, #0
 3747 006c 1846     		mov	r0, r3
 3748 006e FFF7FEFF 		bl	strtoul
 3749 0072 0346     		mov	r3, r0
 267:Core/Src/NMEA_Standard.cpp **** 	time		= UTC_DateTime(
 3750              		.loc 3 267 10
 3751 0074 DEB2     		uxtb	r6, r3
 3752              		.loc 3 269 73
 3753 0076 0321     		movs	r1, #3
 3754 0078 3868     		ldr	r0, [r7]
 3755 007a FFF7FEFF 		bl	_ZNKSt5arrayI12StaticStringLj9EEixEj
 3756 007e 0346     		mov	r3, r0
 3757              		.loc 3 269 64
 3758 0080 1846     		mov	r0, r3
 3759 0082 FFF7FEFF 		bl	_ZNK12StaticString5c_strEv
 3760 0086 0346     		mov	r3, r0
ARM GAS  /var/folders/bb/dhrb69655gd8t4nf464nxc_00000gn/T//ccHP6Bp0.s 			page 76


 3761 0088 0A22     		movs	r2, #10
 3762 008a 0021     		movs	r1, #0
 3763 008c 1846     		mov	r0, r3
 3764 008e FFF7FEFF 		bl	strtoul
 3765 0092 0346     		mov	r3, r0
 267:Core/Src/NMEA_Standard.cpp **** 	time		= UTC_DateTime(
 3766              		.loc 3 267 10
 3767 0094 5FFA83F8 		uxtb	r8, r3
 3768              		.loc 3 269 119
 3769 0098 0421     		movs	r1, #4
 3770 009a 3868     		ldr	r0, [r7]
 3771 009c FFF7FEFF 		bl	_ZNKSt5arrayI12StaticStringLj9EEixEj
 3772 00a0 0346     		mov	r3, r0
 3773              		.loc 3 269 110
 3774 00a2 1846     		mov	r0, r3
 3775 00a4 FFF7FEFF 		bl	_ZNK12StaticString5c_strEv
 3776 00a8 0346     		mov	r3, r0
 3777 00aa 0A22     		movs	r2, #10
 3778 00ac 0021     		movs	r1, #0
 3779 00ae 1846     		mov	r0, r3
 3780 00b0 FFF7FEFF 		bl	strtoul
 3781 00b4 0346     		mov	r3, r0
 267:Core/Src/NMEA_Standard.cpp **** 	time		= UTC_DateTime(
 3782              		.loc 3 267 10
 3783 00b6 9CB2     		uxth	r4, r3
 270:Core/Src/NMEA_Standard.cpp **** 					std::strtoul(fields[5].c_str(), nullptr, 10), std::strtoul(fields[6].c_str(), nullptr, 10) );
 3784              		.loc 3 270 27
 3785 00b8 0521     		movs	r1, #5
 3786 00ba 3868     		ldr	r0, [r7]
 3787 00bc FFF7FEFF 		bl	_ZNKSt5arrayI12StaticStringLj9EEixEj
 3788 00c0 0346     		mov	r3, r0
 3789              		.loc 3 270 18
 3790 00c2 1846     		mov	r0, r3
 3791 00c4 FFF7FEFF 		bl	_ZNK12StaticString5c_strEv
 3792 00c8 0346     		mov	r3, r0
 3793 00ca 0A22     		movs	r2, #10
 3794 00cc 0021     		movs	r1, #0
 3795 00ce 1846     		mov	r0, r3
 3796 00d0 FFF7FEFF 		bl	strtoul
 3797 00d4 0346     		mov	r3, r0
 267:Core/Src/NMEA_Standard.cpp **** 	time		= UTC_DateTime(
 3798              		.loc 3 267 10
 3799 00d6 DDB2     		uxtb	r5, r3
 3800              		.loc 3 270 73
 3801 00d8 0621     		movs	r1, #6
 3802 00da 3868     		ldr	r0, [r7]
 3803 00dc FFF7FEFF 		bl	_ZNKSt5arrayI12StaticStringLj9EEixEj
 3804 00e0 0346     		mov	r3, r0
 3805              		.loc 3 270 64
 3806 00e2 1846     		mov	r0, r3
 3807 00e4 FFF7FEFF 		bl	_ZNK12StaticString5c_strEv
 3808 00e8 0346     		mov	r3, r0
 3809 00ea 0A22     		movs	r2, #10
 3810 00ec 0021     		movs	r1, #0
 3811 00ee 1846     		mov	r0, r3
 3812 00f0 FFF7FEFF 		bl	strtoul
 3813 00f4 0346     		mov	r3, r0
ARM GAS  /var/folders/bb/dhrb69655gd8t4nf464nxc_00000gn/T//ccHP6Bp0.s 			page 77


 267:Core/Src/NMEA_Standard.cpp **** 	time		= UTC_DateTime(
 3814              		.loc 3 267 10
 3815 00f6 DBB2     		uxtb	r3, r3
 3816 00f8 07F11C00 		add	r0, r7, #28
 3817 00fc 0293     		str	r3, [sp, #8]
 3818 00fe 0195     		str	r5, [sp, #4]
 3819 0100 0094     		str	r4, [sp]
 3820 0102 4346     		mov	r3, r8
 3821 0104 3246     		mov	r2, r6
 3822 0106 4946     		mov	r1, r9
 3823 0108 FFF7FEFF 		bl	_ZN13NMEA_Standard3ZDA12UTC_DateTimeC1ERK12StaticStringhhthh
 267:Core/Src/NMEA_Standard.cpp **** 	time		= UTC_DateTime(
 3824              		.loc 3 267 8
 3825 010c 7B68     		ldr	r3, [r7, #4]
 3826 010e 03F12004 		add	r4, r3, #32
 3827 0112 07F11C03 		add	r3, r7, #28
 3828 0116 07CB     		ldmia	r3!, {r0, r1, r2}
 3829 0118 2060     		str	r0, [r4]	@ unaligned
 3830 011a 6160     		str	r1, [r4, #4]	@ unaligned
 3831 011c A260     		str	r2, [r4, #8]	@ unaligned
 3832 011e 1B88     		ldrh	r3, [r3]	@ unaligned
 3833 0120 A381     		strh	r3, [r4, #12]	@ unaligned
 271:Core/Src/NMEA_Standard.cpp **** 	cs			= fields[7];
 3834              		.loc 3 271 17
 3835 0122 0721     		movs	r1, #7
 3836 0124 3868     		ldr	r0, [r7]
 3837 0126 FFF7FEFF 		bl	_ZNKSt5arrayI12StaticStringLj9EEixEj
 3838 012a 0246     		mov	r2, r0
 3839              		.loc 3 271 7
 3840 012c 07F12C03 		add	r3, r7, #44
 3841 0130 1146     		mov	r1, r2
 3842 0132 1846     		mov	r0, r3
 3843 0134 FFF7FEFF 		bl	_ZN13NMEA_Standard8ChecksumC1ERK12StaticString
 3844 0138 7B68     		ldr	r3, [r7, #4]
 3845 013a 97F82C20 		ldrb	r2, [r7, #44]
 3846 013e 5A71     		strb	r2, [r3, #5]
 3847              	.LBE27:
 272:Core/Src/NMEA_Standard.cpp **** }
 3848              		.loc 3 272 1
 3849 0140 7B68     		ldr	r3, [r7, #4]
 3850 0142 1846     		mov	r0, r3
 3851 0144 3437     		adds	r7, r7, #52
 3852              		.cfi_def_cfa_offset 28
 3853 0146 BD46     		mov	sp, r7
 3854              		.cfi_def_cfa_register 13
 3855              		@ sp needed
 3856 0148 BDE8F083 		pop	{r4, r5, r6, r7, r8, r9, pc}
 3857              	.L208:
 3858              		.align	2
 3859              	.L207:
 3860 014c 08000000 		.word	_ZTVN13NMEA_Standard3ZDAE+8
 3861              		.cfi_endproc
 3862              	.LFE994:
 3863              		.cantunwind
 3864              		.fnend
 3866              		.global	_ZN13NMEA_Standard3ZDAC1ERKSt5arrayI12StaticStringLj9EE
 3867              		.thumb_set _ZN13NMEA_Standard3ZDAC1ERKSt5arrayI12StaticStringLj9EE,_ZN13NMEA_Standard3ZDAC2ERKSt5a
ARM GAS  /var/folders/bb/dhrb69655gd8t4nf464nxc_00000gn/T//ccHP6Bp0.s 			page 78


 3868              		.section	.text._ZN13NMEA_Standard3ZDAC2ERK12StaticString,"ax",%progbits
 3869              		.align	1
 3870              		.global	_ZN13NMEA_Standard3ZDAC2ERK12StaticString
 3871              		.syntax unified
 3872              		.thumb
 3873              		.thumb_func
 3875              	_ZN13NMEA_Standard3ZDAC2ERK12StaticString:
 3876              		.fnstart
 3877              	.LFB997:
 273:Core/Src/NMEA_Standard.cpp **** 
 274:Core/Src/NMEA_Standard.cpp **** NMEA_Standard::ZDA::ZDA(const string & nmea) :
 3878              		.loc 3 274 1
 3879              		.cfi_startproc
 3880              		@ args = 0, pretend = 0, frame = 80
 3881              		@ frame_needed = 1, uses_anonymous_args = 0
 3882 0000 80B5     		push	{r7, lr}
 3883              		.save {r7, lr}
 3884              		.cfi_def_cfa_offset 8
 3885              		.cfi_offset 7, -8
 3886              		.cfi_offset 14, -4
 3887              		.pad #80
 3888 0002 94B0     		sub	sp, sp, #80
 3889              		.cfi_def_cfa_offset 88
 3890              		.setfp r7, sp, #0
 3891 0004 00AF     		add	r7, sp, #0
 3892              		.cfi_def_cfa_register 7
 3893 0006 7860     		str	r0, [r7, #4]
 3894 0008 3960     		str	r1, [r7]
 3895              	.LBB28:
 275:Core/Src/NMEA_Standard.cpp **** 	ZDA(parseFields<9>(nmea)){}
 3896              		.loc 3 275 25
 3897 000a 07F10803 		add	r3, r7, #8
 3898 000e 3968     		ldr	r1, [r7]
 3899 0010 1846     		mov	r0, r3
 3900 0012 FFF7FEFF 		bl	_ZN13NMEA_Standard11parseFieldsILj9EEESt5arrayI12StaticStringXT_EERKS2_
 3901              		.loc 3 275 26
 3902 0016 07F10803 		add	r3, r7, #8
 3903 001a 1946     		mov	r1, r3
 3904 001c 7868     		ldr	r0, [r7, #4]
 3905 001e FFF7FEFF 		bl	_ZN13NMEA_Standard3ZDAC1ERKSt5arrayI12StaticStringLj9EE
 3906              	.LBE28:
 3907              		.loc 3 275 28
 3908 0022 7B68     		ldr	r3, [r7, #4]
 3909 0024 1846     		mov	r0, r3
 3910 0026 5037     		adds	r7, r7, #80
 3911              		.cfi_def_cfa_offset 8
 3912 0028 BD46     		mov	sp, r7
 3913              		.cfi_def_cfa_register 13
 3914              		@ sp needed
 3915 002a 80BD     		pop	{r7, pc}
 3916              		.cfi_endproc
 3917              	.LFE997:
 3918              		.fnend
 3920              		.global	_ZN13NMEA_Standard3ZDAC1ERK12StaticString
 3921              		.thumb_set _ZN13NMEA_Standard3ZDAC1ERK12StaticString,_ZN13NMEA_Standard3ZDAC2ERK12StaticString
 3922              		.section	.text._ZN13NMEA_Standard3ZDA12UTC_DateTimeC2ERK12StaticStringhhthh,"ax",%progbits
 3923              		.align	1
ARM GAS  /var/folders/bb/dhrb69655gd8t4nf464nxc_00000gn/T//ccHP6Bp0.s 			page 79


 3924              		.global	_ZN13NMEA_Standard3ZDA12UTC_DateTimeC2ERK12StaticStringhhthh
 3925              		.syntax unified
 3926              		.thumb
 3927              		.thumb_func
 3929              	_ZN13NMEA_Standard3ZDA12UTC_DateTimeC2ERK12StaticStringhhthh:
 3930              		.fnstart
 3931              	.LFB1000:
 276:Core/Src/NMEA_Standard.cpp **** 
 277:Core/Src/NMEA_Standard.cpp **** NMEA_Standard::ZDA::UTC_DateTime::UTC_DateTime(const string & time, 
 3932              		.loc 3 277 1
 3933              		.cfi_startproc
 3934              		@ args = 12, pretend = 0, frame = 16
 3935              		@ frame_needed = 1, uses_anonymous_args = 0
 3936 0000 80B5     		push	{r7, lr}
 3937              		.cfi_def_cfa_offset 8
 3938              		.cfi_offset 7, -8
 3939              		.cfi_offset 14, -4
 3940 0002 84B0     		sub	sp, sp, #16
 3941              		.cfi_def_cfa_offset 24
 3942 0004 00AF     		add	r7, sp, #0
 3943              		.cfi_def_cfa_register 7
 3944 0006 F860     		str	r0, [r7, #12]
 3945 0008 B960     		str	r1, [r7, #8]
 3946 000a 1146     		mov	r1, r2
 3947 000c 1A46     		mov	r2, r3
 3948 000e 0B46     		mov	r3, r1
 3949 0010 FB71     		strb	r3, [r7, #7]
 3950 0012 1346     		mov	r3, r2
 3951 0014 BB71     		strb	r3, [r7, #6]
 3952              	.LBB29:
 278:Core/Src/NMEA_Standard.cpp **** 				uint8_t day, uint8_t month, uint16_t year, 
 279:Core/Src/NMEA_Standard.cpp **** 				uint8_t ltzh, uint8_t ltzm) :
 280:Core/Src/NMEA_Standard.cpp **** 	UTC_Time(time), 
 281:Core/Src/NMEA_Standard.cpp **** 	day(day), month(month), year(year),
 282:Core/Src/NMEA_Standard.cpp **** 	ltzh(ltzh), ltzm(ltzm) {}
 3953              		.loc 3 282 23
 3954 0016 FB68     		ldr	r3, [r7, #12]
 3955 0018 B968     		ldr	r1, [r7, #8]
 3956 001a 1846     		mov	r0, r3
 3957 001c FFF7FEFF 		bl	_ZN13NMEA_Standard8UTC_TimeC2ERK12StaticString
 3958 0020 FB68     		ldr	r3, [r7, #12]
 3959 0022 FA79     		ldrb	r2, [r7, #7]
 3960 0024 1A72     		strb	r2, [r3, #8]
 3961 0026 FB68     		ldr	r3, [r7, #12]
 3962 0028 BA79     		ldrb	r2, [r7, #6]
 3963 002a 5A72     		strb	r2, [r3, #9]
 3964 002c FB68     		ldr	r3, [r7, #12]
 3965 002e 3A8B     		ldrh	r2, [r7, #24]	@ movhi
 3966 0030 5A81     		strh	r2, [r3, #10]	@ movhi
 3967 0032 FB68     		ldr	r3, [r7, #12]
 3968 0034 3A7F     		ldrb	r2, [r7, #28]
 3969 0036 1A73     		strb	r2, [r3, #12]
 3970 0038 FB68     		ldr	r3, [r7, #12]
 3971 003a 97F82020 		ldrb	r2, [r7, #32]
 3972 003e 5A73     		strb	r2, [r3, #13]
 3973              	.LBE29:
 3974              		.loc 3 282 26
ARM GAS  /var/folders/bb/dhrb69655gd8t4nf464nxc_00000gn/T//ccHP6Bp0.s 			page 80


 3975 0040 FB68     		ldr	r3, [r7, #12]
 3976 0042 1846     		mov	r0, r3
 3977 0044 1037     		adds	r7, r7, #16
 3978              		.cfi_def_cfa_offset 8
 3979 0046 BD46     		mov	sp, r7
 3980              		.cfi_def_cfa_register 13
 3981              		@ sp needed
 3982 0048 80BD     		pop	{r7, pc}
 3983              		.cfi_endproc
 3984              	.LFE1000:
 3985              		.cantunwind
 3986              		.fnend
 3988              		.global	_ZN13NMEA_Standard3ZDA12UTC_DateTimeC1ERK12StaticStringhhthh
 3989              		.thumb_set _ZN13NMEA_Standard3ZDA12UTC_DateTimeC1ERK12StaticStringhhthh,_ZN13NMEA_Standard3ZDA12UT
 3990              		.section	.text._ZN12StaticStringC2IKcEEPT_j,"axG",%progbits,_ZN12StaticStringC5IKcEEPT_j,comdat
 3991              		.align	1
 3992              		.weak	_ZN12StaticStringC2IKcEEPT_j
 3993              		.syntax unified
 3994              		.thumb
 3995              		.thumb_func
 3997              	_ZN12StaticStringC2IKcEEPT_j:
 3998              		.fnstart
 3999              	.LFB1003:
  36:Core/Inc/StaticString.hpp **** 
 4000              		.loc 1 36 2
 4001              		.cfi_startproc
 4002              		@ args = 0, pretend = 0, frame = 16
 4003              		@ frame_needed = 1, uses_anonymous_args = 0
 4004              		@ link register save eliminated.
 4005 0000 80B4     		push	{r7}
 4006              		.cfi_def_cfa_offset 4
 4007              		.cfi_offset 7, -4
 4008 0002 85B0     		sub	sp, sp, #20
 4009              		.cfi_def_cfa_offset 24
 4010 0004 00AF     		add	r7, sp, #0
 4011              		.cfi_def_cfa_register 7
 4012 0006 F860     		str	r0, [r7, #12]
 4013 0008 B960     		str	r1, [r7, #8]
 4014 000a 7A60     		str	r2, [r7, #4]
 4015              	.LBB30:
  36:Core/Inc/StaticString.hpp **** 
 4016              		.loc 1 36 55
 4017 000c FB68     		ldr	r3, [r7, #12]
 4018 000e BA68     		ldr	r2, [r7, #8]
 4019 0010 1A60     		str	r2, [r3]
 4020 0012 FB68     		ldr	r3, [r7, #12]
 4021 0014 7A68     		ldr	r2, [r7, #4]
 4022 0016 5A60     		str	r2, [r3, #4]
 4023              	.LBE30:
  36:Core/Inc/StaticString.hpp **** 
 4024              		.loc 1 36 57
 4025 0018 FB68     		ldr	r3, [r7, #12]
 4026 001a 1846     		mov	r0, r3
 4027 001c 1437     		adds	r7, r7, #20
 4028              		.cfi_def_cfa_offset 4
 4029 001e BD46     		mov	sp, r7
 4030              		.cfi_def_cfa_register 13
ARM GAS  /var/folders/bb/dhrb69655gd8t4nf464nxc_00000gn/T//ccHP6Bp0.s 			page 81


 4031              		@ sp needed
 4032 0020 5DF8047B 		ldr	r7, [sp], #4
 4033              		.cfi_restore 7
 4034              		.cfi_def_cfa_offset 0
 4035 0024 7047     		bx	lr
 4036              		.cfi_endproc
 4037              	.LFE1003:
 4038              		.cantunwind
 4039              		.fnend
 4041              		.weak	_ZN12StaticStringC1IKcEEPT_j
 4042              		.thumb_set _ZN12StaticStringC1IKcEEPT_j,_ZN12StaticStringC2IKcEEPT_j
 4043              		.section	.text._ZNKSt5arrayI12StaticStringLj15EEixEj,"axG",%progbits,_ZNKSt5arrayI12StaticStringLj
 4044              		.align	1
 4045              		.weak	_ZNKSt5arrayI12StaticStringLj15EEixEj
 4046              		.syntax unified
 4047              		.thumb
 4048              		.thumb_func
 4050              	_ZNKSt5arrayI12StaticStringLj15EEixEj:
 4051              		.fnstart
 4052              	.LFB1005:
 4053              		.file 4 "/Users/lawrencestanton/Library/Application Support/Code/User/globalStorage/bmd.stm32-for-
   1:/Users/lawrencestanton/Library/Application Support/Code/User/globalStorage/bmd.stm32-for-vscode/@xpack-dev-tools/arm-none-eabi-gcc/10.3.1-2.3.1/.content/arm-none-eabi/include/c++/10.3.1/array **** // <array> -*- C++ -*-
   2:/Users/lawrencestanton/Library/Application Support/Code/User/globalStorage/bmd.stm32-for-vscode/@xpack-dev-tools/arm-none-eabi-gcc/10.3.1-2.3.1/.content/arm-none-eabi/include/c++/10.3.1/array **** 
   3:/Users/lawrencestanton/Library/Application Support/Code/User/globalStorage/bmd.stm32-for-vscode/@xpack-dev-tools/arm-none-eabi-gcc/10.3.1-2.3.1/.content/arm-none-eabi/include/c++/10.3.1/array **** // Copyright (C) 2007-2020 Free Software Foundation, Inc.
   4:/Users/lawrencestanton/Library/Application Support/Code/User/globalStorage/bmd.stm32-for-vscode/@xpack-dev-tools/arm-none-eabi-gcc/10.3.1-2.3.1/.content/arm-none-eabi/include/c++/10.3.1/array **** //
   5:/Users/lawrencestanton/Library/Application Support/Code/User/globalStorage/bmd.stm32-for-vscode/@xpack-dev-tools/arm-none-eabi-gcc/10.3.1-2.3.1/.content/arm-none-eabi/include/c++/10.3.1/array **** // This file is part of the GNU ISO C++ Library.  This library is free
   6:/Users/lawrencestanton/Library/Application Support/Code/User/globalStorage/bmd.stm32-for-vscode/@xpack-dev-tools/arm-none-eabi-gcc/10.3.1-2.3.1/.content/arm-none-eabi/include/c++/10.3.1/array **** // software; you can redistribute it and/or modify it under the
   7:/Users/lawrencestanton/Library/Application Support/Code/User/globalStorage/bmd.stm32-for-vscode/@xpack-dev-tools/arm-none-eabi-gcc/10.3.1-2.3.1/.content/arm-none-eabi/include/c++/10.3.1/array **** // terms of the GNU General Public License as published by the
   8:/Users/lawrencestanton/Library/Application Support/Code/User/globalStorage/bmd.stm32-for-vscode/@xpack-dev-tools/arm-none-eabi-gcc/10.3.1-2.3.1/.content/arm-none-eabi/include/c++/10.3.1/array **** // Free Software Foundation; either version 3, or (at your option)
   9:/Users/lawrencestanton/Library/Application Support/Code/User/globalStorage/bmd.stm32-for-vscode/@xpack-dev-tools/arm-none-eabi-gcc/10.3.1-2.3.1/.content/arm-none-eabi/include/c++/10.3.1/array **** // any later version.
  10:/Users/lawrencestanton/Library/Application Support/Code/User/globalStorage/bmd.stm32-for-vscode/@xpack-dev-tools/arm-none-eabi-gcc/10.3.1-2.3.1/.content/arm-none-eabi/include/c++/10.3.1/array **** 
  11:/Users/lawrencestanton/Library/Application Support/Code/User/globalStorage/bmd.stm32-for-vscode/@xpack-dev-tools/arm-none-eabi-gcc/10.3.1-2.3.1/.content/arm-none-eabi/include/c++/10.3.1/array **** // This library is distributed in the hope that it will be useful,
  12:/Users/lawrencestanton/Library/Application Support/Code/User/globalStorage/bmd.stm32-for-vscode/@xpack-dev-tools/arm-none-eabi-gcc/10.3.1-2.3.1/.content/arm-none-eabi/include/c++/10.3.1/array **** // but WITHOUT ANY WARRANTY; without even the implied warranty of
  13:/Users/lawrencestanton/Library/Application Support/Code/User/globalStorage/bmd.stm32-for-vscode/@xpack-dev-tools/arm-none-eabi-gcc/10.3.1-2.3.1/.content/arm-none-eabi/include/c++/10.3.1/array **** // MERCHANTABILITY or FITNESS FOR A PARTICULAR PURPOSE.  See the
  14:/Users/lawrencestanton/Library/Application Support/Code/User/globalStorage/bmd.stm32-for-vscode/@xpack-dev-tools/arm-none-eabi-gcc/10.3.1-2.3.1/.content/arm-none-eabi/include/c++/10.3.1/array **** // GNU General Public License for more details.
  15:/Users/lawrencestanton/Library/Application Support/Code/User/globalStorage/bmd.stm32-for-vscode/@xpack-dev-tools/arm-none-eabi-gcc/10.3.1-2.3.1/.content/arm-none-eabi/include/c++/10.3.1/array **** 
  16:/Users/lawrencestanton/Library/Application Support/Code/User/globalStorage/bmd.stm32-for-vscode/@xpack-dev-tools/arm-none-eabi-gcc/10.3.1-2.3.1/.content/arm-none-eabi/include/c++/10.3.1/array **** // Under Section 7 of GPL version 3, you are granted additional
  17:/Users/lawrencestanton/Library/Application Support/Code/User/globalStorage/bmd.stm32-for-vscode/@xpack-dev-tools/arm-none-eabi-gcc/10.3.1-2.3.1/.content/arm-none-eabi/include/c++/10.3.1/array **** // permissions described in the GCC Runtime Library Exception, version
  18:/Users/lawrencestanton/Library/Application Support/Code/User/globalStorage/bmd.stm32-for-vscode/@xpack-dev-tools/arm-none-eabi-gcc/10.3.1-2.3.1/.content/arm-none-eabi/include/c++/10.3.1/array **** // 3.1, as published by the Free Software Foundation.
  19:/Users/lawrencestanton/Library/Application Support/Code/User/globalStorage/bmd.stm32-for-vscode/@xpack-dev-tools/arm-none-eabi-gcc/10.3.1-2.3.1/.content/arm-none-eabi/include/c++/10.3.1/array **** 
  20:/Users/lawrencestanton/Library/Application Support/Code/User/globalStorage/bmd.stm32-for-vscode/@xpack-dev-tools/arm-none-eabi-gcc/10.3.1-2.3.1/.content/arm-none-eabi/include/c++/10.3.1/array **** // You should have received a copy of the GNU General Public License and
  21:/Users/lawrencestanton/Library/Application Support/Code/User/globalStorage/bmd.stm32-for-vscode/@xpack-dev-tools/arm-none-eabi-gcc/10.3.1-2.3.1/.content/arm-none-eabi/include/c++/10.3.1/array **** // a copy of the GCC Runtime Library Exception along with this program;
  22:/Users/lawrencestanton/Library/Application Support/Code/User/globalStorage/bmd.stm32-for-vscode/@xpack-dev-tools/arm-none-eabi-gcc/10.3.1-2.3.1/.content/arm-none-eabi/include/c++/10.3.1/array **** // see the files COPYING3 and COPYING.RUNTIME respectively.  If not, see
  23:/Users/lawrencestanton/Library/Application Support/Code/User/globalStorage/bmd.stm32-for-vscode/@xpack-dev-tools/arm-none-eabi-gcc/10.3.1-2.3.1/.content/arm-none-eabi/include/c++/10.3.1/array **** // <http://www.gnu.org/licenses/>.
  24:/Users/lawrencestanton/Library/Application Support/Code/User/globalStorage/bmd.stm32-for-vscode/@xpack-dev-tools/arm-none-eabi-gcc/10.3.1-2.3.1/.content/arm-none-eabi/include/c++/10.3.1/array **** 
  25:/Users/lawrencestanton/Library/Application Support/Code/User/globalStorage/bmd.stm32-for-vscode/@xpack-dev-tools/arm-none-eabi-gcc/10.3.1-2.3.1/.content/arm-none-eabi/include/c++/10.3.1/array **** /** @file include/array
  26:/Users/lawrencestanton/Library/Application Support/Code/User/globalStorage/bmd.stm32-for-vscode/@xpack-dev-tools/arm-none-eabi-gcc/10.3.1-2.3.1/.content/arm-none-eabi/include/c++/10.3.1/array ****  *  This is a Standard C++ Library header.
  27:/Users/lawrencestanton/Library/Application Support/Code/User/globalStorage/bmd.stm32-for-vscode/@xpack-dev-tools/arm-none-eabi-gcc/10.3.1-2.3.1/.content/arm-none-eabi/include/c++/10.3.1/array ****  */
  28:/Users/lawrencestanton/Library/Application Support/Code/User/globalStorage/bmd.stm32-for-vscode/@xpack-dev-tools/arm-none-eabi-gcc/10.3.1-2.3.1/.content/arm-none-eabi/include/c++/10.3.1/array **** 
  29:/Users/lawrencestanton/Library/Application Support/Code/User/globalStorage/bmd.stm32-for-vscode/@xpack-dev-tools/arm-none-eabi-gcc/10.3.1-2.3.1/.content/arm-none-eabi/include/c++/10.3.1/array **** #ifndef _GLIBCXX_ARRAY
  30:/Users/lawrencestanton/Library/Application Support/Code/User/globalStorage/bmd.stm32-for-vscode/@xpack-dev-tools/arm-none-eabi-gcc/10.3.1-2.3.1/.content/arm-none-eabi/include/c++/10.3.1/array **** #define _GLIBCXX_ARRAY 1
  31:/Users/lawrencestanton/Library/Application Support/Code/User/globalStorage/bmd.stm32-for-vscode/@xpack-dev-tools/arm-none-eabi-gcc/10.3.1-2.3.1/.content/arm-none-eabi/include/c++/10.3.1/array **** 
  32:/Users/lawrencestanton/Library/Application Support/Code/User/globalStorage/bmd.stm32-for-vscode/@xpack-dev-tools/arm-none-eabi-gcc/10.3.1-2.3.1/.content/arm-none-eabi/include/c++/10.3.1/array **** #pragma GCC system_header
  33:/Users/lawrencestanton/Library/Application Support/Code/User/globalStorage/bmd.stm32-for-vscode/@xpack-dev-tools/arm-none-eabi-gcc/10.3.1-2.3.1/.content/arm-none-eabi/include/c++/10.3.1/array **** 
  34:/Users/lawrencestanton/Library/Application Support/Code/User/globalStorage/bmd.stm32-for-vscode/@xpack-dev-tools/arm-none-eabi-gcc/10.3.1-2.3.1/.content/arm-none-eabi/include/c++/10.3.1/array **** #if __cplusplus < 201103L
  35:/Users/lawrencestanton/Library/Application Support/Code/User/globalStorage/bmd.stm32-for-vscode/@xpack-dev-tools/arm-none-eabi-gcc/10.3.1-2.3.1/.content/arm-none-eabi/include/c++/10.3.1/array **** # include <bits/c++0x_warning.h>
  36:/Users/lawrencestanton/Library/Application Support/Code/User/globalStorage/bmd.stm32-for-vscode/@xpack-dev-tools/arm-none-eabi-gcc/10.3.1-2.3.1/.content/arm-none-eabi/include/c++/10.3.1/array **** #else
ARM GAS  /var/folders/bb/dhrb69655gd8t4nf464nxc_00000gn/T//ccHP6Bp0.s 			page 82


  37:/Users/lawrencestanton/Library/Application Support/Code/User/globalStorage/bmd.stm32-for-vscode/@xpack-dev-tools/arm-none-eabi-gcc/10.3.1-2.3.1/.content/arm-none-eabi/include/c++/10.3.1/array **** 
  38:/Users/lawrencestanton/Library/Application Support/Code/User/globalStorage/bmd.stm32-for-vscode/@xpack-dev-tools/arm-none-eabi-gcc/10.3.1-2.3.1/.content/arm-none-eabi/include/c++/10.3.1/array **** #include <utility>
  39:/Users/lawrencestanton/Library/Application Support/Code/User/globalStorage/bmd.stm32-for-vscode/@xpack-dev-tools/arm-none-eabi-gcc/10.3.1-2.3.1/.content/arm-none-eabi/include/c++/10.3.1/array **** #include <bits/functexcept.h>
  40:/Users/lawrencestanton/Library/Application Support/Code/User/globalStorage/bmd.stm32-for-vscode/@xpack-dev-tools/arm-none-eabi-gcc/10.3.1-2.3.1/.content/arm-none-eabi/include/c++/10.3.1/array **** #include <bits/stl_algobase.h>
  41:/Users/lawrencestanton/Library/Application Support/Code/User/globalStorage/bmd.stm32-for-vscode/@xpack-dev-tools/arm-none-eabi-gcc/10.3.1-2.3.1/.content/arm-none-eabi/include/c++/10.3.1/array **** #include <bits/range_access.h>
  42:/Users/lawrencestanton/Library/Application Support/Code/User/globalStorage/bmd.stm32-for-vscode/@xpack-dev-tools/arm-none-eabi-gcc/10.3.1-2.3.1/.content/arm-none-eabi/include/c++/10.3.1/array **** 
  43:/Users/lawrencestanton/Library/Application Support/Code/User/globalStorage/bmd.stm32-for-vscode/@xpack-dev-tools/arm-none-eabi-gcc/10.3.1-2.3.1/.content/arm-none-eabi/include/c++/10.3.1/array **** namespace std _GLIBCXX_VISIBILITY(default)
  44:/Users/lawrencestanton/Library/Application Support/Code/User/globalStorage/bmd.stm32-for-vscode/@xpack-dev-tools/arm-none-eabi-gcc/10.3.1-2.3.1/.content/arm-none-eabi/include/c++/10.3.1/array **** {
  45:/Users/lawrencestanton/Library/Application Support/Code/User/globalStorage/bmd.stm32-for-vscode/@xpack-dev-tools/arm-none-eabi-gcc/10.3.1-2.3.1/.content/arm-none-eabi/include/c++/10.3.1/array **** _GLIBCXX_BEGIN_NAMESPACE_CONTAINER
  46:/Users/lawrencestanton/Library/Application Support/Code/User/globalStorage/bmd.stm32-for-vscode/@xpack-dev-tools/arm-none-eabi-gcc/10.3.1-2.3.1/.content/arm-none-eabi/include/c++/10.3.1/array **** 
  47:/Users/lawrencestanton/Library/Application Support/Code/User/globalStorage/bmd.stm32-for-vscode/@xpack-dev-tools/arm-none-eabi-gcc/10.3.1-2.3.1/.content/arm-none-eabi/include/c++/10.3.1/array ****   template<typename _Tp, std::size_t _Nm>
  48:/Users/lawrencestanton/Library/Application Support/Code/User/globalStorage/bmd.stm32-for-vscode/@xpack-dev-tools/arm-none-eabi-gcc/10.3.1-2.3.1/.content/arm-none-eabi/include/c++/10.3.1/array ****     struct __array_traits
  49:/Users/lawrencestanton/Library/Application Support/Code/User/globalStorage/bmd.stm32-for-vscode/@xpack-dev-tools/arm-none-eabi-gcc/10.3.1-2.3.1/.content/arm-none-eabi/include/c++/10.3.1/array ****     {
  50:/Users/lawrencestanton/Library/Application Support/Code/User/globalStorage/bmd.stm32-for-vscode/@xpack-dev-tools/arm-none-eabi-gcc/10.3.1-2.3.1/.content/arm-none-eabi/include/c++/10.3.1/array ****       typedef _Tp _Type[_Nm];
  51:/Users/lawrencestanton/Library/Application Support/Code/User/globalStorage/bmd.stm32-for-vscode/@xpack-dev-tools/arm-none-eabi-gcc/10.3.1-2.3.1/.content/arm-none-eabi/include/c++/10.3.1/array ****       typedef __is_swappable<_Tp> _Is_swappable;
  52:/Users/lawrencestanton/Library/Application Support/Code/User/globalStorage/bmd.stm32-for-vscode/@xpack-dev-tools/arm-none-eabi-gcc/10.3.1-2.3.1/.content/arm-none-eabi/include/c++/10.3.1/array ****       typedef __is_nothrow_swappable<_Tp> _Is_nothrow_swappable;
  53:/Users/lawrencestanton/Library/Application Support/Code/User/globalStorage/bmd.stm32-for-vscode/@xpack-dev-tools/arm-none-eabi-gcc/10.3.1-2.3.1/.content/arm-none-eabi/include/c++/10.3.1/array **** 
  54:/Users/lawrencestanton/Library/Application Support/Code/User/globalStorage/bmd.stm32-for-vscode/@xpack-dev-tools/arm-none-eabi-gcc/10.3.1-2.3.1/.content/arm-none-eabi/include/c++/10.3.1/array ****       static constexpr _Tp&
  55:/Users/lawrencestanton/Library/Application Support/Code/User/globalStorage/bmd.stm32-for-vscode/@xpack-dev-tools/arm-none-eabi-gcc/10.3.1-2.3.1/.content/arm-none-eabi/include/c++/10.3.1/array ****       _S_ref(const _Type& __t, std::size_t __n) noexcept
  56:/Users/lawrencestanton/Library/Application Support/Code/User/globalStorage/bmd.stm32-for-vscode/@xpack-dev-tools/arm-none-eabi-gcc/10.3.1-2.3.1/.content/arm-none-eabi/include/c++/10.3.1/array ****       { return const_cast<_Tp&>(__t[__n]); }
  57:/Users/lawrencestanton/Library/Application Support/Code/User/globalStorage/bmd.stm32-for-vscode/@xpack-dev-tools/arm-none-eabi-gcc/10.3.1-2.3.1/.content/arm-none-eabi/include/c++/10.3.1/array **** 
  58:/Users/lawrencestanton/Library/Application Support/Code/User/globalStorage/bmd.stm32-for-vscode/@xpack-dev-tools/arm-none-eabi-gcc/10.3.1-2.3.1/.content/arm-none-eabi/include/c++/10.3.1/array ****       static constexpr _Tp*
  59:/Users/lawrencestanton/Library/Application Support/Code/User/globalStorage/bmd.stm32-for-vscode/@xpack-dev-tools/arm-none-eabi-gcc/10.3.1-2.3.1/.content/arm-none-eabi/include/c++/10.3.1/array ****       _S_ptr(const _Type& __t) noexcept
  60:/Users/lawrencestanton/Library/Application Support/Code/User/globalStorage/bmd.stm32-for-vscode/@xpack-dev-tools/arm-none-eabi-gcc/10.3.1-2.3.1/.content/arm-none-eabi/include/c++/10.3.1/array ****       { return const_cast<_Tp*>(__t); }
  61:/Users/lawrencestanton/Library/Application Support/Code/User/globalStorage/bmd.stm32-for-vscode/@xpack-dev-tools/arm-none-eabi-gcc/10.3.1-2.3.1/.content/arm-none-eabi/include/c++/10.3.1/array ****     };
  62:/Users/lawrencestanton/Library/Application Support/Code/User/globalStorage/bmd.stm32-for-vscode/@xpack-dev-tools/arm-none-eabi-gcc/10.3.1-2.3.1/.content/arm-none-eabi/include/c++/10.3.1/array **** 
  63:/Users/lawrencestanton/Library/Application Support/Code/User/globalStorage/bmd.stm32-for-vscode/@xpack-dev-tools/arm-none-eabi-gcc/10.3.1-2.3.1/.content/arm-none-eabi/include/c++/10.3.1/array ****  template<typename _Tp>
  64:/Users/lawrencestanton/Library/Application Support/Code/User/globalStorage/bmd.stm32-for-vscode/@xpack-dev-tools/arm-none-eabi-gcc/10.3.1-2.3.1/.content/arm-none-eabi/include/c++/10.3.1/array ****    struct __array_traits<_Tp, 0>
  65:/Users/lawrencestanton/Library/Application Support/Code/User/globalStorage/bmd.stm32-for-vscode/@xpack-dev-tools/arm-none-eabi-gcc/10.3.1-2.3.1/.content/arm-none-eabi/include/c++/10.3.1/array ****    {
  66:/Users/lawrencestanton/Library/Application Support/Code/User/globalStorage/bmd.stm32-for-vscode/@xpack-dev-tools/arm-none-eabi-gcc/10.3.1-2.3.1/.content/arm-none-eabi/include/c++/10.3.1/array ****      struct _Type { };
  67:/Users/lawrencestanton/Library/Application Support/Code/User/globalStorage/bmd.stm32-for-vscode/@xpack-dev-tools/arm-none-eabi-gcc/10.3.1-2.3.1/.content/arm-none-eabi/include/c++/10.3.1/array ****      typedef true_type _Is_swappable;
  68:/Users/lawrencestanton/Library/Application Support/Code/User/globalStorage/bmd.stm32-for-vscode/@xpack-dev-tools/arm-none-eabi-gcc/10.3.1-2.3.1/.content/arm-none-eabi/include/c++/10.3.1/array ****      typedef true_type _Is_nothrow_swappable;
  69:/Users/lawrencestanton/Library/Application Support/Code/User/globalStorage/bmd.stm32-for-vscode/@xpack-dev-tools/arm-none-eabi-gcc/10.3.1-2.3.1/.content/arm-none-eabi/include/c++/10.3.1/array **** 
  70:/Users/lawrencestanton/Library/Application Support/Code/User/globalStorage/bmd.stm32-for-vscode/@xpack-dev-tools/arm-none-eabi-gcc/10.3.1-2.3.1/.content/arm-none-eabi/include/c++/10.3.1/array ****      static constexpr _Tp&
  71:/Users/lawrencestanton/Library/Application Support/Code/User/globalStorage/bmd.stm32-for-vscode/@xpack-dev-tools/arm-none-eabi-gcc/10.3.1-2.3.1/.content/arm-none-eabi/include/c++/10.3.1/array ****      _S_ref(const _Type&, std::size_t) noexcept
  72:/Users/lawrencestanton/Library/Application Support/Code/User/globalStorage/bmd.stm32-for-vscode/@xpack-dev-tools/arm-none-eabi-gcc/10.3.1-2.3.1/.content/arm-none-eabi/include/c++/10.3.1/array ****      { return *static_cast<_Tp*>(nullptr); }
  73:/Users/lawrencestanton/Library/Application Support/Code/User/globalStorage/bmd.stm32-for-vscode/@xpack-dev-tools/arm-none-eabi-gcc/10.3.1-2.3.1/.content/arm-none-eabi/include/c++/10.3.1/array **** 
  74:/Users/lawrencestanton/Library/Application Support/Code/User/globalStorage/bmd.stm32-for-vscode/@xpack-dev-tools/arm-none-eabi-gcc/10.3.1-2.3.1/.content/arm-none-eabi/include/c++/10.3.1/array ****      static constexpr _Tp*
  75:/Users/lawrencestanton/Library/Application Support/Code/User/globalStorage/bmd.stm32-for-vscode/@xpack-dev-tools/arm-none-eabi-gcc/10.3.1-2.3.1/.content/arm-none-eabi/include/c++/10.3.1/array ****      _S_ptr(const _Type&) noexcept
  76:/Users/lawrencestanton/Library/Application Support/Code/User/globalStorage/bmd.stm32-for-vscode/@xpack-dev-tools/arm-none-eabi-gcc/10.3.1-2.3.1/.content/arm-none-eabi/include/c++/10.3.1/array ****      { return nullptr; }
  77:/Users/lawrencestanton/Library/Application Support/Code/User/globalStorage/bmd.stm32-for-vscode/@xpack-dev-tools/arm-none-eabi-gcc/10.3.1-2.3.1/.content/arm-none-eabi/include/c++/10.3.1/array ****    };
  78:/Users/lawrencestanton/Library/Application Support/Code/User/globalStorage/bmd.stm32-for-vscode/@xpack-dev-tools/arm-none-eabi-gcc/10.3.1-2.3.1/.content/arm-none-eabi/include/c++/10.3.1/array **** 
  79:/Users/lawrencestanton/Library/Application Support/Code/User/globalStorage/bmd.stm32-for-vscode/@xpack-dev-tools/arm-none-eabi-gcc/10.3.1-2.3.1/.content/arm-none-eabi/include/c++/10.3.1/array ****   /**
  80:/Users/lawrencestanton/Library/Application Support/Code/User/globalStorage/bmd.stm32-for-vscode/@xpack-dev-tools/arm-none-eabi-gcc/10.3.1-2.3.1/.content/arm-none-eabi/include/c++/10.3.1/array ****    *  @brief A standard container for storing a fixed size sequence of elements.
  81:/Users/lawrencestanton/Library/Application Support/Code/User/globalStorage/bmd.stm32-for-vscode/@xpack-dev-tools/arm-none-eabi-gcc/10.3.1-2.3.1/.content/arm-none-eabi/include/c++/10.3.1/array ****    *
  82:/Users/lawrencestanton/Library/Application Support/Code/User/globalStorage/bmd.stm32-for-vscode/@xpack-dev-tools/arm-none-eabi-gcc/10.3.1-2.3.1/.content/arm-none-eabi/include/c++/10.3.1/array ****    *  @ingroup sequences
  83:/Users/lawrencestanton/Library/Application Support/Code/User/globalStorage/bmd.stm32-for-vscode/@xpack-dev-tools/arm-none-eabi-gcc/10.3.1-2.3.1/.content/arm-none-eabi/include/c++/10.3.1/array ****    *
  84:/Users/lawrencestanton/Library/Application Support/Code/User/globalStorage/bmd.stm32-for-vscode/@xpack-dev-tools/arm-none-eabi-gcc/10.3.1-2.3.1/.content/arm-none-eabi/include/c++/10.3.1/array ****    *  Meets the requirements of a <a href="tables.html#65">container</a>, a
  85:/Users/lawrencestanton/Library/Application Support/Code/User/globalStorage/bmd.stm32-for-vscode/@xpack-dev-tools/arm-none-eabi-gcc/10.3.1-2.3.1/.content/arm-none-eabi/include/c++/10.3.1/array ****    *  <a href="tables.html#66">reversible container</a>, and a
  86:/Users/lawrencestanton/Library/Application Support/Code/User/globalStorage/bmd.stm32-for-vscode/@xpack-dev-tools/arm-none-eabi-gcc/10.3.1-2.3.1/.content/arm-none-eabi/include/c++/10.3.1/array ****    *  <a href="tables.html#67">sequence</a>.
  87:/Users/lawrencestanton/Library/Application Support/Code/User/globalStorage/bmd.stm32-for-vscode/@xpack-dev-tools/arm-none-eabi-gcc/10.3.1-2.3.1/.content/arm-none-eabi/include/c++/10.3.1/array ****    *
  88:/Users/lawrencestanton/Library/Application Support/Code/User/globalStorage/bmd.stm32-for-vscode/@xpack-dev-tools/arm-none-eabi-gcc/10.3.1-2.3.1/.content/arm-none-eabi/include/c++/10.3.1/array ****    *  Sets support random access iterators.
  89:/Users/lawrencestanton/Library/Application Support/Code/User/globalStorage/bmd.stm32-for-vscode/@xpack-dev-tools/arm-none-eabi-gcc/10.3.1-2.3.1/.content/arm-none-eabi/include/c++/10.3.1/array ****    *
  90:/Users/lawrencestanton/Library/Application Support/Code/User/globalStorage/bmd.stm32-for-vscode/@xpack-dev-tools/arm-none-eabi-gcc/10.3.1-2.3.1/.content/arm-none-eabi/include/c++/10.3.1/array ****    *  @tparam  Tp  Type of element. Required to be a complete type.
  91:/Users/lawrencestanton/Library/Application Support/Code/User/globalStorage/bmd.stm32-for-vscode/@xpack-dev-tools/arm-none-eabi-gcc/10.3.1-2.3.1/.content/arm-none-eabi/include/c++/10.3.1/array ****    *  @tparam  Nm  Number of elements.
  92:/Users/lawrencestanton/Library/Application Support/Code/User/globalStorage/bmd.stm32-for-vscode/@xpack-dev-tools/arm-none-eabi-gcc/10.3.1-2.3.1/.content/arm-none-eabi/include/c++/10.3.1/array ****   */
  93:/Users/lawrencestanton/Library/Application Support/Code/User/globalStorage/bmd.stm32-for-vscode/@xpack-dev-tools/arm-none-eabi-gcc/10.3.1-2.3.1/.content/arm-none-eabi/include/c++/10.3.1/array ****   template<typename _Tp, std::size_t _Nm>
ARM GAS  /var/folders/bb/dhrb69655gd8t4nf464nxc_00000gn/T//ccHP6Bp0.s 			page 83


  94:/Users/lawrencestanton/Library/Application Support/Code/User/globalStorage/bmd.stm32-for-vscode/@xpack-dev-tools/arm-none-eabi-gcc/10.3.1-2.3.1/.content/arm-none-eabi/include/c++/10.3.1/array ****     struct array
  95:/Users/lawrencestanton/Library/Application Support/Code/User/globalStorage/bmd.stm32-for-vscode/@xpack-dev-tools/arm-none-eabi-gcc/10.3.1-2.3.1/.content/arm-none-eabi/include/c++/10.3.1/array ****     {
  96:/Users/lawrencestanton/Library/Application Support/Code/User/globalStorage/bmd.stm32-for-vscode/@xpack-dev-tools/arm-none-eabi-gcc/10.3.1-2.3.1/.content/arm-none-eabi/include/c++/10.3.1/array ****       typedef _Tp 	    			      value_type;
  97:/Users/lawrencestanton/Library/Application Support/Code/User/globalStorage/bmd.stm32-for-vscode/@xpack-dev-tools/arm-none-eabi-gcc/10.3.1-2.3.1/.content/arm-none-eabi/include/c++/10.3.1/array ****       typedef value_type*			      pointer;
  98:/Users/lawrencestanton/Library/Application Support/Code/User/globalStorage/bmd.stm32-for-vscode/@xpack-dev-tools/arm-none-eabi-gcc/10.3.1-2.3.1/.content/arm-none-eabi/include/c++/10.3.1/array ****       typedef const value_type*                       const_pointer;
  99:/Users/lawrencestanton/Library/Application Support/Code/User/globalStorage/bmd.stm32-for-vscode/@xpack-dev-tools/arm-none-eabi-gcc/10.3.1-2.3.1/.content/arm-none-eabi/include/c++/10.3.1/array ****       typedef value_type&                   	      reference;
 100:/Users/lawrencestanton/Library/Application Support/Code/User/globalStorage/bmd.stm32-for-vscode/@xpack-dev-tools/arm-none-eabi-gcc/10.3.1-2.3.1/.content/arm-none-eabi/include/c++/10.3.1/array ****       typedef const value_type&             	      const_reference;
 101:/Users/lawrencestanton/Library/Application Support/Code/User/globalStorage/bmd.stm32-for-vscode/@xpack-dev-tools/arm-none-eabi-gcc/10.3.1-2.3.1/.content/arm-none-eabi/include/c++/10.3.1/array ****       typedef value_type*          		      iterator;
 102:/Users/lawrencestanton/Library/Application Support/Code/User/globalStorage/bmd.stm32-for-vscode/@xpack-dev-tools/arm-none-eabi-gcc/10.3.1-2.3.1/.content/arm-none-eabi/include/c++/10.3.1/array ****       typedef const value_type*			      const_iterator;
 103:/Users/lawrencestanton/Library/Application Support/Code/User/globalStorage/bmd.stm32-for-vscode/@xpack-dev-tools/arm-none-eabi-gcc/10.3.1-2.3.1/.content/arm-none-eabi/include/c++/10.3.1/array ****       typedef std::size_t                    	      size_type;
 104:/Users/lawrencestanton/Library/Application Support/Code/User/globalStorage/bmd.stm32-for-vscode/@xpack-dev-tools/arm-none-eabi-gcc/10.3.1-2.3.1/.content/arm-none-eabi/include/c++/10.3.1/array ****       typedef std::ptrdiff_t                   	      difference_type;
 105:/Users/lawrencestanton/Library/Application Support/Code/User/globalStorage/bmd.stm32-for-vscode/@xpack-dev-tools/arm-none-eabi-gcc/10.3.1-2.3.1/.content/arm-none-eabi/include/c++/10.3.1/array ****       typedef std::reverse_iterator<iterator>	      reverse_iterator;
 106:/Users/lawrencestanton/Library/Application Support/Code/User/globalStorage/bmd.stm32-for-vscode/@xpack-dev-tools/arm-none-eabi-gcc/10.3.1-2.3.1/.content/arm-none-eabi/include/c++/10.3.1/array ****       typedef std::reverse_iterator<const_iterator>   const_reverse_iterator;
 107:/Users/lawrencestanton/Library/Application Support/Code/User/globalStorage/bmd.stm32-for-vscode/@xpack-dev-tools/arm-none-eabi-gcc/10.3.1-2.3.1/.content/arm-none-eabi/include/c++/10.3.1/array **** 
 108:/Users/lawrencestanton/Library/Application Support/Code/User/globalStorage/bmd.stm32-for-vscode/@xpack-dev-tools/arm-none-eabi-gcc/10.3.1-2.3.1/.content/arm-none-eabi/include/c++/10.3.1/array ****       // Support for zero-sized arrays mandatory.
 109:/Users/lawrencestanton/Library/Application Support/Code/User/globalStorage/bmd.stm32-for-vscode/@xpack-dev-tools/arm-none-eabi-gcc/10.3.1-2.3.1/.content/arm-none-eabi/include/c++/10.3.1/array ****       typedef _GLIBCXX_STD_C::__array_traits<_Tp, _Nm> _AT_Type;
 110:/Users/lawrencestanton/Library/Application Support/Code/User/globalStorage/bmd.stm32-for-vscode/@xpack-dev-tools/arm-none-eabi-gcc/10.3.1-2.3.1/.content/arm-none-eabi/include/c++/10.3.1/array ****       typename _AT_Type::_Type                         _M_elems;
 111:/Users/lawrencestanton/Library/Application Support/Code/User/globalStorage/bmd.stm32-for-vscode/@xpack-dev-tools/arm-none-eabi-gcc/10.3.1-2.3.1/.content/arm-none-eabi/include/c++/10.3.1/array **** 
 112:/Users/lawrencestanton/Library/Application Support/Code/User/globalStorage/bmd.stm32-for-vscode/@xpack-dev-tools/arm-none-eabi-gcc/10.3.1-2.3.1/.content/arm-none-eabi/include/c++/10.3.1/array ****       // No explicit construct/copy/destroy for aggregate type.
 113:/Users/lawrencestanton/Library/Application Support/Code/User/globalStorage/bmd.stm32-for-vscode/@xpack-dev-tools/arm-none-eabi-gcc/10.3.1-2.3.1/.content/arm-none-eabi/include/c++/10.3.1/array **** 
 114:/Users/lawrencestanton/Library/Application Support/Code/User/globalStorage/bmd.stm32-for-vscode/@xpack-dev-tools/arm-none-eabi-gcc/10.3.1-2.3.1/.content/arm-none-eabi/include/c++/10.3.1/array ****       // DR 776.
 115:/Users/lawrencestanton/Library/Application Support/Code/User/globalStorage/bmd.stm32-for-vscode/@xpack-dev-tools/arm-none-eabi-gcc/10.3.1-2.3.1/.content/arm-none-eabi/include/c++/10.3.1/array ****       _GLIBCXX20_CONSTEXPR void
 116:/Users/lawrencestanton/Library/Application Support/Code/User/globalStorage/bmd.stm32-for-vscode/@xpack-dev-tools/arm-none-eabi-gcc/10.3.1-2.3.1/.content/arm-none-eabi/include/c++/10.3.1/array ****       fill(const value_type& __u)
 117:/Users/lawrencestanton/Library/Application Support/Code/User/globalStorage/bmd.stm32-for-vscode/@xpack-dev-tools/arm-none-eabi-gcc/10.3.1-2.3.1/.content/arm-none-eabi/include/c++/10.3.1/array ****       { std::fill_n(begin(), size(), __u); }
 118:/Users/lawrencestanton/Library/Application Support/Code/User/globalStorage/bmd.stm32-for-vscode/@xpack-dev-tools/arm-none-eabi-gcc/10.3.1-2.3.1/.content/arm-none-eabi/include/c++/10.3.1/array **** 
 119:/Users/lawrencestanton/Library/Application Support/Code/User/globalStorage/bmd.stm32-for-vscode/@xpack-dev-tools/arm-none-eabi-gcc/10.3.1-2.3.1/.content/arm-none-eabi/include/c++/10.3.1/array ****       _GLIBCXX20_CONSTEXPR void
 120:/Users/lawrencestanton/Library/Application Support/Code/User/globalStorage/bmd.stm32-for-vscode/@xpack-dev-tools/arm-none-eabi-gcc/10.3.1-2.3.1/.content/arm-none-eabi/include/c++/10.3.1/array ****       swap(array& __other)
 121:/Users/lawrencestanton/Library/Application Support/Code/User/globalStorage/bmd.stm32-for-vscode/@xpack-dev-tools/arm-none-eabi-gcc/10.3.1-2.3.1/.content/arm-none-eabi/include/c++/10.3.1/array ****       noexcept(_AT_Type::_Is_nothrow_swappable::value)
 122:/Users/lawrencestanton/Library/Application Support/Code/User/globalStorage/bmd.stm32-for-vscode/@xpack-dev-tools/arm-none-eabi-gcc/10.3.1-2.3.1/.content/arm-none-eabi/include/c++/10.3.1/array ****       { std::swap_ranges(begin(), end(), __other.begin()); }
 123:/Users/lawrencestanton/Library/Application Support/Code/User/globalStorage/bmd.stm32-for-vscode/@xpack-dev-tools/arm-none-eabi-gcc/10.3.1-2.3.1/.content/arm-none-eabi/include/c++/10.3.1/array **** 
 124:/Users/lawrencestanton/Library/Application Support/Code/User/globalStorage/bmd.stm32-for-vscode/@xpack-dev-tools/arm-none-eabi-gcc/10.3.1-2.3.1/.content/arm-none-eabi/include/c++/10.3.1/array ****       // Iterators.
 125:/Users/lawrencestanton/Library/Application Support/Code/User/globalStorage/bmd.stm32-for-vscode/@xpack-dev-tools/arm-none-eabi-gcc/10.3.1-2.3.1/.content/arm-none-eabi/include/c++/10.3.1/array ****       _GLIBCXX17_CONSTEXPR iterator
 126:/Users/lawrencestanton/Library/Application Support/Code/User/globalStorage/bmd.stm32-for-vscode/@xpack-dev-tools/arm-none-eabi-gcc/10.3.1-2.3.1/.content/arm-none-eabi/include/c++/10.3.1/array ****       begin() noexcept
 127:/Users/lawrencestanton/Library/Application Support/Code/User/globalStorage/bmd.stm32-for-vscode/@xpack-dev-tools/arm-none-eabi-gcc/10.3.1-2.3.1/.content/arm-none-eabi/include/c++/10.3.1/array ****       { return iterator(data()); }
 128:/Users/lawrencestanton/Library/Application Support/Code/User/globalStorage/bmd.stm32-for-vscode/@xpack-dev-tools/arm-none-eabi-gcc/10.3.1-2.3.1/.content/arm-none-eabi/include/c++/10.3.1/array **** 
 129:/Users/lawrencestanton/Library/Application Support/Code/User/globalStorage/bmd.stm32-for-vscode/@xpack-dev-tools/arm-none-eabi-gcc/10.3.1-2.3.1/.content/arm-none-eabi/include/c++/10.3.1/array ****       _GLIBCXX17_CONSTEXPR const_iterator
 130:/Users/lawrencestanton/Library/Application Support/Code/User/globalStorage/bmd.stm32-for-vscode/@xpack-dev-tools/arm-none-eabi-gcc/10.3.1-2.3.1/.content/arm-none-eabi/include/c++/10.3.1/array ****       begin() const noexcept
 131:/Users/lawrencestanton/Library/Application Support/Code/User/globalStorage/bmd.stm32-for-vscode/@xpack-dev-tools/arm-none-eabi-gcc/10.3.1-2.3.1/.content/arm-none-eabi/include/c++/10.3.1/array ****       { return const_iterator(data()); }
 132:/Users/lawrencestanton/Library/Application Support/Code/User/globalStorage/bmd.stm32-for-vscode/@xpack-dev-tools/arm-none-eabi-gcc/10.3.1-2.3.1/.content/arm-none-eabi/include/c++/10.3.1/array **** 
 133:/Users/lawrencestanton/Library/Application Support/Code/User/globalStorage/bmd.stm32-for-vscode/@xpack-dev-tools/arm-none-eabi-gcc/10.3.1-2.3.1/.content/arm-none-eabi/include/c++/10.3.1/array ****       _GLIBCXX17_CONSTEXPR iterator
 134:/Users/lawrencestanton/Library/Application Support/Code/User/globalStorage/bmd.stm32-for-vscode/@xpack-dev-tools/arm-none-eabi-gcc/10.3.1-2.3.1/.content/arm-none-eabi/include/c++/10.3.1/array ****       end() noexcept
 135:/Users/lawrencestanton/Library/Application Support/Code/User/globalStorage/bmd.stm32-for-vscode/@xpack-dev-tools/arm-none-eabi-gcc/10.3.1-2.3.1/.content/arm-none-eabi/include/c++/10.3.1/array ****       { return iterator(data() + _Nm); }
 136:/Users/lawrencestanton/Library/Application Support/Code/User/globalStorage/bmd.stm32-for-vscode/@xpack-dev-tools/arm-none-eabi-gcc/10.3.1-2.3.1/.content/arm-none-eabi/include/c++/10.3.1/array **** 
 137:/Users/lawrencestanton/Library/Application Support/Code/User/globalStorage/bmd.stm32-for-vscode/@xpack-dev-tools/arm-none-eabi-gcc/10.3.1-2.3.1/.content/arm-none-eabi/include/c++/10.3.1/array ****       _GLIBCXX17_CONSTEXPR const_iterator
 138:/Users/lawrencestanton/Library/Application Support/Code/User/globalStorage/bmd.stm32-for-vscode/@xpack-dev-tools/arm-none-eabi-gcc/10.3.1-2.3.1/.content/arm-none-eabi/include/c++/10.3.1/array ****       end() const noexcept
 139:/Users/lawrencestanton/Library/Application Support/Code/User/globalStorage/bmd.stm32-for-vscode/@xpack-dev-tools/arm-none-eabi-gcc/10.3.1-2.3.1/.content/arm-none-eabi/include/c++/10.3.1/array ****       { return const_iterator(data() + _Nm); }
 140:/Users/lawrencestanton/Library/Application Support/Code/User/globalStorage/bmd.stm32-for-vscode/@xpack-dev-tools/arm-none-eabi-gcc/10.3.1-2.3.1/.content/arm-none-eabi/include/c++/10.3.1/array **** 
 141:/Users/lawrencestanton/Library/Application Support/Code/User/globalStorage/bmd.stm32-for-vscode/@xpack-dev-tools/arm-none-eabi-gcc/10.3.1-2.3.1/.content/arm-none-eabi/include/c++/10.3.1/array ****       _GLIBCXX17_CONSTEXPR reverse_iterator
 142:/Users/lawrencestanton/Library/Application Support/Code/User/globalStorage/bmd.stm32-for-vscode/@xpack-dev-tools/arm-none-eabi-gcc/10.3.1-2.3.1/.content/arm-none-eabi/include/c++/10.3.1/array ****       rbegin() noexcept
 143:/Users/lawrencestanton/Library/Application Support/Code/User/globalStorage/bmd.stm32-for-vscode/@xpack-dev-tools/arm-none-eabi-gcc/10.3.1-2.3.1/.content/arm-none-eabi/include/c++/10.3.1/array ****       { return reverse_iterator(end()); }
 144:/Users/lawrencestanton/Library/Application Support/Code/User/globalStorage/bmd.stm32-for-vscode/@xpack-dev-tools/arm-none-eabi-gcc/10.3.1-2.3.1/.content/arm-none-eabi/include/c++/10.3.1/array **** 
 145:/Users/lawrencestanton/Library/Application Support/Code/User/globalStorage/bmd.stm32-for-vscode/@xpack-dev-tools/arm-none-eabi-gcc/10.3.1-2.3.1/.content/arm-none-eabi/include/c++/10.3.1/array ****       _GLIBCXX17_CONSTEXPR const_reverse_iterator
 146:/Users/lawrencestanton/Library/Application Support/Code/User/globalStorage/bmd.stm32-for-vscode/@xpack-dev-tools/arm-none-eabi-gcc/10.3.1-2.3.1/.content/arm-none-eabi/include/c++/10.3.1/array ****       rbegin() const noexcept
 147:/Users/lawrencestanton/Library/Application Support/Code/User/globalStorage/bmd.stm32-for-vscode/@xpack-dev-tools/arm-none-eabi-gcc/10.3.1-2.3.1/.content/arm-none-eabi/include/c++/10.3.1/array ****       { return const_reverse_iterator(end()); }
 148:/Users/lawrencestanton/Library/Application Support/Code/User/globalStorage/bmd.stm32-for-vscode/@xpack-dev-tools/arm-none-eabi-gcc/10.3.1-2.3.1/.content/arm-none-eabi/include/c++/10.3.1/array **** 
 149:/Users/lawrencestanton/Library/Application Support/Code/User/globalStorage/bmd.stm32-for-vscode/@xpack-dev-tools/arm-none-eabi-gcc/10.3.1-2.3.1/.content/arm-none-eabi/include/c++/10.3.1/array ****       _GLIBCXX17_CONSTEXPR reverse_iterator
 150:/Users/lawrencestanton/Library/Application Support/Code/User/globalStorage/bmd.stm32-for-vscode/@xpack-dev-tools/arm-none-eabi-gcc/10.3.1-2.3.1/.content/arm-none-eabi/include/c++/10.3.1/array ****       rend() noexcept
ARM GAS  /var/folders/bb/dhrb69655gd8t4nf464nxc_00000gn/T//ccHP6Bp0.s 			page 84


 151:/Users/lawrencestanton/Library/Application Support/Code/User/globalStorage/bmd.stm32-for-vscode/@xpack-dev-tools/arm-none-eabi-gcc/10.3.1-2.3.1/.content/arm-none-eabi/include/c++/10.3.1/array ****       { return reverse_iterator(begin()); }
 152:/Users/lawrencestanton/Library/Application Support/Code/User/globalStorage/bmd.stm32-for-vscode/@xpack-dev-tools/arm-none-eabi-gcc/10.3.1-2.3.1/.content/arm-none-eabi/include/c++/10.3.1/array **** 
 153:/Users/lawrencestanton/Library/Application Support/Code/User/globalStorage/bmd.stm32-for-vscode/@xpack-dev-tools/arm-none-eabi-gcc/10.3.1-2.3.1/.content/arm-none-eabi/include/c++/10.3.1/array ****       _GLIBCXX17_CONSTEXPR const_reverse_iterator
 154:/Users/lawrencestanton/Library/Application Support/Code/User/globalStorage/bmd.stm32-for-vscode/@xpack-dev-tools/arm-none-eabi-gcc/10.3.1-2.3.1/.content/arm-none-eabi/include/c++/10.3.1/array ****       rend() const noexcept
 155:/Users/lawrencestanton/Library/Application Support/Code/User/globalStorage/bmd.stm32-for-vscode/@xpack-dev-tools/arm-none-eabi-gcc/10.3.1-2.3.1/.content/arm-none-eabi/include/c++/10.3.1/array ****       { return const_reverse_iterator(begin()); }
 156:/Users/lawrencestanton/Library/Application Support/Code/User/globalStorage/bmd.stm32-for-vscode/@xpack-dev-tools/arm-none-eabi-gcc/10.3.1-2.3.1/.content/arm-none-eabi/include/c++/10.3.1/array **** 
 157:/Users/lawrencestanton/Library/Application Support/Code/User/globalStorage/bmd.stm32-for-vscode/@xpack-dev-tools/arm-none-eabi-gcc/10.3.1-2.3.1/.content/arm-none-eabi/include/c++/10.3.1/array ****       _GLIBCXX17_CONSTEXPR const_iterator
 158:/Users/lawrencestanton/Library/Application Support/Code/User/globalStorage/bmd.stm32-for-vscode/@xpack-dev-tools/arm-none-eabi-gcc/10.3.1-2.3.1/.content/arm-none-eabi/include/c++/10.3.1/array ****       cbegin() const noexcept
 159:/Users/lawrencestanton/Library/Application Support/Code/User/globalStorage/bmd.stm32-for-vscode/@xpack-dev-tools/arm-none-eabi-gcc/10.3.1-2.3.1/.content/arm-none-eabi/include/c++/10.3.1/array ****       { return const_iterator(data()); }
 160:/Users/lawrencestanton/Library/Application Support/Code/User/globalStorage/bmd.stm32-for-vscode/@xpack-dev-tools/arm-none-eabi-gcc/10.3.1-2.3.1/.content/arm-none-eabi/include/c++/10.3.1/array **** 
 161:/Users/lawrencestanton/Library/Application Support/Code/User/globalStorage/bmd.stm32-for-vscode/@xpack-dev-tools/arm-none-eabi-gcc/10.3.1-2.3.1/.content/arm-none-eabi/include/c++/10.3.1/array ****       _GLIBCXX17_CONSTEXPR const_iterator
 162:/Users/lawrencestanton/Library/Application Support/Code/User/globalStorage/bmd.stm32-for-vscode/@xpack-dev-tools/arm-none-eabi-gcc/10.3.1-2.3.1/.content/arm-none-eabi/include/c++/10.3.1/array ****       cend() const noexcept
 163:/Users/lawrencestanton/Library/Application Support/Code/User/globalStorage/bmd.stm32-for-vscode/@xpack-dev-tools/arm-none-eabi-gcc/10.3.1-2.3.1/.content/arm-none-eabi/include/c++/10.3.1/array ****       { return const_iterator(data() + _Nm); }
 164:/Users/lawrencestanton/Library/Application Support/Code/User/globalStorage/bmd.stm32-for-vscode/@xpack-dev-tools/arm-none-eabi-gcc/10.3.1-2.3.1/.content/arm-none-eabi/include/c++/10.3.1/array **** 
 165:/Users/lawrencestanton/Library/Application Support/Code/User/globalStorage/bmd.stm32-for-vscode/@xpack-dev-tools/arm-none-eabi-gcc/10.3.1-2.3.1/.content/arm-none-eabi/include/c++/10.3.1/array ****       _GLIBCXX17_CONSTEXPR const_reverse_iterator
 166:/Users/lawrencestanton/Library/Application Support/Code/User/globalStorage/bmd.stm32-for-vscode/@xpack-dev-tools/arm-none-eabi-gcc/10.3.1-2.3.1/.content/arm-none-eabi/include/c++/10.3.1/array ****       crbegin() const noexcept
 167:/Users/lawrencestanton/Library/Application Support/Code/User/globalStorage/bmd.stm32-for-vscode/@xpack-dev-tools/arm-none-eabi-gcc/10.3.1-2.3.1/.content/arm-none-eabi/include/c++/10.3.1/array ****       { return const_reverse_iterator(end()); }
 168:/Users/lawrencestanton/Library/Application Support/Code/User/globalStorage/bmd.stm32-for-vscode/@xpack-dev-tools/arm-none-eabi-gcc/10.3.1-2.3.1/.content/arm-none-eabi/include/c++/10.3.1/array **** 
 169:/Users/lawrencestanton/Library/Application Support/Code/User/globalStorage/bmd.stm32-for-vscode/@xpack-dev-tools/arm-none-eabi-gcc/10.3.1-2.3.1/.content/arm-none-eabi/include/c++/10.3.1/array ****       _GLIBCXX17_CONSTEXPR const_reverse_iterator
 170:/Users/lawrencestanton/Library/Application Support/Code/User/globalStorage/bmd.stm32-for-vscode/@xpack-dev-tools/arm-none-eabi-gcc/10.3.1-2.3.1/.content/arm-none-eabi/include/c++/10.3.1/array ****       crend() const noexcept
 171:/Users/lawrencestanton/Library/Application Support/Code/User/globalStorage/bmd.stm32-for-vscode/@xpack-dev-tools/arm-none-eabi-gcc/10.3.1-2.3.1/.content/arm-none-eabi/include/c++/10.3.1/array ****       { return const_reverse_iterator(begin()); }
 172:/Users/lawrencestanton/Library/Application Support/Code/User/globalStorage/bmd.stm32-for-vscode/@xpack-dev-tools/arm-none-eabi-gcc/10.3.1-2.3.1/.content/arm-none-eabi/include/c++/10.3.1/array **** 
 173:/Users/lawrencestanton/Library/Application Support/Code/User/globalStorage/bmd.stm32-for-vscode/@xpack-dev-tools/arm-none-eabi-gcc/10.3.1-2.3.1/.content/arm-none-eabi/include/c++/10.3.1/array ****       // Capacity.
 174:/Users/lawrencestanton/Library/Application Support/Code/User/globalStorage/bmd.stm32-for-vscode/@xpack-dev-tools/arm-none-eabi-gcc/10.3.1-2.3.1/.content/arm-none-eabi/include/c++/10.3.1/array ****       constexpr size_type
 175:/Users/lawrencestanton/Library/Application Support/Code/User/globalStorage/bmd.stm32-for-vscode/@xpack-dev-tools/arm-none-eabi-gcc/10.3.1-2.3.1/.content/arm-none-eabi/include/c++/10.3.1/array ****       size() const noexcept { return _Nm; }
 176:/Users/lawrencestanton/Library/Application Support/Code/User/globalStorage/bmd.stm32-for-vscode/@xpack-dev-tools/arm-none-eabi-gcc/10.3.1-2.3.1/.content/arm-none-eabi/include/c++/10.3.1/array **** 
 177:/Users/lawrencestanton/Library/Application Support/Code/User/globalStorage/bmd.stm32-for-vscode/@xpack-dev-tools/arm-none-eabi-gcc/10.3.1-2.3.1/.content/arm-none-eabi/include/c++/10.3.1/array ****       constexpr size_type
 178:/Users/lawrencestanton/Library/Application Support/Code/User/globalStorage/bmd.stm32-for-vscode/@xpack-dev-tools/arm-none-eabi-gcc/10.3.1-2.3.1/.content/arm-none-eabi/include/c++/10.3.1/array ****       max_size() const noexcept { return _Nm; }
 179:/Users/lawrencestanton/Library/Application Support/Code/User/globalStorage/bmd.stm32-for-vscode/@xpack-dev-tools/arm-none-eabi-gcc/10.3.1-2.3.1/.content/arm-none-eabi/include/c++/10.3.1/array **** 
 180:/Users/lawrencestanton/Library/Application Support/Code/User/globalStorage/bmd.stm32-for-vscode/@xpack-dev-tools/arm-none-eabi-gcc/10.3.1-2.3.1/.content/arm-none-eabi/include/c++/10.3.1/array ****       _GLIBCXX_NODISCARD constexpr bool
 181:/Users/lawrencestanton/Library/Application Support/Code/User/globalStorage/bmd.stm32-for-vscode/@xpack-dev-tools/arm-none-eabi-gcc/10.3.1-2.3.1/.content/arm-none-eabi/include/c++/10.3.1/array ****       empty() const noexcept { return size() == 0; }
 182:/Users/lawrencestanton/Library/Application Support/Code/User/globalStorage/bmd.stm32-for-vscode/@xpack-dev-tools/arm-none-eabi-gcc/10.3.1-2.3.1/.content/arm-none-eabi/include/c++/10.3.1/array **** 
 183:/Users/lawrencestanton/Library/Application Support/Code/User/globalStorage/bmd.stm32-for-vscode/@xpack-dev-tools/arm-none-eabi-gcc/10.3.1-2.3.1/.content/arm-none-eabi/include/c++/10.3.1/array ****       // Element access.
 184:/Users/lawrencestanton/Library/Application Support/Code/User/globalStorage/bmd.stm32-for-vscode/@xpack-dev-tools/arm-none-eabi-gcc/10.3.1-2.3.1/.content/arm-none-eabi/include/c++/10.3.1/array ****       _GLIBCXX17_CONSTEXPR reference
 185:/Users/lawrencestanton/Library/Application Support/Code/User/globalStorage/bmd.stm32-for-vscode/@xpack-dev-tools/arm-none-eabi-gcc/10.3.1-2.3.1/.content/arm-none-eabi/include/c++/10.3.1/array ****       operator[](size_type __n) noexcept
 186:/Users/lawrencestanton/Library/Application Support/Code/User/globalStorage/bmd.stm32-for-vscode/@xpack-dev-tools/arm-none-eabi-gcc/10.3.1-2.3.1/.content/arm-none-eabi/include/c++/10.3.1/array ****       { return _AT_Type::_S_ref(_M_elems, __n); }
 187:/Users/lawrencestanton/Library/Application Support/Code/User/globalStorage/bmd.stm32-for-vscode/@xpack-dev-tools/arm-none-eabi-gcc/10.3.1-2.3.1/.content/arm-none-eabi/include/c++/10.3.1/array **** 
 188:/Users/lawrencestanton/Library/Application Support/Code/User/globalStorage/bmd.stm32-for-vscode/@xpack-dev-tools/arm-none-eabi-gcc/10.3.1-2.3.1/.content/arm-none-eabi/include/c++/10.3.1/array ****       constexpr const_reference
 189:/Users/lawrencestanton/Library/Application Support/Code/User/globalStorage/bmd.stm32-for-vscode/@xpack-dev-tools/arm-none-eabi-gcc/10.3.1-2.3.1/.content/arm-none-eabi/include/c++/10.3.1/array ****       operator[](size_type __n) const noexcept
 4054              		.loc 4 189 7
 4055              		.cfi_startproc
 4056              		@ args = 0, pretend = 0, frame = 8
 4057              		@ frame_needed = 1, uses_anonymous_args = 0
 4058 0000 80B5     		push	{r7, lr}
 4059              		.cfi_def_cfa_offset 8
 4060              		.cfi_offset 7, -8
 4061              		.cfi_offset 14, -4
 4062 0002 82B0     		sub	sp, sp, #8
 4063              		.cfi_def_cfa_offset 16
 4064 0004 00AF     		add	r7, sp, #0
 4065              		.cfi_def_cfa_register 7
 4066 0006 7860     		str	r0, [r7, #4]
 4067 0008 3960     		str	r1, [r7]
 190:/Users/lawrencestanton/Library/Application Support/Code/User/globalStorage/bmd.stm32-for-vscode/@xpack-dev-tools/arm-none-eabi-gcc/10.3.1-2.3.1/.content/arm-none-eabi/include/c++/10.3.1/array ****       { return _AT_Type::_S_ref(_M_elems, __n); }
 4068              		.loc 4 190 33
 4069 000a 7B68     		ldr	r3, [r7, #4]
 4070              		.loc 4 190 32
ARM GAS  /var/folders/bb/dhrb69655gd8t4nf464nxc_00000gn/T//ccHP6Bp0.s 			page 85


 4071 000c 3968     		ldr	r1, [r7]
 4072 000e 1846     		mov	r0, r3
 4073 0010 FFF7FEFF 		bl	_ZNSt14__array_traitsI12StaticStringLj15EE6_S_refERA15_KS0_j
 4074 0014 0346     		mov	r3, r0
 4075              		.loc 4 190 49
 4076 0016 1846     		mov	r0, r3
 4077 0018 0837     		adds	r7, r7, #8
 4078              		.cfi_def_cfa_offset 8
 4079 001a BD46     		mov	sp, r7
 4080              		.cfi_def_cfa_register 13
 4081              		@ sp needed
 4082 001c 80BD     		pop	{r7, pc}
 4083              		.cfi_endproc
 4084              	.LFE1005:
 4085              		.cantunwind
 4086              		.fnend
 4088              		.section	.text._ZNSt5arrayI12StaticStringLj15EEC2Ev,"axG",%progbits,_ZNSt5arrayI12StaticStringLj15
 4089              		.align	1
 4090              		.weak	_ZNSt5arrayI12StaticStringLj15EEC2Ev
 4091              		.syntax unified
 4092              		.thumb
 4093              		.thumb_func
 4095              	_ZNSt5arrayI12StaticStringLj15EEC2Ev:
 4096              		.fnstart
 4097              	.LFB1008:
  94:/Users/lawrencestanton/Library/Application Support/Code/User/globalStorage/bmd.stm32-for-vscode/@xpack-dev-tools/arm-none-eabi-gcc/10.3.1-2.3.1/.content/arm-none-eabi/include/c++/10.3.1/array ****     {
 4098              		.loc 4 94 12
 4099              		.cfi_startproc
 4100              		@ args = 0, pretend = 0, frame = 8
 4101              		@ frame_needed = 1, uses_anonymous_args = 0
 4102 0000 B0B5     		push	{r4, r5, r7, lr}
 4103              		.cfi_def_cfa_offset 16
 4104              		.cfi_offset 4, -16
