ARM GAS  /var/folders/bb/dhrb69655gd8t4nf464nxc_00000gn/T//ccyYPrc2.s 			page 1


   1              		.cpu cortex-m4
   2              		.arch armv7e-m
   3              		.fpu fpv4-sp-d16
   4              		.eabi_attribute 27, 1
   5              		.eabi_attribute 28, 1
   6              		.eabi_attribute 20, 1
   7              		.eabi_attribute 21, 1
   8              		.eabi_attribute 23, 3
   9              		.eabi_attribute 24, 1
  10              		.eabi_attribute 25, 1
  11              		.eabi_attribute 26, 1
  12              		.eabi_attribute 30, 6
  13              		.eabi_attribute 34, 1
  14              		.eabi_attribute 18, 4
  15              		.file	"NMEA_PUBX.cpp"
  16              		.text
  17              	.Ltext0:
  18              		.cfi_sections	.debug_frame
  19              		.section	.rodata._ZStL19piecewise_construct,"a"
  20              		.align	2
  23              	_ZStL19piecewise_construct:
  24 0000 00       		.space	1
  25              		.section	.text._ZL20__gthread_key_deletei,"ax",%progbits
  26              		.align	1
  27              		.syntax unified
  28              		.thumb
  29              		.thumb_func
  31              	_ZL20__gthread_key_deletei:
  32              		.fnstart
  33              	.LFB653:
  34              		.file 1 "/Users/lawrencestanton/Library/Application Support/Code/User/globalStorage/bmd.stm32-for-
   1:/Users/lawrencestanton/Library/Application Support/Code/User/globalStorage/bmd.stm32-for-vscode/@xpack-dev-tools/arm-none-eabi-gcc/10.3.1-2.3.1/.content/arm-none-eabi/include/c++/10.3.1/arm-none-eabi/thumb/v7e-m+fp/hard/bits/gthr-default.h **** /* Threads compatibility routines for libgcc2 and libobjc.  */
   2:/Users/lawrencestanton/Library/Application Support/Code/User/globalStorage/bmd.stm32-for-vscode/@xpack-dev-tools/arm-none-eabi-gcc/10.3.1-2.3.1/.content/arm-none-eabi/include/c++/10.3.1/arm-none-eabi/thumb/v7e-m+fp/hard/bits/gthr-default.h **** /* Compile this one with gcc.  */
   3:/Users/lawrencestanton/Library/Application Support/Code/User/globalStorage/bmd.stm32-for-vscode/@xpack-dev-tools/arm-none-eabi-gcc/10.3.1-2.3.1/.content/arm-none-eabi/include/c++/10.3.1/arm-none-eabi/thumb/v7e-m+fp/hard/bits/gthr-default.h **** /* Copyright (C) 1997-2020 Free Software Foundation, Inc.
   4:/Users/lawrencestanton/Library/Application Support/Code/User/globalStorage/bmd.stm32-for-vscode/@xpack-dev-tools/arm-none-eabi-gcc/10.3.1-2.3.1/.content/arm-none-eabi/include/c++/10.3.1/arm-none-eabi/thumb/v7e-m+fp/hard/bits/gthr-default.h **** 
   5:/Users/lawrencestanton/Library/Application Support/Code/User/globalStorage/bmd.stm32-for-vscode/@xpack-dev-tools/arm-none-eabi-gcc/10.3.1-2.3.1/.content/arm-none-eabi/include/c++/10.3.1/arm-none-eabi/thumb/v7e-m+fp/hard/bits/gthr-default.h **** This file is part of GCC.
   6:/Users/lawrencestanton/Library/Application Support/Code/User/globalStorage/bmd.stm32-for-vscode/@xpack-dev-tools/arm-none-eabi-gcc/10.3.1-2.3.1/.content/arm-none-eabi/include/c++/10.3.1/arm-none-eabi/thumb/v7e-m+fp/hard/bits/gthr-default.h **** 
   7:/Users/lawrencestanton/Library/Application Support/Code/User/globalStorage/bmd.stm32-for-vscode/@xpack-dev-tools/arm-none-eabi-gcc/10.3.1-2.3.1/.content/arm-none-eabi/include/c++/10.3.1/arm-none-eabi/thumb/v7e-m+fp/hard/bits/gthr-default.h **** GCC is free software; you can redistribute it and/or modify it under
   8:/Users/lawrencestanton/Library/Application Support/Code/User/globalStorage/bmd.stm32-for-vscode/@xpack-dev-tools/arm-none-eabi-gcc/10.3.1-2.3.1/.content/arm-none-eabi/include/c++/10.3.1/arm-none-eabi/thumb/v7e-m+fp/hard/bits/gthr-default.h **** the terms of the GNU General Public License as published by the Free
   9:/Users/lawrencestanton/Library/Application Support/Code/User/globalStorage/bmd.stm32-for-vscode/@xpack-dev-tools/arm-none-eabi-gcc/10.3.1-2.3.1/.content/arm-none-eabi/include/c++/10.3.1/arm-none-eabi/thumb/v7e-m+fp/hard/bits/gthr-default.h **** Software Foundation; either version 3, or (at your option) any later
  10:/Users/lawrencestanton/Library/Application Support/Code/User/globalStorage/bmd.stm32-for-vscode/@xpack-dev-tools/arm-none-eabi-gcc/10.3.1-2.3.1/.content/arm-none-eabi/include/c++/10.3.1/arm-none-eabi/thumb/v7e-m+fp/hard/bits/gthr-default.h **** version.
  11:/Users/lawrencestanton/Library/Application Support/Code/User/globalStorage/bmd.stm32-for-vscode/@xpack-dev-tools/arm-none-eabi-gcc/10.3.1-2.3.1/.content/arm-none-eabi/include/c++/10.3.1/arm-none-eabi/thumb/v7e-m+fp/hard/bits/gthr-default.h **** 
  12:/Users/lawrencestanton/Library/Application Support/Code/User/globalStorage/bmd.stm32-for-vscode/@xpack-dev-tools/arm-none-eabi-gcc/10.3.1-2.3.1/.content/arm-none-eabi/include/c++/10.3.1/arm-none-eabi/thumb/v7e-m+fp/hard/bits/gthr-default.h **** GCC is distributed in the hope that it will be useful, but WITHOUT ANY
  13:/Users/lawrencestanton/Library/Application Support/Code/User/globalStorage/bmd.stm32-for-vscode/@xpack-dev-tools/arm-none-eabi-gcc/10.3.1-2.3.1/.content/arm-none-eabi/include/c++/10.3.1/arm-none-eabi/thumb/v7e-m+fp/hard/bits/gthr-default.h **** WARRANTY; without even the implied warranty of MERCHANTABILITY or
  14:/Users/lawrencestanton/Library/Application Support/Code/User/globalStorage/bmd.stm32-for-vscode/@xpack-dev-tools/arm-none-eabi-gcc/10.3.1-2.3.1/.content/arm-none-eabi/include/c++/10.3.1/arm-none-eabi/thumb/v7e-m+fp/hard/bits/gthr-default.h **** FITNESS FOR A PARTICULAR PURPOSE.  See the GNU General Public License
  15:/Users/lawrencestanton/Library/Application Support/Code/User/globalStorage/bmd.stm32-for-vscode/@xpack-dev-tools/arm-none-eabi-gcc/10.3.1-2.3.1/.content/arm-none-eabi/include/c++/10.3.1/arm-none-eabi/thumb/v7e-m+fp/hard/bits/gthr-default.h **** for more details.
  16:/Users/lawrencestanton/Library/Application Support/Code/User/globalStorage/bmd.stm32-for-vscode/@xpack-dev-tools/arm-none-eabi-gcc/10.3.1-2.3.1/.content/arm-none-eabi/include/c++/10.3.1/arm-none-eabi/thumb/v7e-m+fp/hard/bits/gthr-default.h **** 
  17:/Users/lawrencestanton/Library/Application Support/Code/User/globalStorage/bmd.stm32-for-vscode/@xpack-dev-tools/arm-none-eabi-gcc/10.3.1-2.3.1/.content/arm-none-eabi/include/c++/10.3.1/arm-none-eabi/thumb/v7e-m+fp/hard/bits/gthr-default.h **** Under Section 7 of GPL version 3, you are granted additional
  18:/Users/lawrencestanton/Library/Application Support/Code/User/globalStorage/bmd.stm32-for-vscode/@xpack-dev-tools/arm-none-eabi-gcc/10.3.1-2.3.1/.content/arm-none-eabi/include/c++/10.3.1/arm-none-eabi/thumb/v7e-m+fp/hard/bits/gthr-default.h **** permissions described in the GCC Runtime Library Exception, version
  19:/Users/lawrencestanton/Library/Application Support/Code/User/globalStorage/bmd.stm32-for-vscode/@xpack-dev-tools/arm-none-eabi-gcc/10.3.1-2.3.1/.content/arm-none-eabi/include/c++/10.3.1/arm-none-eabi/thumb/v7e-m+fp/hard/bits/gthr-default.h **** 3.1, as published by the Free Software Foundation.
  20:/Users/lawrencestanton/Library/Application Support/Code/User/globalStorage/bmd.stm32-for-vscode/@xpack-dev-tools/arm-none-eabi-gcc/10.3.1-2.3.1/.content/arm-none-eabi/include/c++/10.3.1/arm-none-eabi/thumb/v7e-m+fp/hard/bits/gthr-default.h **** 
  21:/Users/lawrencestanton/Library/Application Support/Code/User/globalStorage/bmd.stm32-for-vscode/@xpack-dev-tools/arm-none-eabi-gcc/10.3.1-2.3.1/.content/arm-none-eabi/include/c++/10.3.1/arm-none-eabi/thumb/v7e-m+fp/hard/bits/gthr-default.h **** You should have received a copy of the GNU General Public License and
  22:/Users/lawrencestanton/Library/Application Support/Code/User/globalStorage/bmd.stm32-for-vscode/@xpack-dev-tools/arm-none-eabi-gcc/10.3.1-2.3.1/.content/arm-none-eabi/include/c++/10.3.1/arm-none-eabi/thumb/v7e-m+fp/hard/bits/gthr-default.h **** a copy of the GCC Runtime Library Exception along with this program;
  23:/Users/lawrencestanton/Library/Application Support/Code/User/globalStorage/bmd.stm32-for-vscode/@xpack-dev-tools/arm-none-eabi-gcc/10.3.1-2.3.1/.content/arm-none-eabi/include/c++/10.3.1/arm-none-eabi/thumb/v7e-m+fp/hard/bits/gthr-default.h **** see the files COPYING3 and COPYING.RUNTIME respectively.  If not, see
  24:/Users/lawrencestanton/Library/Application Support/Code/User/globalStorage/bmd.stm32-for-vscode/@xpack-dev-tools/arm-none-eabi-gcc/10.3.1-2.3.1/.content/arm-none-eabi/include/c++/10.3.1/arm-none-eabi/thumb/v7e-m+fp/hard/bits/gthr-default.h **** <http://www.gnu.org/licenses/>.  */
  25:/Users/lawrencestanton/Library/Application Support/Code/User/globalStorage/bmd.stm32-for-vscode/@xpack-dev-tools/arm-none-eabi-gcc/10.3.1-2.3.1/.content/arm-none-eabi/include/c++/10.3.1/arm-none-eabi/thumb/v7e-m+fp/hard/bits/gthr-default.h **** 
  26:/Users/lawrencestanton/Library/Application Support/Code/User/globalStorage/bmd.stm32-for-vscode/@xpack-dev-tools/arm-none-eabi-gcc/10.3.1-2.3.1/.content/arm-none-eabi/include/c++/10.3.1/arm-none-eabi/thumb/v7e-m+fp/hard/bits/gthr-default.h **** #ifndef _GLIBCXX_GCC_GTHR_SINGLE_H
ARM GAS  /var/folders/bb/dhrb69655gd8t4nf464nxc_00000gn/T//ccyYPrc2.s 			page 2


  27:/Users/lawrencestanton/Library/Application Support/Code/User/globalStorage/bmd.stm32-for-vscode/@xpack-dev-tools/arm-none-eabi-gcc/10.3.1-2.3.1/.content/arm-none-eabi/include/c++/10.3.1/arm-none-eabi/thumb/v7e-m+fp/hard/bits/gthr-default.h **** #define _GLIBCXX_GCC_GTHR_SINGLE_H
  28:/Users/lawrencestanton/Library/Application Support/Code/User/globalStorage/bmd.stm32-for-vscode/@xpack-dev-tools/arm-none-eabi-gcc/10.3.1-2.3.1/.content/arm-none-eabi/include/c++/10.3.1/arm-none-eabi/thumb/v7e-m+fp/hard/bits/gthr-default.h **** 
  29:/Users/lawrencestanton/Library/Application Support/Code/User/globalStorage/bmd.stm32-for-vscode/@xpack-dev-tools/arm-none-eabi-gcc/10.3.1-2.3.1/.content/arm-none-eabi/include/c++/10.3.1/arm-none-eabi/thumb/v7e-m+fp/hard/bits/gthr-default.h **** /* Just provide compatibility for mutex handling.  */
  30:/Users/lawrencestanton/Library/Application Support/Code/User/globalStorage/bmd.stm32-for-vscode/@xpack-dev-tools/arm-none-eabi-gcc/10.3.1-2.3.1/.content/arm-none-eabi/include/c++/10.3.1/arm-none-eabi/thumb/v7e-m+fp/hard/bits/gthr-default.h **** 
  31:/Users/lawrencestanton/Library/Application Support/Code/User/globalStorage/bmd.stm32-for-vscode/@xpack-dev-tools/arm-none-eabi-gcc/10.3.1-2.3.1/.content/arm-none-eabi/include/c++/10.3.1/arm-none-eabi/thumb/v7e-m+fp/hard/bits/gthr-default.h **** typedef int __gthread_key_t;
  32:/Users/lawrencestanton/Library/Application Support/Code/User/globalStorage/bmd.stm32-for-vscode/@xpack-dev-tools/arm-none-eabi-gcc/10.3.1-2.3.1/.content/arm-none-eabi/include/c++/10.3.1/arm-none-eabi/thumb/v7e-m+fp/hard/bits/gthr-default.h **** typedef int __gthread_once_t;
  33:/Users/lawrencestanton/Library/Application Support/Code/User/globalStorage/bmd.stm32-for-vscode/@xpack-dev-tools/arm-none-eabi-gcc/10.3.1-2.3.1/.content/arm-none-eabi/include/c++/10.3.1/arm-none-eabi/thumb/v7e-m+fp/hard/bits/gthr-default.h **** typedef int __gthread_mutex_t;
  34:/Users/lawrencestanton/Library/Application Support/Code/User/globalStorage/bmd.stm32-for-vscode/@xpack-dev-tools/arm-none-eabi-gcc/10.3.1-2.3.1/.content/arm-none-eabi/include/c++/10.3.1/arm-none-eabi/thumb/v7e-m+fp/hard/bits/gthr-default.h **** typedef int __gthread_recursive_mutex_t;
  35:/Users/lawrencestanton/Library/Application Support/Code/User/globalStorage/bmd.stm32-for-vscode/@xpack-dev-tools/arm-none-eabi-gcc/10.3.1-2.3.1/.content/arm-none-eabi/include/c++/10.3.1/arm-none-eabi/thumb/v7e-m+fp/hard/bits/gthr-default.h **** 
  36:/Users/lawrencestanton/Library/Application Support/Code/User/globalStorage/bmd.stm32-for-vscode/@xpack-dev-tools/arm-none-eabi-gcc/10.3.1-2.3.1/.content/arm-none-eabi/include/c++/10.3.1/arm-none-eabi/thumb/v7e-m+fp/hard/bits/gthr-default.h **** #define __GTHREAD_ONCE_INIT 0
  37:/Users/lawrencestanton/Library/Application Support/Code/User/globalStorage/bmd.stm32-for-vscode/@xpack-dev-tools/arm-none-eabi-gcc/10.3.1-2.3.1/.content/arm-none-eabi/include/c++/10.3.1/arm-none-eabi/thumb/v7e-m+fp/hard/bits/gthr-default.h **** #define __GTHREAD_MUTEX_INIT 0
  38:/Users/lawrencestanton/Library/Application Support/Code/User/globalStorage/bmd.stm32-for-vscode/@xpack-dev-tools/arm-none-eabi-gcc/10.3.1-2.3.1/.content/arm-none-eabi/include/c++/10.3.1/arm-none-eabi/thumb/v7e-m+fp/hard/bits/gthr-default.h **** #define __GTHREAD_MUTEX_INIT_FUNCTION(mx) do {} while (0)
  39:/Users/lawrencestanton/Library/Application Support/Code/User/globalStorage/bmd.stm32-for-vscode/@xpack-dev-tools/arm-none-eabi-gcc/10.3.1-2.3.1/.content/arm-none-eabi/include/c++/10.3.1/arm-none-eabi/thumb/v7e-m+fp/hard/bits/gthr-default.h **** #define __GTHREAD_RECURSIVE_MUTEX_INIT 0
  40:/Users/lawrencestanton/Library/Application Support/Code/User/globalStorage/bmd.stm32-for-vscode/@xpack-dev-tools/arm-none-eabi-gcc/10.3.1-2.3.1/.content/arm-none-eabi/include/c++/10.3.1/arm-none-eabi/thumb/v7e-m+fp/hard/bits/gthr-default.h **** 
  41:/Users/lawrencestanton/Library/Application Support/Code/User/globalStorage/bmd.stm32-for-vscode/@xpack-dev-tools/arm-none-eabi-gcc/10.3.1-2.3.1/.content/arm-none-eabi/include/c++/10.3.1/arm-none-eabi/thumb/v7e-m+fp/hard/bits/gthr-default.h **** #define _GLIBCXX_UNUSED __attribute__((__unused__))
  42:/Users/lawrencestanton/Library/Application Support/Code/User/globalStorage/bmd.stm32-for-vscode/@xpack-dev-tools/arm-none-eabi-gcc/10.3.1-2.3.1/.content/arm-none-eabi/include/c++/10.3.1/arm-none-eabi/thumb/v7e-m+fp/hard/bits/gthr-default.h **** 
  43:/Users/lawrencestanton/Library/Application Support/Code/User/globalStorage/bmd.stm32-for-vscode/@xpack-dev-tools/arm-none-eabi-gcc/10.3.1-2.3.1/.content/arm-none-eabi/include/c++/10.3.1/arm-none-eabi/thumb/v7e-m+fp/hard/bits/gthr-default.h **** #ifdef _LIBOBJC
  44:/Users/lawrencestanton/Library/Application Support/Code/User/globalStorage/bmd.stm32-for-vscode/@xpack-dev-tools/arm-none-eabi-gcc/10.3.1-2.3.1/.content/arm-none-eabi/include/c++/10.3.1/arm-none-eabi/thumb/v7e-m+fp/hard/bits/gthr-default.h **** 
  45:/Users/lawrencestanton/Library/Application Support/Code/User/globalStorage/bmd.stm32-for-vscode/@xpack-dev-tools/arm-none-eabi-gcc/10.3.1-2.3.1/.content/arm-none-eabi/include/c++/10.3.1/arm-none-eabi/thumb/v7e-m+fp/hard/bits/gthr-default.h **** /* Thread local storage for a single thread */
  46:/Users/lawrencestanton/Library/Application Support/Code/User/globalStorage/bmd.stm32-for-vscode/@xpack-dev-tools/arm-none-eabi-gcc/10.3.1-2.3.1/.content/arm-none-eabi/include/c++/10.3.1/arm-none-eabi/thumb/v7e-m+fp/hard/bits/gthr-default.h **** static void *thread_local_storage = NULL;
  47:/Users/lawrencestanton/Library/Application Support/Code/User/globalStorage/bmd.stm32-for-vscode/@xpack-dev-tools/arm-none-eabi-gcc/10.3.1-2.3.1/.content/arm-none-eabi/include/c++/10.3.1/arm-none-eabi/thumb/v7e-m+fp/hard/bits/gthr-default.h **** 
  48:/Users/lawrencestanton/Library/Application Support/Code/User/globalStorage/bmd.stm32-for-vscode/@xpack-dev-tools/arm-none-eabi-gcc/10.3.1-2.3.1/.content/arm-none-eabi/include/c++/10.3.1/arm-none-eabi/thumb/v7e-m+fp/hard/bits/gthr-default.h **** /* Backend initialization functions */
  49:/Users/lawrencestanton/Library/Application Support/Code/User/globalStorage/bmd.stm32-for-vscode/@xpack-dev-tools/arm-none-eabi-gcc/10.3.1-2.3.1/.content/arm-none-eabi/include/c++/10.3.1/arm-none-eabi/thumb/v7e-m+fp/hard/bits/gthr-default.h **** 
  50:/Users/lawrencestanton/Library/Application Support/Code/User/globalStorage/bmd.stm32-for-vscode/@xpack-dev-tools/arm-none-eabi-gcc/10.3.1-2.3.1/.content/arm-none-eabi/include/c++/10.3.1/arm-none-eabi/thumb/v7e-m+fp/hard/bits/gthr-default.h **** /* Initialize the threads subsystem.  */
  51:/Users/lawrencestanton/Library/Application Support/Code/User/globalStorage/bmd.stm32-for-vscode/@xpack-dev-tools/arm-none-eabi-gcc/10.3.1-2.3.1/.content/arm-none-eabi/include/c++/10.3.1/arm-none-eabi/thumb/v7e-m+fp/hard/bits/gthr-default.h **** static inline int
  52:/Users/lawrencestanton/Library/Application Support/Code/User/globalStorage/bmd.stm32-for-vscode/@xpack-dev-tools/arm-none-eabi-gcc/10.3.1-2.3.1/.content/arm-none-eabi/include/c++/10.3.1/arm-none-eabi/thumb/v7e-m+fp/hard/bits/gthr-default.h **** __gthread_objc_init_thread_system (void)
  53:/Users/lawrencestanton/Library/Application Support/Code/User/globalStorage/bmd.stm32-for-vscode/@xpack-dev-tools/arm-none-eabi-gcc/10.3.1-2.3.1/.content/arm-none-eabi/include/c++/10.3.1/arm-none-eabi/thumb/v7e-m+fp/hard/bits/gthr-default.h **** {
  54:/Users/lawrencestanton/Library/Application Support/Code/User/globalStorage/bmd.stm32-for-vscode/@xpack-dev-tools/arm-none-eabi-gcc/10.3.1-2.3.1/.content/arm-none-eabi/include/c++/10.3.1/arm-none-eabi/thumb/v7e-m+fp/hard/bits/gthr-default.h ****   /* No thread support available */
  55:/Users/lawrencestanton/Library/Application Support/Code/User/globalStorage/bmd.stm32-for-vscode/@xpack-dev-tools/arm-none-eabi-gcc/10.3.1-2.3.1/.content/arm-none-eabi/include/c++/10.3.1/arm-none-eabi/thumb/v7e-m+fp/hard/bits/gthr-default.h ****   return -1;
  56:/Users/lawrencestanton/Library/Application Support/Code/User/globalStorage/bmd.stm32-for-vscode/@xpack-dev-tools/arm-none-eabi-gcc/10.3.1-2.3.1/.content/arm-none-eabi/include/c++/10.3.1/arm-none-eabi/thumb/v7e-m+fp/hard/bits/gthr-default.h **** }
  57:/Users/lawrencestanton/Library/Application Support/Code/User/globalStorage/bmd.stm32-for-vscode/@xpack-dev-tools/arm-none-eabi-gcc/10.3.1-2.3.1/.content/arm-none-eabi/include/c++/10.3.1/arm-none-eabi/thumb/v7e-m+fp/hard/bits/gthr-default.h **** 
  58:/Users/lawrencestanton/Library/Application Support/Code/User/globalStorage/bmd.stm32-for-vscode/@xpack-dev-tools/arm-none-eabi-gcc/10.3.1-2.3.1/.content/arm-none-eabi/include/c++/10.3.1/arm-none-eabi/thumb/v7e-m+fp/hard/bits/gthr-default.h **** /* Close the threads subsystem.  */
  59:/Users/lawrencestanton/Library/Application Support/Code/User/globalStorage/bmd.stm32-for-vscode/@xpack-dev-tools/arm-none-eabi-gcc/10.3.1-2.3.1/.content/arm-none-eabi/include/c++/10.3.1/arm-none-eabi/thumb/v7e-m+fp/hard/bits/gthr-default.h **** static inline int
  60:/Users/lawrencestanton/Library/Application Support/Code/User/globalStorage/bmd.stm32-for-vscode/@xpack-dev-tools/arm-none-eabi-gcc/10.3.1-2.3.1/.content/arm-none-eabi/include/c++/10.3.1/arm-none-eabi/thumb/v7e-m+fp/hard/bits/gthr-default.h **** __gthread_objc_close_thread_system (void)
  61:/Users/lawrencestanton/Library/Application Support/Code/User/globalStorage/bmd.stm32-for-vscode/@xpack-dev-tools/arm-none-eabi-gcc/10.3.1-2.3.1/.content/arm-none-eabi/include/c++/10.3.1/arm-none-eabi/thumb/v7e-m+fp/hard/bits/gthr-default.h **** {
  62:/Users/lawrencestanton/Library/Application Support/Code/User/globalStorage/bmd.stm32-for-vscode/@xpack-dev-tools/arm-none-eabi-gcc/10.3.1-2.3.1/.content/arm-none-eabi/include/c++/10.3.1/arm-none-eabi/thumb/v7e-m+fp/hard/bits/gthr-default.h ****   /* No thread support available */
  63:/Users/lawrencestanton/Library/Application Support/Code/User/globalStorage/bmd.stm32-for-vscode/@xpack-dev-tools/arm-none-eabi-gcc/10.3.1-2.3.1/.content/arm-none-eabi/include/c++/10.3.1/arm-none-eabi/thumb/v7e-m+fp/hard/bits/gthr-default.h ****   return -1;
  64:/Users/lawrencestanton/Library/Application Support/Code/User/globalStorage/bmd.stm32-for-vscode/@xpack-dev-tools/arm-none-eabi-gcc/10.3.1-2.3.1/.content/arm-none-eabi/include/c++/10.3.1/arm-none-eabi/thumb/v7e-m+fp/hard/bits/gthr-default.h **** }
  65:/Users/lawrencestanton/Library/Application Support/Code/User/globalStorage/bmd.stm32-for-vscode/@xpack-dev-tools/arm-none-eabi-gcc/10.3.1-2.3.1/.content/arm-none-eabi/include/c++/10.3.1/arm-none-eabi/thumb/v7e-m+fp/hard/bits/gthr-default.h **** 
  66:/Users/lawrencestanton/Library/Application Support/Code/User/globalStorage/bmd.stm32-for-vscode/@xpack-dev-tools/arm-none-eabi-gcc/10.3.1-2.3.1/.content/arm-none-eabi/include/c++/10.3.1/arm-none-eabi/thumb/v7e-m+fp/hard/bits/gthr-default.h **** /* Backend thread functions */
  67:/Users/lawrencestanton/Library/Application Support/Code/User/globalStorage/bmd.stm32-for-vscode/@xpack-dev-tools/arm-none-eabi-gcc/10.3.1-2.3.1/.content/arm-none-eabi/include/c++/10.3.1/arm-none-eabi/thumb/v7e-m+fp/hard/bits/gthr-default.h **** 
  68:/Users/lawrencestanton/Library/Application Support/Code/User/globalStorage/bmd.stm32-for-vscode/@xpack-dev-tools/arm-none-eabi-gcc/10.3.1-2.3.1/.content/arm-none-eabi/include/c++/10.3.1/arm-none-eabi/thumb/v7e-m+fp/hard/bits/gthr-default.h **** /* Create a new thread of execution.  */
  69:/Users/lawrencestanton/Library/Application Support/Code/User/globalStorage/bmd.stm32-for-vscode/@xpack-dev-tools/arm-none-eabi-gcc/10.3.1-2.3.1/.content/arm-none-eabi/include/c++/10.3.1/arm-none-eabi/thumb/v7e-m+fp/hard/bits/gthr-default.h **** static inline objc_thread_t
  70:/Users/lawrencestanton/Library/Application Support/Code/User/globalStorage/bmd.stm32-for-vscode/@xpack-dev-tools/arm-none-eabi-gcc/10.3.1-2.3.1/.content/arm-none-eabi/include/c++/10.3.1/arm-none-eabi/thumb/v7e-m+fp/hard/bits/gthr-default.h **** __gthread_objc_thread_detach (void (* func)(void *), void * arg _GLIBCXX_UNUSED)
  71:/Users/lawrencestanton/Library/Application Support/Code/User/globalStorage/bmd.stm32-for-vscode/@xpack-dev-tools/arm-none-eabi-gcc/10.3.1-2.3.1/.content/arm-none-eabi/include/c++/10.3.1/arm-none-eabi/thumb/v7e-m+fp/hard/bits/gthr-default.h **** {
  72:/Users/lawrencestanton/Library/Application Support/Code/User/globalStorage/bmd.stm32-for-vscode/@xpack-dev-tools/arm-none-eabi-gcc/10.3.1-2.3.1/.content/arm-none-eabi/include/c++/10.3.1/arm-none-eabi/thumb/v7e-m+fp/hard/bits/gthr-default.h ****   /* No thread support available */
  73:/Users/lawrencestanton/Library/Application Support/Code/User/globalStorage/bmd.stm32-for-vscode/@xpack-dev-tools/arm-none-eabi-gcc/10.3.1-2.3.1/.content/arm-none-eabi/include/c++/10.3.1/arm-none-eabi/thumb/v7e-m+fp/hard/bits/gthr-default.h ****   return NULL;
  74:/Users/lawrencestanton/Library/Application Support/Code/User/globalStorage/bmd.stm32-for-vscode/@xpack-dev-tools/arm-none-eabi-gcc/10.3.1-2.3.1/.content/arm-none-eabi/include/c++/10.3.1/arm-none-eabi/thumb/v7e-m+fp/hard/bits/gthr-default.h **** }
  75:/Users/lawrencestanton/Library/Application Support/Code/User/globalStorage/bmd.stm32-for-vscode/@xpack-dev-tools/arm-none-eabi-gcc/10.3.1-2.3.1/.content/arm-none-eabi/include/c++/10.3.1/arm-none-eabi/thumb/v7e-m+fp/hard/bits/gthr-default.h **** 
  76:/Users/lawrencestanton/Library/Application Support/Code/User/globalStorage/bmd.stm32-for-vscode/@xpack-dev-tools/arm-none-eabi-gcc/10.3.1-2.3.1/.content/arm-none-eabi/include/c++/10.3.1/arm-none-eabi/thumb/v7e-m+fp/hard/bits/gthr-default.h **** /* Set the current thread's priority.  */
  77:/Users/lawrencestanton/Library/Application Support/Code/User/globalStorage/bmd.stm32-for-vscode/@xpack-dev-tools/arm-none-eabi-gcc/10.3.1-2.3.1/.content/arm-none-eabi/include/c++/10.3.1/arm-none-eabi/thumb/v7e-m+fp/hard/bits/gthr-default.h **** static inline int
  78:/Users/lawrencestanton/Library/Application Support/Code/User/globalStorage/bmd.stm32-for-vscode/@xpack-dev-tools/arm-none-eabi-gcc/10.3.1-2.3.1/.content/arm-none-eabi/include/c++/10.3.1/arm-none-eabi/thumb/v7e-m+fp/hard/bits/gthr-default.h **** __gthread_objc_thread_set_priority (int priority _GLIBCXX_UNUSED)
  79:/Users/lawrencestanton/Library/Application Support/Code/User/globalStorage/bmd.stm32-for-vscode/@xpack-dev-tools/arm-none-eabi-gcc/10.3.1-2.3.1/.content/arm-none-eabi/include/c++/10.3.1/arm-none-eabi/thumb/v7e-m+fp/hard/bits/gthr-default.h **** {
  80:/Users/lawrencestanton/Library/Application Support/Code/User/globalStorage/bmd.stm32-for-vscode/@xpack-dev-tools/arm-none-eabi-gcc/10.3.1-2.3.1/.content/arm-none-eabi/include/c++/10.3.1/arm-none-eabi/thumb/v7e-m+fp/hard/bits/gthr-default.h ****   /* No thread support available */
  81:/Users/lawrencestanton/Library/Application Support/Code/User/globalStorage/bmd.stm32-for-vscode/@xpack-dev-tools/arm-none-eabi-gcc/10.3.1-2.3.1/.content/arm-none-eabi/include/c++/10.3.1/arm-none-eabi/thumb/v7e-m+fp/hard/bits/gthr-default.h ****   return -1;
  82:/Users/lawrencestanton/Library/Application Support/Code/User/globalStorage/bmd.stm32-for-vscode/@xpack-dev-tools/arm-none-eabi-gcc/10.3.1-2.3.1/.content/arm-none-eabi/include/c++/10.3.1/arm-none-eabi/thumb/v7e-m+fp/hard/bits/gthr-default.h **** }
  83:/Users/lawrencestanton/Library/Application Support/Code/User/globalStorage/bmd.stm32-for-vscode/@xpack-dev-tools/arm-none-eabi-gcc/10.3.1-2.3.1/.content/arm-none-eabi/include/c++/10.3.1/arm-none-eabi/thumb/v7e-m+fp/hard/bits/gthr-default.h **** 
ARM GAS  /var/folders/bb/dhrb69655gd8t4nf464nxc_00000gn/T//ccyYPrc2.s 			page 3


  84:/Users/lawrencestanton/Library/Application Support/Code/User/globalStorage/bmd.stm32-for-vscode/@xpack-dev-tools/arm-none-eabi-gcc/10.3.1-2.3.1/.content/arm-none-eabi/include/c++/10.3.1/arm-none-eabi/thumb/v7e-m+fp/hard/bits/gthr-default.h **** /* Return the current thread's priority.  */
  85:/Users/lawrencestanton/Library/Application Support/Code/User/globalStorage/bmd.stm32-for-vscode/@xpack-dev-tools/arm-none-eabi-gcc/10.3.1-2.3.1/.content/arm-none-eabi/include/c++/10.3.1/arm-none-eabi/thumb/v7e-m+fp/hard/bits/gthr-default.h **** static inline int
  86:/Users/lawrencestanton/Library/Application Support/Code/User/globalStorage/bmd.stm32-for-vscode/@xpack-dev-tools/arm-none-eabi-gcc/10.3.1-2.3.1/.content/arm-none-eabi/include/c++/10.3.1/arm-none-eabi/thumb/v7e-m+fp/hard/bits/gthr-default.h **** __gthread_objc_thread_get_priority (void)
  87:/Users/lawrencestanton/Library/Application Support/Code/User/globalStorage/bmd.stm32-for-vscode/@xpack-dev-tools/arm-none-eabi-gcc/10.3.1-2.3.1/.content/arm-none-eabi/include/c++/10.3.1/arm-none-eabi/thumb/v7e-m+fp/hard/bits/gthr-default.h **** {
  88:/Users/lawrencestanton/Library/Application Support/Code/User/globalStorage/bmd.stm32-for-vscode/@xpack-dev-tools/arm-none-eabi-gcc/10.3.1-2.3.1/.content/arm-none-eabi/include/c++/10.3.1/arm-none-eabi/thumb/v7e-m+fp/hard/bits/gthr-default.h ****   return OBJC_THREAD_INTERACTIVE_PRIORITY;
  89:/Users/lawrencestanton/Library/Application Support/Code/User/globalStorage/bmd.stm32-for-vscode/@xpack-dev-tools/arm-none-eabi-gcc/10.3.1-2.3.1/.content/arm-none-eabi/include/c++/10.3.1/arm-none-eabi/thumb/v7e-m+fp/hard/bits/gthr-default.h **** }
  90:/Users/lawrencestanton/Library/Application Support/Code/User/globalStorage/bmd.stm32-for-vscode/@xpack-dev-tools/arm-none-eabi-gcc/10.3.1-2.3.1/.content/arm-none-eabi/include/c++/10.3.1/arm-none-eabi/thumb/v7e-m+fp/hard/bits/gthr-default.h **** 
  91:/Users/lawrencestanton/Library/Application Support/Code/User/globalStorage/bmd.stm32-for-vscode/@xpack-dev-tools/arm-none-eabi-gcc/10.3.1-2.3.1/.content/arm-none-eabi/include/c++/10.3.1/arm-none-eabi/thumb/v7e-m+fp/hard/bits/gthr-default.h **** /* Yield our process time to another thread.  */
  92:/Users/lawrencestanton/Library/Application Support/Code/User/globalStorage/bmd.stm32-for-vscode/@xpack-dev-tools/arm-none-eabi-gcc/10.3.1-2.3.1/.content/arm-none-eabi/include/c++/10.3.1/arm-none-eabi/thumb/v7e-m+fp/hard/bits/gthr-default.h **** static inline void
  93:/Users/lawrencestanton/Library/Application Support/Code/User/globalStorage/bmd.stm32-for-vscode/@xpack-dev-tools/arm-none-eabi-gcc/10.3.1-2.3.1/.content/arm-none-eabi/include/c++/10.3.1/arm-none-eabi/thumb/v7e-m+fp/hard/bits/gthr-default.h **** __gthread_objc_thread_yield (void)
  94:/Users/lawrencestanton/Library/Application Support/Code/User/globalStorage/bmd.stm32-for-vscode/@xpack-dev-tools/arm-none-eabi-gcc/10.3.1-2.3.1/.content/arm-none-eabi/include/c++/10.3.1/arm-none-eabi/thumb/v7e-m+fp/hard/bits/gthr-default.h **** {
  95:/Users/lawrencestanton/Library/Application Support/Code/User/globalStorage/bmd.stm32-for-vscode/@xpack-dev-tools/arm-none-eabi-gcc/10.3.1-2.3.1/.content/arm-none-eabi/include/c++/10.3.1/arm-none-eabi/thumb/v7e-m+fp/hard/bits/gthr-default.h ****   return;
  96:/Users/lawrencestanton/Library/Application Support/Code/User/globalStorage/bmd.stm32-for-vscode/@xpack-dev-tools/arm-none-eabi-gcc/10.3.1-2.3.1/.content/arm-none-eabi/include/c++/10.3.1/arm-none-eabi/thumb/v7e-m+fp/hard/bits/gthr-default.h **** }
  97:/Users/lawrencestanton/Library/Application Support/Code/User/globalStorage/bmd.stm32-for-vscode/@xpack-dev-tools/arm-none-eabi-gcc/10.3.1-2.3.1/.content/arm-none-eabi/include/c++/10.3.1/arm-none-eabi/thumb/v7e-m+fp/hard/bits/gthr-default.h **** 
  98:/Users/lawrencestanton/Library/Application Support/Code/User/globalStorage/bmd.stm32-for-vscode/@xpack-dev-tools/arm-none-eabi-gcc/10.3.1-2.3.1/.content/arm-none-eabi/include/c++/10.3.1/arm-none-eabi/thumb/v7e-m+fp/hard/bits/gthr-default.h **** /* Terminate the current thread.  */
  99:/Users/lawrencestanton/Library/Application Support/Code/User/globalStorage/bmd.stm32-for-vscode/@xpack-dev-tools/arm-none-eabi-gcc/10.3.1-2.3.1/.content/arm-none-eabi/include/c++/10.3.1/arm-none-eabi/thumb/v7e-m+fp/hard/bits/gthr-default.h **** static inline int
 100:/Users/lawrencestanton/Library/Application Support/Code/User/globalStorage/bmd.stm32-for-vscode/@xpack-dev-tools/arm-none-eabi-gcc/10.3.1-2.3.1/.content/arm-none-eabi/include/c++/10.3.1/arm-none-eabi/thumb/v7e-m+fp/hard/bits/gthr-default.h **** __gthread_objc_thread_exit (void)
 101:/Users/lawrencestanton/Library/Application Support/Code/User/globalStorage/bmd.stm32-for-vscode/@xpack-dev-tools/arm-none-eabi-gcc/10.3.1-2.3.1/.content/arm-none-eabi/include/c++/10.3.1/arm-none-eabi/thumb/v7e-m+fp/hard/bits/gthr-default.h **** {
 102:/Users/lawrencestanton/Library/Application Support/Code/User/globalStorage/bmd.stm32-for-vscode/@xpack-dev-tools/arm-none-eabi-gcc/10.3.1-2.3.1/.content/arm-none-eabi/include/c++/10.3.1/arm-none-eabi/thumb/v7e-m+fp/hard/bits/gthr-default.h ****   /* No thread support available */
 103:/Users/lawrencestanton/Library/Application Support/Code/User/globalStorage/bmd.stm32-for-vscode/@xpack-dev-tools/arm-none-eabi-gcc/10.3.1-2.3.1/.content/arm-none-eabi/include/c++/10.3.1/arm-none-eabi/thumb/v7e-m+fp/hard/bits/gthr-default.h ****   /* Should we really exit the program */
 104:/Users/lawrencestanton/Library/Application Support/Code/User/globalStorage/bmd.stm32-for-vscode/@xpack-dev-tools/arm-none-eabi-gcc/10.3.1-2.3.1/.content/arm-none-eabi/include/c++/10.3.1/arm-none-eabi/thumb/v7e-m+fp/hard/bits/gthr-default.h ****   /* exit (&__objc_thread_exit_status); */
 105:/Users/lawrencestanton/Library/Application Support/Code/User/globalStorage/bmd.stm32-for-vscode/@xpack-dev-tools/arm-none-eabi-gcc/10.3.1-2.3.1/.content/arm-none-eabi/include/c++/10.3.1/arm-none-eabi/thumb/v7e-m+fp/hard/bits/gthr-default.h ****   return -1;
 106:/Users/lawrencestanton/Library/Application Support/Code/User/globalStorage/bmd.stm32-for-vscode/@xpack-dev-tools/arm-none-eabi-gcc/10.3.1-2.3.1/.content/arm-none-eabi/include/c++/10.3.1/arm-none-eabi/thumb/v7e-m+fp/hard/bits/gthr-default.h **** }
 107:/Users/lawrencestanton/Library/Application Support/Code/User/globalStorage/bmd.stm32-for-vscode/@xpack-dev-tools/arm-none-eabi-gcc/10.3.1-2.3.1/.content/arm-none-eabi/include/c++/10.3.1/arm-none-eabi/thumb/v7e-m+fp/hard/bits/gthr-default.h **** 
 108:/Users/lawrencestanton/Library/Application Support/Code/User/globalStorage/bmd.stm32-for-vscode/@xpack-dev-tools/arm-none-eabi-gcc/10.3.1-2.3.1/.content/arm-none-eabi/include/c++/10.3.1/arm-none-eabi/thumb/v7e-m+fp/hard/bits/gthr-default.h **** /* Returns an integer value which uniquely describes a thread.  */
 109:/Users/lawrencestanton/Library/Application Support/Code/User/globalStorage/bmd.stm32-for-vscode/@xpack-dev-tools/arm-none-eabi-gcc/10.3.1-2.3.1/.content/arm-none-eabi/include/c++/10.3.1/arm-none-eabi/thumb/v7e-m+fp/hard/bits/gthr-default.h **** static inline objc_thread_t
 110:/Users/lawrencestanton/Library/Application Support/Code/User/globalStorage/bmd.stm32-for-vscode/@xpack-dev-tools/arm-none-eabi-gcc/10.3.1-2.3.1/.content/arm-none-eabi/include/c++/10.3.1/arm-none-eabi/thumb/v7e-m+fp/hard/bits/gthr-default.h **** __gthread_objc_thread_id (void)
 111:/Users/lawrencestanton/Library/Application Support/Code/User/globalStorage/bmd.stm32-for-vscode/@xpack-dev-tools/arm-none-eabi-gcc/10.3.1-2.3.1/.content/arm-none-eabi/include/c++/10.3.1/arm-none-eabi/thumb/v7e-m+fp/hard/bits/gthr-default.h **** {
 112:/Users/lawrencestanton/Library/Application Support/Code/User/globalStorage/bmd.stm32-for-vscode/@xpack-dev-tools/arm-none-eabi-gcc/10.3.1-2.3.1/.content/arm-none-eabi/include/c++/10.3.1/arm-none-eabi/thumb/v7e-m+fp/hard/bits/gthr-default.h ****   /* No thread support, use 1.  */
 113:/Users/lawrencestanton/Library/Application Support/Code/User/globalStorage/bmd.stm32-for-vscode/@xpack-dev-tools/arm-none-eabi-gcc/10.3.1-2.3.1/.content/arm-none-eabi/include/c++/10.3.1/arm-none-eabi/thumb/v7e-m+fp/hard/bits/gthr-default.h ****   return (objc_thread_t) 1;
 114:/Users/lawrencestanton/Library/Application Support/Code/User/globalStorage/bmd.stm32-for-vscode/@xpack-dev-tools/arm-none-eabi-gcc/10.3.1-2.3.1/.content/arm-none-eabi/include/c++/10.3.1/arm-none-eabi/thumb/v7e-m+fp/hard/bits/gthr-default.h **** }
 115:/Users/lawrencestanton/Library/Application Support/Code/User/globalStorage/bmd.stm32-for-vscode/@xpack-dev-tools/arm-none-eabi-gcc/10.3.1-2.3.1/.content/arm-none-eabi/include/c++/10.3.1/arm-none-eabi/thumb/v7e-m+fp/hard/bits/gthr-default.h **** 
 116:/Users/lawrencestanton/Library/Application Support/Code/User/globalStorage/bmd.stm32-for-vscode/@xpack-dev-tools/arm-none-eabi-gcc/10.3.1-2.3.1/.content/arm-none-eabi/include/c++/10.3.1/arm-none-eabi/thumb/v7e-m+fp/hard/bits/gthr-default.h **** /* Sets the thread's local storage pointer.  */
 117:/Users/lawrencestanton/Library/Application Support/Code/User/globalStorage/bmd.stm32-for-vscode/@xpack-dev-tools/arm-none-eabi-gcc/10.3.1-2.3.1/.content/arm-none-eabi/include/c++/10.3.1/arm-none-eabi/thumb/v7e-m+fp/hard/bits/gthr-default.h **** static inline int
 118:/Users/lawrencestanton/Library/Application Support/Code/User/globalStorage/bmd.stm32-for-vscode/@xpack-dev-tools/arm-none-eabi-gcc/10.3.1-2.3.1/.content/arm-none-eabi/include/c++/10.3.1/arm-none-eabi/thumb/v7e-m+fp/hard/bits/gthr-default.h **** __gthread_objc_thread_set_data (void *value)
 119:/Users/lawrencestanton/Library/Application Support/Code/User/globalStorage/bmd.stm32-for-vscode/@xpack-dev-tools/arm-none-eabi-gcc/10.3.1-2.3.1/.content/arm-none-eabi/include/c++/10.3.1/arm-none-eabi/thumb/v7e-m+fp/hard/bits/gthr-default.h **** {
 120:/Users/lawrencestanton/Library/Application Support/Code/User/globalStorage/bmd.stm32-for-vscode/@xpack-dev-tools/arm-none-eabi-gcc/10.3.1-2.3.1/.content/arm-none-eabi/include/c++/10.3.1/arm-none-eabi/thumb/v7e-m+fp/hard/bits/gthr-default.h ****   thread_local_storage = value;
 121:/Users/lawrencestanton/Library/Application Support/Code/User/globalStorage/bmd.stm32-for-vscode/@xpack-dev-tools/arm-none-eabi-gcc/10.3.1-2.3.1/.content/arm-none-eabi/include/c++/10.3.1/arm-none-eabi/thumb/v7e-m+fp/hard/bits/gthr-default.h ****   return 0;
 122:/Users/lawrencestanton/Library/Application Support/Code/User/globalStorage/bmd.stm32-for-vscode/@xpack-dev-tools/arm-none-eabi-gcc/10.3.1-2.3.1/.content/arm-none-eabi/include/c++/10.3.1/arm-none-eabi/thumb/v7e-m+fp/hard/bits/gthr-default.h **** }
 123:/Users/lawrencestanton/Library/Application Support/Code/User/globalStorage/bmd.stm32-for-vscode/@xpack-dev-tools/arm-none-eabi-gcc/10.3.1-2.3.1/.content/arm-none-eabi/include/c++/10.3.1/arm-none-eabi/thumb/v7e-m+fp/hard/bits/gthr-default.h **** 
 124:/Users/lawrencestanton/Library/Application Support/Code/User/globalStorage/bmd.stm32-for-vscode/@xpack-dev-tools/arm-none-eabi-gcc/10.3.1-2.3.1/.content/arm-none-eabi/include/c++/10.3.1/arm-none-eabi/thumb/v7e-m+fp/hard/bits/gthr-default.h **** /* Returns the thread's local storage pointer.  */
 125:/Users/lawrencestanton/Library/Application Support/Code/User/globalStorage/bmd.stm32-for-vscode/@xpack-dev-tools/arm-none-eabi-gcc/10.3.1-2.3.1/.content/arm-none-eabi/include/c++/10.3.1/arm-none-eabi/thumb/v7e-m+fp/hard/bits/gthr-default.h **** static inline void *
 126:/Users/lawrencestanton/Library/Application Support/Code/User/globalStorage/bmd.stm32-for-vscode/@xpack-dev-tools/arm-none-eabi-gcc/10.3.1-2.3.1/.content/arm-none-eabi/include/c++/10.3.1/arm-none-eabi/thumb/v7e-m+fp/hard/bits/gthr-default.h **** __gthread_objc_thread_get_data (void)
 127:/Users/lawrencestanton/Library/Application Support/Code/User/globalStorage/bmd.stm32-for-vscode/@xpack-dev-tools/arm-none-eabi-gcc/10.3.1-2.3.1/.content/arm-none-eabi/include/c++/10.3.1/arm-none-eabi/thumb/v7e-m+fp/hard/bits/gthr-default.h **** {
 128:/Users/lawrencestanton/Library/Application Support/Code/User/globalStorage/bmd.stm32-for-vscode/@xpack-dev-tools/arm-none-eabi-gcc/10.3.1-2.3.1/.content/arm-none-eabi/include/c++/10.3.1/arm-none-eabi/thumb/v7e-m+fp/hard/bits/gthr-default.h ****   return thread_local_storage;
 129:/Users/lawrencestanton/Library/Application Support/Code/User/globalStorage/bmd.stm32-for-vscode/@xpack-dev-tools/arm-none-eabi-gcc/10.3.1-2.3.1/.content/arm-none-eabi/include/c++/10.3.1/arm-none-eabi/thumb/v7e-m+fp/hard/bits/gthr-default.h **** }
 130:/Users/lawrencestanton/Library/Application Support/Code/User/globalStorage/bmd.stm32-for-vscode/@xpack-dev-tools/arm-none-eabi-gcc/10.3.1-2.3.1/.content/arm-none-eabi/include/c++/10.3.1/arm-none-eabi/thumb/v7e-m+fp/hard/bits/gthr-default.h **** 
 131:/Users/lawrencestanton/Library/Application Support/Code/User/globalStorage/bmd.stm32-for-vscode/@xpack-dev-tools/arm-none-eabi-gcc/10.3.1-2.3.1/.content/arm-none-eabi/include/c++/10.3.1/arm-none-eabi/thumb/v7e-m+fp/hard/bits/gthr-default.h **** /* Backend mutex functions */
 132:/Users/lawrencestanton/Library/Application Support/Code/User/globalStorage/bmd.stm32-for-vscode/@xpack-dev-tools/arm-none-eabi-gcc/10.3.1-2.3.1/.content/arm-none-eabi/include/c++/10.3.1/arm-none-eabi/thumb/v7e-m+fp/hard/bits/gthr-default.h **** 
 133:/Users/lawrencestanton/Library/Application Support/Code/User/globalStorage/bmd.stm32-for-vscode/@xpack-dev-tools/arm-none-eabi-gcc/10.3.1-2.3.1/.content/arm-none-eabi/include/c++/10.3.1/arm-none-eabi/thumb/v7e-m+fp/hard/bits/gthr-default.h **** /* Allocate a mutex.  */
 134:/Users/lawrencestanton/Library/Application Support/Code/User/globalStorage/bmd.stm32-for-vscode/@xpack-dev-tools/arm-none-eabi-gcc/10.3.1-2.3.1/.content/arm-none-eabi/include/c++/10.3.1/arm-none-eabi/thumb/v7e-m+fp/hard/bits/gthr-default.h **** static inline int
 135:/Users/lawrencestanton/Library/Application Support/Code/User/globalStorage/bmd.stm32-for-vscode/@xpack-dev-tools/arm-none-eabi-gcc/10.3.1-2.3.1/.content/arm-none-eabi/include/c++/10.3.1/arm-none-eabi/thumb/v7e-m+fp/hard/bits/gthr-default.h **** __gthread_objc_mutex_allocate (objc_mutex_t mutex _GLIBCXX_UNUSED)
 136:/Users/lawrencestanton/Library/Application Support/Code/User/globalStorage/bmd.stm32-for-vscode/@xpack-dev-tools/arm-none-eabi-gcc/10.3.1-2.3.1/.content/arm-none-eabi/include/c++/10.3.1/arm-none-eabi/thumb/v7e-m+fp/hard/bits/gthr-default.h **** {
 137:/Users/lawrencestanton/Library/Application Support/Code/User/globalStorage/bmd.stm32-for-vscode/@xpack-dev-tools/arm-none-eabi-gcc/10.3.1-2.3.1/.content/arm-none-eabi/include/c++/10.3.1/arm-none-eabi/thumb/v7e-m+fp/hard/bits/gthr-default.h ****   return 0;
 138:/Users/lawrencestanton/Library/Application Support/Code/User/globalStorage/bmd.stm32-for-vscode/@xpack-dev-tools/arm-none-eabi-gcc/10.3.1-2.3.1/.content/arm-none-eabi/include/c++/10.3.1/arm-none-eabi/thumb/v7e-m+fp/hard/bits/gthr-default.h **** }
 139:/Users/lawrencestanton/Library/Application Support/Code/User/globalStorage/bmd.stm32-for-vscode/@xpack-dev-tools/arm-none-eabi-gcc/10.3.1-2.3.1/.content/arm-none-eabi/include/c++/10.3.1/arm-none-eabi/thumb/v7e-m+fp/hard/bits/gthr-default.h **** 
 140:/Users/lawrencestanton/Library/Application Support/Code/User/globalStorage/bmd.stm32-for-vscode/@xpack-dev-tools/arm-none-eabi-gcc/10.3.1-2.3.1/.content/arm-none-eabi/include/c++/10.3.1/arm-none-eabi/thumb/v7e-m+fp/hard/bits/gthr-default.h **** /* Deallocate a mutex.  */
ARM GAS  /var/folders/bb/dhrb69655gd8t4nf464nxc_00000gn/T//ccyYPrc2.s 			page 4


 141:/Users/lawrencestanton/Library/Application Support/Code/User/globalStorage/bmd.stm32-for-vscode/@xpack-dev-tools/arm-none-eabi-gcc/10.3.1-2.3.1/.content/arm-none-eabi/include/c++/10.3.1/arm-none-eabi/thumb/v7e-m+fp/hard/bits/gthr-default.h **** static inline int
 142:/Users/lawrencestanton/Library/Application Support/Code/User/globalStorage/bmd.stm32-for-vscode/@xpack-dev-tools/arm-none-eabi-gcc/10.3.1-2.3.1/.content/arm-none-eabi/include/c++/10.3.1/arm-none-eabi/thumb/v7e-m+fp/hard/bits/gthr-default.h **** __gthread_objc_mutex_deallocate (objc_mutex_t mutex _GLIBCXX_UNUSED)
 143:/Users/lawrencestanton/Library/Application Support/Code/User/globalStorage/bmd.stm32-for-vscode/@xpack-dev-tools/arm-none-eabi-gcc/10.3.1-2.3.1/.content/arm-none-eabi/include/c++/10.3.1/arm-none-eabi/thumb/v7e-m+fp/hard/bits/gthr-default.h **** {
 144:/Users/lawrencestanton/Library/Application Support/Code/User/globalStorage/bmd.stm32-for-vscode/@xpack-dev-tools/arm-none-eabi-gcc/10.3.1-2.3.1/.content/arm-none-eabi/include/c++/10.3.1/arm-none-eabi/thumb/v7e-m+fp/hard/bits/gthr-default.h ****   return 0;
 145:/Users/lawrencestanton/Library/Application Support/Code/User/globalStorage/bmd.stm32-for-vscode/@xpack-dev-tools/arm-none-eabi-gcc/10.3.1-2.3.1/.content/arm-none-eabi/include/c++/10.3.1/arm-none-eabi/thumb/v7e-m+fp/hard/bits/gthr-default.h **** }
 146:/Users/lawrencestanton/Library/Application Support/Code/User/globalStorage/bmd.stm32-for-vscode/@xpack-dev-tools/arm-none-eabi-gcc/10.3.1-2.3.1/.content/arm-none-eabi/include/c++/10.3.1/arm-none-eabi/thumb/v7e-m+fp/hard/bits/gthr-default.h **** 
 147:/Users/lawrencestanton/Library/Application Support/Code/User/globalStorage/bmd.stm32-for-vscode/@xpack-dev-tools/arm-none-eabi-gcc/10.3.1-2.3.1/.content/arm-none-eabi/include/c++/10.3.1/arm-none-eabi/thumb/v7e-m+fp/hard/bits/gthr-default.h **** /* Grab a lock on a mutex.  */
 148:/Users/lawrencestanton/Library/Application Support/Code/User/globalStorage/bmd.stm32-for-vscode/@xpack-dev-tools/arm-none-eabi-gcc/10.3.1-2.3.1/.content/arm-none-eabi/include/c++/10.3.1/arm-none-eabi/thumb/v7e-m+fp/hard/bits/gthr-default.h **** static inline int
 149:/Users/lawrencestanton/Library/Application Support/Code/User/globalStorage/bmd.stm32-for-vscode/@xpack-dev-tools/arm-none-eabi-gcc/10.3.1-2.3.1/.content/arm-none-eabi/include/c++/10.3.1/arm-none-eabi/thumb/v7e-m+fp/hard/bits/gthr-default.h **** __gthread_objc_mutex_lock (objc_mutex_t mutex _GLIBCXX_UNUSED)
 150:/Users/lawrencestanton/Library/Application Support/Code/User/globalStorage/bmd.stm32-for-vscode/@xpack-dev-tools/arm-none-eabi-gcc/10.3.1-2.3.1/.content/arm-none-eabi/include/c++/10.3.1/arm-none-eabi/thumb/v7e-m+fp/hard/bits/gthr-default.h **** {
 151:/Users/lawrencestanton/Library/Application Support/Code/User/globalStorage/bmd.stm32-for-vscode/@xpack-dev-tools/arm-none-eabi-gcc/10.3.1-2.3.1/.content/arm-none-eabi/include/c++/10.3.1/arm-none-eabi/thumb/v7e-m+fp/hard/bits/gthr-default.h ****   /* There can only be one thread, so we always get the lock */
 152:/Users/lawrencestanton/Library/Application Support/Code/User/globalStorage/bmd.stm32-for-vscode/@xpack-dev-tools/arm-none-eabi-gcc/10.3.1-2.3.1/.content/arm-none-eabi/include/c++/10.3.1/arm-none-eabi/thumb/v7e-m+fp/hard/bits/gthr-default.h ****   return 0;
 153:/Users/lawrencestanton/Library/Application Support/Code/User/globalStorage/bmd.stm32-for-vscode/@xpack-dev-tools/arm-none-eabi-gcc/10.3.1-2.3.1/.content/arm-none-eabi/include/c++/10.3.1/arm-none-eabi/thumb/v7e-m+fp/hard/bits/gthr-default.h **** }
 154:/Users/lawrencestanton/Library/Application Support/Code/User/globalStorage/bmd.stm32-for-vscode/@xpack-dev-tools/arm-none-eabi-gcc/10.3.1-2.3.1/.content/arm-none-eabi/include/c++/10.3.1/arm-none-eabi/thumb/v7e-m+fp/hard/bits/gthr-default.h **** 
 155:/Users/lawrencestanton/Library/Application Support/Code/User/globalStorage/bmd.stm32-for-vscode/@xpack-dev-tools/arm-none-eabi-gcc/10.3.1-2.3.1/.content/arm-none-eabi/include/c++/10.3.1/arm-none-eabi/thumb/v7e-m+fp/hard/bits/gthr-default.h **** /* Try to grab a lock on a mutex.  */
 156:/Users/lawrencestanton/Library/Application Support/Code/User/globalStorage/bmd.stm32-for-vscode/@xpack-dev-tools/arm-none-eabi-gcc/10.3.1-2.3.1/.content/arm-none-eabi/include/c++/10.3.1/arm-none-eabi/thumb/v7e-m+fp/hard/bits/gthr-default.h **** static inline int
 157:/Users/lawrencestanton/Library/Application Support/Code/User/globalStorage/bmd.stm32-for-vscode/@xpack-dev-tools/arm-none-eabi-gcc/10.3.1-2.3.1/.content/arm-none-eabi/include/c++/10.3.1/arm-none-eabi/thumb/v7e-m+fp/hard/bits/gthr-default.h **** __gthread_objc_mutex_trylock (objc_mutex_t mutex _GLIBCXX_UNUSED)
 158:/Users/lawrencestanton/Library/Application Support/Code/User/globalStorage/bmd.stm32-for-vscode/@xpack-dev-tools/arm-none-eabi-gcc/10.3.1-2.3.1/.content/arm-none-eabi/include/c++/10.3.1/arm-none-eabi/thumb/v7e-m+fp/hard/bits/gthr-default.h **** {
 159:/Users/lawrencestanton/Library/Application Support/Code/User/globalStorage/bmd.stm32-for-vscode/@xpack-dev-tools/arm-none-eabi-gcc/10.3.1-2.3.1/.content/arm-none-eabi/include/c++/10.3.1/arm-none-eabi/thumb/v7e-m+fp/hard/bits/gthr-default.h ****   /* There can only be one thread, so we always get the lock */
 160:/Users/lawrencestanton/Library/Application Support/Code/User/globalStorage/bmd.stm32-for-vscode/@xpack-dev-tools/arm-none-eabi-gcc/10.3.1-2.3.1/.content/arm-none-eabi/include/c++/10.3.1/arm-none-eabi/thumb/v7e-m+fp/hard/bits/gthr-default.h ****   return 0;
 161:/Users/lawrencestanton/Library/Application Support/Code/User/globalStorage/bmd.stm32-for-vscode/@xpack-dev-tools/arm-none-eabi-gcc/10.3.1-2.3.1/.content/arm-none-eabi/include/c++/10.3.1/arm-none-eabi/thumb/v7e-m+fp/hard/bits/gthr-default.h **** }
 162:/Users/lawrencestanton/Library/Application Support/Code/User/globalStorage/bmd.stm32-for-vscode/@xpack-dev-tools/arm-none-eabi-gcc/10.3.1-2.3.1/.content/arm-none-eabi/include/c++/10.3.1/arm-none-eabi/thumb/v7e-m+fp/hard/bits/gthr-default.h **** 
 163:/Users/lawrencestanton/Library/Application Support/Code/User/globalStorage/bmd.stm32-for-vscode/@xpack-dev-tools/arm-none-eabi-gcc/10.3.1-2.3.1/.content/arm-none-eabi/include/c++/10.3.1/arm-none-eabi/thumb/v7e-m+fp/hard/bits/gthr-default.h **** /* Unlock the mutex */
 164:/Users/lawrencestanton/Library/Application Support/Code/User/globalStorage/bmd.stm32-for-vscode/@xpack-dev-tools/arm-none-eabi-gcc/10.3.1-2.3.1/.content/arm-none-eabi/include/c++/10.3.1/arm-none-eabi/thumb/v7e-m+fp/hard/bits/gthr-default.h **** static inline int
 165:/Users/lawrencestanton/Library/Application Support/Code/User/globalStorage/bmd.stm32-for-vscode/@xpack-dev-tools/arm-none-eabi-gcc/10.3.1-2.3.1/.content/arm-none-eabi/include/c++/10.3.1/arm-none-eabi/thumb/v7e-m+fp/hard/bits/gthr-default.h **** __gthread_objc_mutex_unlock (objc_mutex_t mutex _GLIBCXX_UNUSED)
 166:/Users/lawrencestanton/Library/Application Support/Code/User/globalStorage/bmd.stm32-for-vscode/@xpack-dev-tools/arm-none-eabi-gcc/10.3.1-2.3.1/.content/arm-none-eabi/include/c++/10.3.1/arm-none-eabi/thumb/v7e-m+fp/hard/bits/gthr-default.h **** {
 167:/Users/lawrencestanton/Library/Application Support/Code/User/globalStorage/bmd.stm32-for-vscode/@xpack-dev-tools/arm-none-eabi-gcc/10.3.1-2.3.1/.content/arm-none-eabi/include/c++/10.3.1/arm-none-eabi/thumb/v7e-m+fp/hard/bits/gthr-default.h ****   return 0;
 168:/Users/lawrencestanton/Library/Application Support/Code/User/globalStorage/bmd.stm32-for-vscode/@xpack-dev-tools/arm-none-eabi-gcc/10.3.1-2.3.1/.content/arm-none-eabi/include/c++/10.3.1/arm-none-eabi/thumb/v7e-m+fp/hard/bits/gthr-default.h **** }
 169:/Users/lawrencestanton/Library/Application Support/Code/User/globalStorage/bmd.stm32-for-vscode/@xpack-dev-tools/arm-none-eabi-gcc/10.3.1-2.3.1/.content/arm-none-eabi/include/c++/10.3.1/arm-none-eabi/thumb/v7e-m+fp/hard/bits/gthr-default.h **** 
 170:/Users/lawrencestanton/Library/Application Support/Code/User/globalStorage/bmd.stm32-for-vscode/@xpack-dev-tools/arm-none-eabi-gcc/10.3.1-2.3.1/.content/arm-none-eabi/include/c++/10.3.1/arm-none-eabi/thumb/v7e-m+fp/hard/bits/gthr-default.h **** /* Backend condition mutex functions */
 171:/Users/lawrencestanton/Library/Application Support/Code/User/globalStorage/bmd.stm32-for-vscode/@xpack-dev-tools/arm-none-eabi-gcc/10.3.1-2.3.1/.content/arm-none-eabi/include/c++/10.3.1/arm-none-eabi/thumb/v7e-m+fp/hard/bits/gthr-default.h **** 
 172:/Users/lawrencestanton/Library/Application Support/Code/User/globalStorage/bmd.stm32-for-vscode/@xpack-dev-tools/arm-none-eabi-gcc/10.3.1-2.3.1/.content/arm-none-eabi/include/c++/10.3.1/arm-none-eabi/thumb/v7e-m+fp/hard/bits/gthr-default.h **** /* Allocate a condition.  */
 173:/Users/lawrencestanton/Library/Application Support/Code/User/globalStorage/bmd.stm32-for-vscode/@xpack-dev-tools/arm-none-eabi-gcc/10.3.1-2.3.1/.content/arm-none-eabi/include/c++/10.3.1/arm-none-eabi/thumb/v7e-m+fp/hard/bits/gthr-default.h **** static inline int
 174:/Users/lawrencestanton/Library/Application Support/Code/User/globalStorage/bmd.stm32-for-vscode/@xpack-dev-tools/arm-none-eabi-gcc/10.3.1-2.3.1/.content/arm-none-eabi/include/c++/10.3.1/arm-none-eabi/thumb/v7e-m+fp/hard/bits/gthr-default.h **** __gthread_objc_condition_allocate (objc_condition_t condition _GLIBCXX_UNUSED)
 175:/Users/lawrencestanton/Library/Application Support/Code/User/globalStorage/bmd.stm32-for-vscode/@xpack-dev-tools/arm-none-eabi-gcc/10.3.1-2.3.1/.content/arm-none-eabi/include/c++/10.3.1/arm-none-eabi/thumb/v7e-m+fp/hard/bits/gthr-default.h **** {
 176:/Users/lawrencestanton/Library/Application Support/Code/User/globalStorage/bmd.stm32-for-vscode/@xpack-dev-tools/arm-none-eabi-gcc/10.3.1-2.3.1/.content/arm-none-eabi/include/c++/10.3.1/arm-none-eabi/thumb/v7e-m+fp/hard/bits/gthr-default.h ****   return 0;
 177:/Users/lawrencestanton/Library/Application Support/Code/User/globalStorage/bmd.stm32-for-vscode/@xpack-dev-tools/arm-none-eabi-gcc/10.3.1-2.3.1/.content/arm-none-eabi/include/c++/10.3.1/arm-none-eabi/thumb/v7e-m+fp/hard/bits/gthr-default.h **** }
 178:/Users/lawrencestanton/Library/Application Support/Code/User/globalStorage/bmd.stm32-for-vscode/@xpack-dev-tools/arm-none-eabi-gcc/10.3.1-2.3.1/.content/arm-none-eabi/include/c++/10.3.1/arm-none-eabi/thumb/v7e-m+fp/hard/bits/gthr-default.h **** 
 179:/Users/lawrencestanton/Library/Application Support/Code/User/globalStorage/bmd.stm32-for-vscode/@xpack-dev-tools/arm-none-eabi-gcc/10.3.1-2.3.1/.content/arm-none-eabi/include/c++/10.3.1/arm-none-eabi/thumb/v7e-m+fp/hard/bits/gthr-default.h **** /* Deallocate a condition.  */
 180:/Users/lawrencestanton/Library/Application Support/Code/User/globalStorage/bmd.stm32-for-vscode/@xpack-dev-tools/arm-none-eabi-gcc/10.3.1-2.3.1/.content/arm-none-eabi/include/c++/10.3.1/arm-none-eabi/thumb/v7e-m+fp/hard/bits/gthr-default.h **** static inline int
 181:/Users/lawrencestanton/Library/Application Support/Code/User/globalStorage/bmd.stm32-for-vscode/@xpack-dev-tools/arm-none-eabi-gcc/10.3.1-2.3.1/.content/arm-none-eabi/include/c++/10.3.1/arm-none-eabi/thumb/v7e-m+fp/hard/bits/gthr-default.h **** __gthread_objc_condition_deallocate (objc_condition_t condition _GLIBCXX_UNUSED)
 182:/Users/lawrencestanton/Library/Application Support/Code/User/globalStorage/bmd.stm32-for-vscode/@xpack-dev-tools/arm-none-eabi-gcc/10.3.1-2.3.1/.content/arm-none-eabi/include/c++/10.3.1/arm-none-eabi/thumb/v7e-m+fp/hard/bits/gthr-default.h **** {
 183:/Users/lawrencestanton/Library/Application Support/Code/User/globalStorage/bmd.stm32-for-vscode/@xpack-dev-tools/arm-none-eabi-gcc/10.3.1-2.3.1/.content/arm-none-eabi/include/c++/10.3.1/arm-none-eabi/thumb/v7e-m+fp/hard/bits/gthr-default.h ****   return 0;
 184:/Users/lawrencestanton/Library/Application Support/Code/User/globalStorage/bmd.stm32-for-vscode/@xpack-dev-tools/arm-none-eabi-gcc/10.3.1-2.3.1/.content/arm-none-eabi/include/c++/10.3.1/arm-none-eabi/thumb/v7e-m+fp/hard/bits/gthr-default.h **** }
 185:/Users/lawrencestanton/Library/Application Support/Code/User/globalStorage/bmd.stm32-for-vscode/@xpack-dev-tools/arm-none-eabi-gcc/10.3.1-2.3.1/.content/arm-none-eabi/include/c++/10.3.1/arm-none-eabi/thumb/v7e-m+fp/hard/bits/gthr-default.h **** 
 186:/Users/lawrencestanton/Library/Application Support/Code/User/globalStorage/bmd.stm32-for-vscode/@xpack-dev-tools/arm-none-eabi-gcc/10.3.1-2.3.1/.content/arm-none-eabi/include/c++/10.3.1/arm-none-eabi/thumb/v7e-m+fp/hard/bits/gthr-default.h **** /* Wait on the condition */
 187:/Users/lawrencestanton/Library/Application Support/Code/User/globalStorage/bmd.stm32-for-vscode/@xpack-dev-tools/arm-none-eabi-gcc/10.3.1-2.3.1/.content/arm-none-eabi/include/c++/10.3.1/arm-none-eabi/thumb/v7e-m+fp/hard/bits/gthr-default.h **** static inline int
 188:/Users/lawrencestanton/Library/Application Support/Code/User/globalStorage/bmd.stm32-for-vscode/@xpack-dev-tools/arm-none-eabi-gcc/10.3.1-2.3.1/.content/arm-none-eabi/include/c++/10.3.1/arm-none-eabi/thumb/v7e-m+fp/hard/bits/gthr-default.h **** __gthread_objc_condition_wait (objc_condition_t condition _GLIBCXX_UNUSED,
 189:/Users/lawrencestanton/Library/Application Support/Code/User/globalStorage/bmd.stm32-for-vscode/@xpack-dev-tools/arm-none-eabi-gcc/10.3.1-2.3.1/.content/arm-none-eabi/include/c++/10.3.1/arm-none-eabi/thumb/v7e-m+fp/hard/bits/gthr-default.h **** 			       objc_mutex_t mutex _GLIBCXX_UNUSED)
 190:/Users/lawrencestanton/Library/Application Support/Code/User/globalStorage/bmd.stm32-for-vscode/@xpack-dev-tools/arm-none-eabi-gcc/10.3.1-2.3.1/.content/arm-none-eabi/include/c++/10.3.1/arm-none-eabi/thumb/v7e-m+fp/hard/bits/gthr-default.h **** {
 191:/Users/lawrencestanton/Library/Application Support/Code/User/globalStorage/bmd.stm32-for-vscode/@xpack-dev-tools/arm-none-eabi-gcc/10.3.1-2.3.1/.content/arm-none-eabi/include/c++/10.3.1/arm-none-eabi/thumb/v7e-m+fp/hard/bits/gthr-default.h ****   return 0;
 192:/Users/lawrencestanton/Library/Application Support/Code/User/globalStorage/bmd.stm32-for-vscode/@xpack-dev-tools/arm-none-eabi-gcc/10.3.1-2.3.1/.content/arm-none-eabi/include/c++/10.3.1/arm-none-eabi/thumb/v7e-m+fp/hard/bits/gthr-default.h **** }
 193:/Users/lawrencestanton/Library/Application Support/Code/User/globalStorage/bmd.stm32-for-vscode/@xpack-dev-tools/arm-none-eabi-gcc/10.3.1-2.3.1/.content/arm-none-eabi/include/c++/10.3.1/arm-none-eabi/thumb/v7e-m+fp/hard/bits/gthr-default.h **** 
 194:/Users/lawrencestanton/Library/Application Support/Code/User/globalStorage/bmd.stm32-for-vscode/@xpack-dev-tools/arm-none-eabi-gcc/10.3.1-2.3.1/.content/arm-none-eabi/include/c++/10.3.1/arm-none-eabi/thumb/v7e-m+fp/hard/bits/gthr-default.h **** /* Wake up all threads waiting on this condition.  */
 195:/Users/lawrencestanton/Library/Application Support/Code/User/globalStorage/bmd.stm32-for-vscode/@xpack-dev-tools/arm-none-eabi-gcc/10.3.1-2.3.1/.content/arm-none-eabi/include/c++/10.3.1/arm-none-eabi/thumb/v7e-m+fp/hard/bits/gthr-default.h **** static inline int
 196:/Users/lawrencestanton/Library/Application Support/Code/User/globalStorage/bmd.stm32-for-vscode/@xpack-dev-tools/arm-none-eabi-gcc/10.3.1-2.3.1/.content/arm-none-eabi/include/c++/10.3.1/arm-none-eabi/thumb/v7e-m+fp/hard/bits/gthr-default.h **** __gthread_objc_condition_broadcast (objc_condition_t condition _GLIBCXX_UNUSED)
 197:/Users/lawrencestanton/Library/Application Support/Code/User/globalStorage/bmd.stm32-for-vscode/@xpack-dev-tools/arm-none-eabi-gcc/10.3.1-2.3.1/.content/arm-none-eabi/include/c++/10.3.1/arm-none-eabi/thumb/v7e-m+fp/hard/bits/gthr-default.h **** {
ARM GAS  /var/folders/bb/dhrb69655gd8t4nf464nxc_00000gn/T//ccyYPrc2.s 			page 5


 198:/Users/lawrencestanton/Library/Application Support/Code/User/globalStorage/bmd.stm32-for-vscode/@xpack-dev-tools/arm-none-eabi-gcc/10.3.1-2.3.1/.content/arm-none-eabi/include/c++/10.3.1/arm-none-eabi/thumb/v7e-m+fp/hard/bits/gthr-default.h ****   return 0;
 199:/Users/lawrencestanton/Library/Application Support/Code/User/globalStorage/bmd.stm32-for-vscode/@xpack-dev-tools/arm-none-eabi-gcc/10.3.1-2.3.1/.content/arm-none-eabi/include/c++/10.3.1/arm-none-eabi/thumb/v7e-m+fp/hard/bits/gthr-default.h **** }
 200:/Users/lawrencestanton/Library/Application Support/Code/User/globalStorage/bmd.stm32-for-vscode/@xpack-dev-tools/arm-none-eabi-gcc/10.3.1-2.3.1/.content/arm-none-eabi/include/c++/10.3.1/arm-none-eabi/thumb/v7e-m+fp/hard/bits/gthr-default.h **** 
 201:/Users/lawrencestanton/Library/Application Support/Code/User/globalStorage/bmd.stm32-for-vscode/@xpack-dev-tools/arm-none-eabi-gcc/10.3.1-2.3.1/.content/arm-none-eabi/include/c++/10.3.1/arm-none-eabi/thumb/v7e-m+fp/hard/bits/gthr-default.h **** /* Wake up one thread waiting on this condition.  */
 202:/Users/lawrencestanton/Library/Application Support/Code/User/globalStorage/bmd.stm32-for-vscode/@xpack-dev-tools/arm-none-eabi-gcc/10.3.1-2.3.1/.content/arm-none-eabi/include/c++/10.3.1/arm-none-eabi/thumb/v7e-m+fp/hard/bits/gthr-default.h **** static inline int
 203:/Users/lawrencestanton/Library/Application Support/Code/User/globalStorage/bmd.stm32-for-vscode/@xpack-dev-tools/arm-none-eabi-gcc/10.3.1-2.3.1/.content/arm-none-eabi/include/c++/10.3.1/arm-none-eabi/thumb/v7e-m+fp/hard/bits/gthr-default.h **** __gthread_objc_condition_signal (objc_condition_t condition _GLIBCXX_UNUSED)
 204:/Users/lawrencestanton/Library/Application Support/Code/User/globalStorage/bmd.stm32-for-vscode/@xpack-dev-tools/arm-none-eabi-gcc/10.3.1-2.3.1/.content/arm-none-eabi/include/c++/10.3.1/arm-none-eabi/thumb/v7e-m+fp/hard/bits/gthr-default.h **** {
 205:/Users/lawrencestanton/Library/Application Support/Code/User/globalStorage/bmd.stm32-for-vscode/@xpack-dev-tools/arm-none-eabi-gcc/10.3.1-2.3.1/.content/arm-none-eabi/include/c++/10.3.1/arm-none-eabi/thumb/v7e-m+fp/hard/bits/gthr-default.h ****   return 0;
 206:/Users/lawrencestanton/Library/Application Support/Code/User/globalStorage/bmd.stm32-for-vscode/@xpack-dev-tools/arm-none-eabi-gcc/10.3.1-2.3.1/.content/arm-none-eabi/include/c++/10.3.1/arm-none-eabi/thumb/v7e-m+fp/hard/bits/gthr-default.h **** }
 207:/Users/lawrencestanton/Library/Application Support/Code/User/globalStorage/bmd.stm32-for-vscode/@xpack-dev-tools/arm-none-eabi-gcc/10.3.1-2.3.1/.content/arm-none-eabi/include/c++/10.3.1/arm-none-eabi/thumb/v7e-m+fp/hard/bits/gthr-default.h **** 
 208:/Users/lawrencestanton/Library/Application Support/Code/User/globalStorage/bmd.stm32-for-vscode/@xpack-dev-tools/arm-none-eabi-gcc/10.3.1-2.3.1/.content/arm-none-eabi/include/c++/10.3.1/arm-none-eabi/thumb/v7e-m+fp/hard/bits/gthr-default.h **** #else /* _LIBOBJC */
 209:/Users/lawrencestanton/Library/Application Support/Code/User/globalStorage/bmd.stm32-for-vscode/@xpack-dev-tools/arm-none-eabi-gcc/10.3.1-2.3.1/.content/arm-none-eabi/include/c++/10.3.1/arm-none-eabi/thumb/v7e-m+fp/hard/bits/gthr-default.h **** 
 210:/Users/lawrencestanton/Library/Application Support/Code/User/globalStorage/bmd.stm32-for-vscode/@xpack-dev-tools/arm-none-eabi-gcc/10.3.1-2.3.1/.content/arm-none-eabi/include/c++/10.3.1/arm-none-eabi/thumb/v7e-m+fp/hard/bits/gthr-default.h **** static inline int
 211:/Users/lawrencestanton/Library/Application Support/Code/User/globalStorage/bmd.stm32-for-vscode/@xpack-dev-tools/arm-none-eabi-gcc/10.3.1-2.3.1/.content/arm-none-eabi/include/c++/10.3.1/arm-none-eabi/thumb/v7e-m+fp/hard/bits/gthr-default.h **** __gthread_active_p (void)
 212:/Users/lawrencestanton/Library/Application Support/Code/User/globalStorage/bmd.stm32-for-vscode/@xpack-dev-tools/arm-none-eabi-gcc/10.3.1-2.3.1/.content/arm-none-eabi/include/c++/10.3.1/arm-none-eabi/thumb/v7e-m+fp/hard/bits/gthr-default.h **** {
 213:/Users/lawrencestanton/Library/Application Support/Code/User/globalStorage/bmd.stm32-for-vscode/@xpack-dev-tools/arm-none-eabi-gcc/10.3.1-2.3.1/.content/arm-none-eabi/include/c++/10.3.1/arm-none-eabi/thumb/v7e-m+fp/hard/bits/gthr-default.h ****   return 0;
 214:/Users/lawrencestanton/Library/Application Support/Code/User/globalStorage/bmd.stm32-for-vscode/@xpack-dev-tools/arm-none-eabi-gcc/10.3.1-2.3.1/.content/arm-none-eabi/include/c++/10.3.1/arm-none-eabi/thumb/v7e-m+fp/hard/bits/gthr-default.h **** }
 215:/Users/lawrencestanton/Library/Application Support/Code/User/globalStorage/bmd.stm32-for-vscode/@xpack-dev-tools/arm-none-eabi-gcc/10.3.1-2.3.1/.content/arm-none-eabi/include/c++/10.3.1/arm-none-eabi/thumb/v7e-m+fp/hard/bits/gthr-default.h **** 
 216:/Users/lawrencestanton/Library/Application Support/Code/User/globalStorage/bmd.stm32-for-vscode/@xpack-dev-tools/arm-none-eabi-gcc/10.3.1-2.3.1/.content/arm-none-eabi/include/c++/10.3.1/arm-none-eabi/thumb/v7e-m+fp/hard/bits/gthr-default.h **** static inline int
 217:/Users/lawrencestanton/Library/Application Support/Code/User/globalStorage/bmd.stm32-for-vscode/@xpack-dev-tools/arm-none-eabi-gcc/10.3.1-2.3.1/.content/arm-none-eabi/include/c++/10.3.1/arm-none-eabi/thumb/v7e-m+fp/hard/bits/gthr-default.h **** __gthread_once (__gthread_once_t *__once _GLIBCXX_UNUSED, void (*__func) (void) _GLIBCXX_UNUSED)
 218:/Users/lawrencestanton/Library/Application Support/Code/User/globalStorage/bmd.stm32-for-vscode/@xpack-dev-tools/arm-none-eabi-gcc/10.3.1-2.3.1/.content/arm-none-eabi/include/c++/10.3.1/arm-none-eabi/thumb/v7e-m+fp/hard/bits/gthr-default.h **** {
 219:/Users/lawrencestanton/Library/Application Support/Code/User/globalStorage/bmd.stm32-for-vscode/@xpack-dev-tools/arm-none-eabi-gcc/10.3.1-2.3.1/.content/arm-none-eabi/include/c++/10.3.1/arm-none-eabi/thumb/v7e-m+fp/hard/bits/gthr-default.h ****   return 0;
 220:/Users/lawrencestanton/Library/Application Support/Code/User/globalStorage/bmd.stm32-for-vscode/@xpack-dev-tools/arm-none-eabi-gcc/10.3.1-2.3.1/.content/arm-none-eabi/include/c++/10.3.1/arm-none-eabi/thumb/v7e-m+fp/hard/bits/gthr-default.h **** }
 221:/Users/lawrencestanton/Library/Application Support/Code/User/globalStorage/bmd.stm32-for-vscode/@xpack-dev-tools/arm-none-eabi-gcc/10.3.1-2.3.1/.content/arm-none-eabi/include/c++/10.3.1/arm-none-eabi/thumb/v7e-m+fp/hard/bits/gthr-default.h **** 
 222:/Users/lawrencestanton/Library/Application Support/Code/User/globalStorage/bmd.stm32-for-vscode/@xpack-dev-tools/arm-none-eabi-gcc/10.3.1-2.3.1/.content/arm-none-eabi/include/c++/10.3.1/arm-none-eabi/thumb/v7e-m+fp/hard/bits/gthr-default.h **** static inline int _GLIBCXX_UNUSED
 223:/Users/lawrencestanton/Library/Application Support/Code/User/globalStorage/bmd.stm32-for-vscode/@xpack-dev-tools/arm-none-eabi-gcc/10.3.1-2.3.1/.content/arm-none-eabi/include/c++/10.3.1/arm-none-eabi/thumb/v7e-m+fp/hard/bits/gthr-default.h **** __gthread_key_create (__gthread_key_t *__key _GLIBCXX_UNUSED, void (*__func) (void *) _GLIBCXX_UNUS
 224:/Users/lawrencestanton/Library/Application Support/Code/User/globalStorage/bmd.stm32-for-vscode/@xpack-dev-tools/arm-none-eabi-gcc/10.3.1-2.3.1/.content/arm-none-eabi/include/c++/10.3.1/arm-none-eabi/thumb/v7e-m+fp/hard/bits/gthr-default.h **** {
 225:/Users/lawrencestanton/Library/Application Support/Code/User/globalStorage/bmd.stm32-for-vscode/@xpack-dev-tools/arm-none-eabi-gcc/10.3.1-2.3.1/.content/arm-none-eabi/include/c++/10.3.1/arm-none-eabi/thumb/v7e-m+fp/hard/bits/gthr-default.h ****   return 0;
 226:/Users/lawrencestanton/Library/Application Support/Code/User/globalStorage/bmd.stm32-for-vscode/@xpack-dev-tools/arm-none-eabi-gcc/10.3.1-2.3.1/.content/arm-none-eabi/include/c++/10.3.1/arm-none-eabi/thumb/v7e-m+fp/hard/bits/gthr-default.h **** }
 227:/Users/lawrencestanton/Library/Application Support/Code/User/globalStorage/bmd.stm32-for-vscode/@xpack-dev-tools/arm-none-eabi-gcc/10.3.1-2.3.1/.content/arm-none-eabi/include/c++/10.3.1/arm-none-eabi/thumb/v7e-m+fp/hard/bits/gthr-default.h **** 
 228:/Users/lawrencestanton/Library/Application Support/Code/User/globalStorage/bmd.stm32-for-vscode/@xpack-dev-tools/arm-none-eabi-gcc/10.3.1-2.3.1/.content/arm-none-eabi/include/c++/10.3.1/arm-none-eabi/thumb/v7e-m+fp/hard/bits/gthr-default.h **** static int _GLIBCXX_UNUSED
 229:/Users/lawrencestanton/Library/Application Support/Code/User/globalStorage/bmd.stm32-for-vscode/@xpack-dev-tools/arm-none-eabi-gcc/10.3.1-2.3.1/.content/arm-none-eabi/include/c++/10.3.1/arm-none-eabi/thumb/v7e-m+fp/hard/bits/gthr-default.h **** __gthread_key_delete (__gthread_key_t __key _GLIBCXX_UNUSED)
 230:/Users/lawrencestanton/Library/Application Support/Code/User/globalStorage/bmd.stm32-for-vscode/@xpack-dev-tools/arm-none-eabi-gcc/10.3.1-2.3.1/.content/arm-none-eabi/include/c++/10.3.1/arm-none-eabi/thumb/v7e-m+fp/hard/bits/gthr-default.h **** {
  35              		.loc 1 230 1
  36              		.cfi_startproc
  37              		@ args = 0, pretend = 0, frame = 8
  38              		@ frame_needed = 1, uses_anonymous_args = 0
  39              		@ link register save eliminated.
  40 0000 80B4     		push	{r7}
  41              		.cfi_def_cfa_offset 4
  42              		.cfi_offset 7, -4
  43 0002 83B0     		sub	sp, sp, #12
  44              		.cfi_def_cfa_offset 16
  45 0004 00AF     		add	r7, sp, #0
  46              		.cfi_def_cfa_register 7
  47 0006 7860     		str	r0, [r7, #4]
 231:/Users/lawrencestanton/Library/Application Support/Code/User/globalStorage/bmd.stm32-for-vscode/@xpack-dev-tools/arm-none-eabi-gcc/10.3.1-2.3.1/.content/arm-none-eabi/include/c++/10.3.1/arm-none-eabi/thumb/v7e-m+fp/hard/bits/gthr-default.h ****   return 0;
  48              		.loc 1 231 10
  49 0008 0023     		movs	r3, #0
 232:/Users/lawrencestanton/Library/Application Support/Code/User/globalStorage/bmd.stm32-for-vscode/@xpack-dev-tools/arm-none-eabi-gcc/10.3.1-2.3.1/.content/arm-none-eabi/include/c++/10.3.1/arm-none-eabi/thumb/v7e-m+fp/hard/bits/gthr-default.h **** }
  50              		.loc 1 232 1
  51 000a 1846     		mov	r0, r3
  52 000c 0C37     		adds	r7, r7, #12
  53              		.cfi_def_cfa_offset 4
  54 000e BD46     		mov	sp, r7
  55              		.cfi_def_cfa_register 13
  56              		@ sp needed
ARM GAS  /var/folders/bb/dhrb69655gd8t4nf464nxc_00000gn/T//ccyYPrc2.s 			page 6


  57 0010 5DF8047B 		ldr	r7, [sp], #4
  58              		.cfi_restore 7
  59              		.cfi_def_cfa_offset 0
  60 0014 7047     		bx	lr
  61              		.cfi_endproc
  62              	.LFE653:
  63              		.cantunwind
  64              		.fnend
  66              		.section	.rodata._ZL23CFG_HW_ANT_CFG_VOLTCTRL,"a"
  67              		.align	2
  70              	_ZL23CFG_HW_ANT_CFG_VOLTCTRL:
  71 0000 01       		.byte	1
  72 0001 A3       		.byte	-93
  73 0002 2E00     		.short	46
  74              		.section	.rodata._ZL23CFG_HW_ANT_CFG_SHORTDET,"a"
  75              		.align	2
  78              	_ZL23CFG_HW_ANT_CFG_SHORTDET:
  79 0000 01       		.byte	1
  80 0001 A3       		.byte	-93
  81 0002 2F00     		.short	47
  82              		.section	.rodata._ZL27CFG_HW_ANT_CFG_SHORTDET_POL,"a"
  83              		.align	2
  86              	_ZL27CFG_HW_ANT_CFG_SHORTDET_POL:
  87 0000 01       		.byte	1
  88 0001 A3       		.byte	-93
  89 0002 3000     		.short	48
  90              		.section	.rodata._ZL22CFG_HW_ANT_CFG_OPENDET,"a"
  91              		.align	2
  94              	_ZL22CFG_HW_ANT_CFG_OPENDET:
  95 0000 01       		.byte	1
  96 0001 A3       		.byte	-93
  97 0002 3100     		.short	49
  98              		.section	.rodata._ZL26CFG_HW_ANT_CFG_OPENDET_POL,"a"
  99              		.align	2
 102              	_ZL26CFG_HW_ANT_CFG_OPENDET_POL:
 103 0000 01       		.byte	1
 104 0001 A3       		.byte	-93
 105 0002 3200     		.short	50
 106              		.section	.rodata._ZL22CFG_HW_ANT_CFG_PWRDOWN,"a"
 107              		.align	2
 110              	_ZL22CFG_HW_ANT_CFG_PWRDOWN:
 111 0000 01       		.byte	1
 112 0001 A3       		.byte	-93
 113 0002 3300     		.short	51
 114              		.section	.rodata._ZL26CFG_HW_ANT_CFG_PWRDOWN_POL,"a"
 115              		.align	2
 118              	_ZL26CFG_HW_ANT_CFG_PWRDOWN_POL:
 119 0000 01       		.byte	1
 120 0001 A3       		.byte	-93
 121 0002 3400     		.short	52
 122              		.section	.rodata._ZL22CFG_HW_ANT_CFG_RECOVER,"a"
 123              		.align	2
 126              	_ZL22CFG_HW_ANT_CFG_RECOVER:
 127 0000 01       		.byte	1
 128 0001 A3       		.byte	-93
 129 0002 3500     		.short	53
 130              		.section	.rodata._ZL25CFG_HW_ANT_SUP_SWITCH_PIN,"a"
ARM GAS  /var/folders/bb/dhrb69655gd8t4nf464nxc_00000gn/T//ccyYPrc2.s 			page 7


 131              		.align	2
 134              	_ZL25CFG_HW_ANT_SUP_SWITCH_PIN:
 135 0000 02       		.byte	2
 136 0001 A3       		.byte	-93
 137 0002 3600     		.short	54
 138              		.section	.rodata._ZL24CFG_HW_ANT_SUP_SHORT_PIN,"a"
 139              		.align	2
 142              	_ZL24CFG_HW_ANT_SUP_SHORT_PIN:
 143 0000 02       		.byte	2
 144 0001 A3       		.byte	-93
 145 0002 3700     		.short	55
 146              		.section	.rodata._ZL23CFG_HW_ANT_SUP_OPEN_PIN,"a"
 147              		.align	2
 150              	_ZL23CFG_HW_ANT_SUP_OPEN_PIN:
 151 0000 02       		.byte	2
 152 0001 A3       		.byte	-93
 153 0002 3800     		.short	56
 154              		.section	.rodata._ZL21CFG_HW_ANT_SUP_ENGINE,"a"
 155              		.align	2
 158              	_ZL21CFG_HW_ANT_SUP_ENGINE:
 159 0000 02       		.byte	2
 160 0001 A3       		.byte	-93
 161 0002 5400     		.short	84
 162              		.section	.rodata._ZL24CFG_HW_ANT_SUP_SHORT_THR,"a"
 163              		.align	2
 166              	_ZL24CFG_HW_ANT_SUP_SHORT_THR:
 167 0000 02       		.byte	2
 168 0001 A3       		.byte	-93
 169 0002 5500     		.short	85
 170              		.section	.rodata._ZL23CFG_HW_ANT_SUP_OPEN_THR,"a"
 171              		.align	2
 174              	_ZL23CFG_HW_ANT_SUP_OPEN_THR:
 175 0000 02       		.byte	2
 176 0001 A3       		.byte	-93
 177 0002 5600     		.short	86
 178              		.section	.rodata._ZL16CFG_NMEA_PROTVER,"a"
 179              		.align	2
 182              	_ZL16CFG_NMEA_PROTVER:
 183 0000 02       		.byte	2
 184 0001 93       		.byte	-109
 185 0002 0100     		.short	1
 186              		.section	.rodata._ZL15CFG_NMEA_MAXSVS,"a"
 187              		.align	2
 190              	_ZL15CFG_NMEA_MAXSVS:
 191 0000 02       		.byte	2
 192 0001 93       		.byte	-109
 193 0002 0200     		.short	2
 194              		.section	.rodata._ZL15CFG_NMEA_COMPAT,"a"
 195              		.align	2
 198              	_ZL15CFG_NMEA_COMPAT:
 199 0000 01       		.byte	1
 200 0001 93       		.byte	-109
 201 0002 0300     		.short	3
 202              		.section	.rodata._ZL17CFG_NMEA_CONSIDER,"a"
 203              		.align	2
 206              	_ZL17CFG_NMEA_CONSIDER:
 207 0000 01       		.byte	1
ARM GAS  /var/folders/bb/dhrb69655gd8t4nf464nxc_00000gn/T//ccyYPrc2.s 			page 8


 208 0001 93       		.byte	-109
 209 0002 0400     		.short	4
 210              		.section	.rodata._ZL16CFG_NMEA_LIMIT82,"a"
 211              		.align	2
 214              	_ZL16CFG_NMEA_LIMIT82:
 215 0000 01       		.byte	1
 216 0001 93       		.byte	-109
 217 0002 0500     		.short	5
 218              		.section	.rodata._ZL17CFG_NMEA_HIGHPREC,"a"
 219              		.align	2
 222              	_ZL17CFG_NMEA_HIGHPREC:
 223 0000 01       		.byte	1
 224 0001 93       		.byte	-109
 225 0002 0600     		.short	6
 226              		.section	.rodata._ZL20CFG_NMEA_SVNUMBERING,"a"
 227              		.align	2
 230              	_ZL20CFG_NMEA_SVNUMBERING:
 231 0000 02       		.byte	2
 232 0001 93       		.byte	-109
 233 0002 0700     		.short	7
 234              		.section	.rodata._ZL17CFG_NMEA_FILT_GPS,"a"
 235              		.align	2
 238              	_ZL17CFG_NMEA_FILT_GPS:
 239 0000 01       		.byte	1
 240 0001 93       		.byte	-109
 241 0002 1100     		.short	17
 242              		.section	.rodata._ZL18CFG_NMEA_FILT_SBAS,"a"
 243              		.align	2
 246              	_ZL18CFG_NMEA_FILT_SBAS:
 247 0000 01       		.byte	1
 248 0001 93       		.byte	-109
 249 0002 1200     		.short	18
 250              		.section	.rodata._ZL17CFG_NMEA_FILT_GAL,"a"
 251              		.align	2
 254              	_ZL17CFG_NMEA_FILT_GAL:
 255 0000 01       		.byte	1
 256 0001 93       		.byte	-109
 257 0002 1300     		.short	19
 258              		.section	.rodata._ZL18CFG_NMEA_FILT_QZSS,"a"
 259              		.align	2
 262              	_ZL18CFG_NMEA_FILT_QZSS:
 263 0000 01       		.byte	1
 264 0001 93       		.byte	-109
 265 0002 1500     		.short	21
 266              		.section	.rodata._ZL17CFG_NMEA_FILT_GLO,"a"
 267              		.align	2
 270              	_ZL17CFG_NMEA_FILT_GLO:
 271 0000 01       		.byte	1
 272 0001 93       		.byte	-109
 273 0002 1600     		.short	22
 274              		.section	.rodata._ZL17CFG_NMEA_FILT_BDS,"a"
 275              		.align	2
 278              	_ZL17CFG_NMEA_FILT_BDS:
 279 0000 01       		.byte	1
 280 0001 93       		.byte	-109
 281 0002 1700     		.short	23
 282              		.section	.rodata._ZL19CFG_NMEA_OUT_INVFIX,"a"
ARM GAS  /var/folders/bb/dhrb69655gd8t4nf464nxc_00000gn/T//ccyYPrc2.s 			page 9


 283              		.align	2
 286              	_ZL19CFG_NMEA_OUT_INVFIX:
 287 0000 01       		.byte	1
 288 0001 93       		.byte	-109
 289 0002 2100     		.short	33
 290              		.section	.rodata._ZL19CFG_NMEA_OUT_MSKFIX,"a"
 291              		.align	2
 294              	_ZL19CFG_NMEA_OUT_MSKFIX:
 295 0000 01       		.byte	1
 296 0001 93       		.byte	-109
 297 0002 2200     		.short	34
 298              		.section	.rodata._ZL20CFG_NMEA_OUT_INVTIME,"a"
 299              		.align	2
 302              	_ZL20CFG_NMEA_OUT_INVTIME:
 303 0000 01       		.byte	1
 304 0001 93       		.byte	-109
 305 0002 2300     		.short	35
 306              		.section	.rodata._ZL20CFG_NMEA_OUT_INVDATE,"a"
 307              		.align	2
 310              	_ZL20CFG_NMEA_OUT_INVDATE:
 311 0000 01       		.byte	1
 312 0001 93       		.byte	-109
 313 0002 2400     		.short	36
 314              		.section	.rodata._ZL20CFG_NMEA_OUT_ONLYGPS,"a"
 315              		.align	2
 318              	_ZL20CFG_NMEA_OUT_ONLYGPS:
 319 0000 01       		.byte	1
 320 0001 93       		.byte	-109
 321 0002 2500     		.short	37
 322              		.section	.rodata._ZL22CFG_NMEA_OUT_FROZENCOG,"a"
 323              		.align	2
 326              	_ZL22CFG_NMEA_OUT_FROZENCOG:
 327 0000 01       		.byte	1
 328 0001 93       		.byte	-109
 329 0002 2600     		.short	38
 330              		.section	.rodata._ZL21CFG_NMEA_MAINTALKERID,"a"
 331              		.align	2
 334              	_ZL21CFG_NMEA_MAINTALKERID:
 335 0000 02       		.byte	2
 336 0001 93       		.byte	-109
 337 0002 3100     		.short	49
 338              		.section	.rodata._ZL20CFG_NMEA_GSVTALKERID,"a"
 339              		.align	2
 342              	_ZL20CFG_NMEA_GSVTALKERID:
 343 0000 02       		.byte	2
 344 0001 93       		.byte	-109
 345 0002 3200     		.short	50
 346              		.section	.rodata._ZL20CFG_NMEA_BDSTALKERID,"a"
 347              		.align	2
 350              	_ZL20CFG_NMEA_BDSTALKERID:
 351 0000 02       		.byte	2
 352 0001 93       		.byte	-109
 353 0002 3300     		.short	51
 354              		.section	.text._ZN12StaticStringC2EPKc,"axG",%progbits,_ZN12StaticStringC5EPKc,comdat
 355              		.align	1
 356              		.weak	_ZN12StaticStringC2EPKc
 357              		.syntax unified
ARM GAS  /var/folders/bb/dhrb69655gd8t4nf464nxc_00000gn/T//ccyYPrc2.s 			page 10


 358              		.thumb
 359              		.thumb_func
 361              	_ZN12StaticStringC2EPKc:
 362              		.fnstart
 363              	.LFB1887:
 364              		.file 2 "Core/Inc/StaticString.hpp"
   1:Core/Inc/StaticString.hpp **** /**
   2:Core/Inc/StaticString.hpp ****   ******************************************************************************
   3:Core/Inc/StaticString.hpp ****   * @file			: StaticString.hpp
   4:Core/Inc/StaticString.hpp ****   * @brief			: Structure for Stack-Based Static String with Helper Functions
   5:Core/Inc/StaticString.hpp ****   * @author			: Lawrence Stanton
   6:Core/Inc/StaticString.hpp ****   ******************************************************************************
   7:Core/Inc/StaticString.hpp ****   * @attention
   8:Core/Inc/StaticString.hpp ****   *
   9:Core/Inc/StaticString.hpp ****   *  LD Stanton 2022
  10:Core/Inc/StaticString.hpp ****   * 
  11:Core/Inc/StaticString.hpp ****   * This file and its content are the copyright property of the author. All 
  12:Core/Inc/StaticString.hpp ****   * rights are reserved. No warranty is given. No liability is assumed.
  13:Core/Inc/StaticString.hpp ****   * Confidential unless licensed otherwise. If licensed, refer to the 
  14:Core/Inc/StaticString.hpp ****   * accompanying file "LICENCE" for license details.
  15:Core/Inc/StaticString.hpp ****   * 
  16:Core/Inc/StaticString.hpp ****   ******************************************************************************
  17:Core/Inc/StaticString.hpp ****   */
  18:Core/Inc/StaticString.hpp **** 
  19:Core/Inc/StaticString.hpp **** #pragma once
  20:Core/Inc/StaticString.hpp **** 
  21:Core/Inc/StaticString.hpp **** #include <stdint.h>
  22:Core/Inc/StaticString.hpp **** #include <string.h>
  23:Core/Inc/StaticString.hpp **** 
  24:Core/Inc/StaticString.hpp **** #include <algorithm>
  25:Core/Inc/StaticString.hpp **** 
  26:Core/Inc/StaticString.hpp **** class StaticString{
  27:Core/Inc/StaticString.hpp **** private:
  28:Core/Inc/StaticString.hpp **** 	const char * s;
  29:Core/Inc/StaticString.hpp **** 	size_t l;
  30:Core/Inc/StaticString.hpp **** 
  31:Core/Inc/StaticString.hpp **** 
  32:Core/Inc/StaticString.hpp **** public:
  33:Core/Inc/StaticString.hpp **** 	StaticString() : s(nullptr), l(0u){}
  34:Core/Inc/StaticString.hpp **** 
  35:Core/Inc/StaticString.hpp **** 	template<typename C>
  36:Core/Inc/StaticString.hpp **** 	StaticString(C * c_str, size_t len) : s(c_str), l(len){}
  37:Core/Inc/StaticString.hpp **** 
  38:Core/Inc/StaticString.hpp **** 	template<typename C>
  39:Core/Inc/StaticString.hpp **** 	StaticString(C * begin, C * end) : s((char *)begin), l(end-begin){}
  40:Core/Inc/StaticString.hpp **** 
  41:Core/Inc/StaticString.hpp **** 	StaticString(const char * c_str) : s(c_str), l(strlen(c_str)){}
 365              		.loc 2 41 2
 366              		.cfi_startproc
 367              		@ args = 0, pretend = 0, frame = 8
 368              		@ frame_needed = 1, uses_anonymous_args = 0
 369 0000 80B5     		push	{r7, lr}
 370              		.cfi_def_cfa_offset 8
 371              		.cfi_offset 7, -8
 372              		.cfi_offset 14, -4
 373 0002 82B0     		sub	sp, sp, #8
 374              		.cfi_def_cfa_offset 16
ARM GAS  /var/folders/bb/dhrb69655gd8t4nf464nxc_00000gn/T//ccyYPrc2.s 			page 11


 375 0004 00AF     		add	r7, sp, #0
 376              		.cfi_def_cfa_register 7
 377 0006 7860     		str	r0, [r7, #4]
 378 0008 3960     		str	r1, [r7]
 379              	.LBB2:
 380              		.loc 2 41 62
 381 000a 7B68     		ldr	r3, [r7, #4]
 382 000c 3A68     		ldr	r2, [r7]
 383 000e 1A60     		str	r2, [r3]
 384              		.loc 2 41 55
 385 0010 3868     		ldr	r0, [r7]
 386 0012 FFF7FEFF 		bl	strlen
 387 0016 0246     		mov	r2, r0
 388              		.loc 2 41 62
 389 0018 7B68     		ldr	r3, [r7, #4]
 390 001a 5A60     		str	r2, [r3, #4]
 391              	.LBE2:
 392              		.loc 2 41 64
 393 001c 7B68     		ldr	r3, [r7, #4]
 394 001e 1846     		mov	r0, r3
 395 0020 0837     		adds	r7, r7, #8
 396              		.cfi_def_cfa_offset 8
 397 0022 BD46     		mov	sp, r7
 398              		.cfi_def_cfa_register 13
 399              		@ sp needed
 400 0024 80BD     		pop	{r7, pc}
 401              		.cfi_endproc
 402              	.LFE1887:
 403              		.cantunwind
 404              		.fnend
 406              		.weak	_ZN12StaticStringC1EPKc
 407              		.thumb_set _ZN12StaticStringC1EPKc,_ZN12StaticStringC2EPKc
 408              		.section	.text._ZNK12StaticString4sizeEv,"axG",%progbits,_ZNK12StaticString4sizeEv,comdat
 409              		.align	1
 410              		.weak	_ZNK12StaticString4sizeEv
 411              		.syntax unified
 412              		.thumb
 413              		.thumb_func
 415              	_ZNK12StaticString4sizeEv:
 416              		.fnstart
 417              	.LFB1889:
  42:Core/Inc/StaticString.hpp **** 	StaticString(const StaticString &) = default;
  43:Core/Inc/StaticString.hpp **** 	
  44:Core/Inc/StaticString.hpp **** 	inline size_t size() const { return l; }
 418              		.loc 2 44 16
 419              		.cfi_startproc
 420              		@ args = 0, pretend = 0, frame = 8
 421              		@ frame_needed = 1, uses_anonymous_args = 0
 422              		@ link register save eliminated.
 423 0000 80B4     		push	{r7}
 424              		.cfi_def_cfa_offset 4
 425              		.cfi_offset 7, -4
 426 0002 83B0     		sub	sp, sp, #12
 427              		.cfi_def_cfa_offset 16
 428 0004 00AF     		add	r7, sp, #0
 429              		.cfi_def_cfa_register 7
 430 0006 7860     		str	r0, [r7, #4]
ARM GAS  /var/folders/bb/dhrb69655gd8t4nf464nxc_00000gn/T//ccyYPrc2.s 			page 12


 431              		.loc 2 44 38
 432 0008 7B68     		ldr	r3, [r7, #4]
 433 000a 5B68     		ldr	r3, [r3, #4]
 434              		.loc 2 44 41
 435 000c 1846     		mov	r0, r3
 436 000e 0C37     		adds	r7, r7, #12
 437              		.cfi_def_cfa_offset 4
 438 0010 BD46     		mov	sp, r7
 439              		.cfi_def_cfa_register 13
 440              		@ sp needed
 441 0012 5DF8047B 		ldr	r7, [sp], #4
 442              		.cfi_restore 7
 443              		.cfi_def_cfa_offset 0
 444 0016 7047     		bx	lr
 445              		.cfi_endproc
 446              	.LFE1889:
 447              		.cantunwind
 448              		.fnend
 450              		.section	.text._ZNK12StaticString5beginEv,"axG",%progbits,_ZNK12StaticString5beginEv,comdat
 451              		.align	1
 452              		.weak	_ZNK12StaticString5beginEv
 453              		.syntax unified
 454              		.thumb
 455              		.thumb_func
 457              	_ZNK12StaticString5beginEv:
 458              		.fnstart
 459              	.LFB1891:
  45:Core/Inc/StaticString.hpp **** 	inline size_t length() const { return size(); }
  46:Core/Inc/StaticString.hpp **** 	inline const char * begin() const { return s; }
 460              		.loc 2 46 22
 461              		.cfi_startproc
 462              		@ args = 0, pretend = 0, frame = 8
 463              		@ frame_needed = 1, uses_anonymous_args = 0
 464              		@ link register save eliminated.
 465 0000 80B4     		push	{r7}
 466              		.cfi_def_cfa_offset 4
 467              		.cfi_offset 7, -4
 468 0002 83B0     		sub	sp, sp, #12
 469              		.cfi_def_cfa_offset 16
 470 0004 00AF     		add	r7, sp, #0
 471              		.cfi_def_cfa_register 7
 472 0006 7860     		str	r0, [r7, #4]
 473              		.loc 2 46 45
 474 0008 7B68     		ldr	r3, [r7, #4]
 475 000a 1B68     		ldr	r3, [r3]
 476              		.loc 2 46 48
 477 000c 1846     		mov	r0, r3
 478 000e 0C37     		adds	r7, r7, #12
 479              		.cfi_def_cfa_offset 4
 480 0010 BD46     		mov	sp, r7
 481              		.cfi_def_cfa_register 13
 482              		@ sp needed
 483 0012 5DF8047B 		ldr	r7, [sp], #4
 484              		.cfi_restore 7
 485              		.cfi_def_cfa_offset 0
 486 0016 7047     		bx	lr
 487              		.cfi_endproc
ARM GAS  /var/folders/bb/dhrb69655gd8t4nf464nxc_00000gn/T//ccyYPrc2.s 			page 13


 488              	.LFE1891:
 489              		.cantunwind
 490              		.fnend
 492              		.section	.text._ZNK12StaticString3endEv,"axG",%progbits,_ZNK12StaticString3endEv,comdat
 493              		.align	1
 494              		.weak	_ZNK12StaticString3endEv
 495              		.syntax unified
 496              		.thumb
 497              		.thumb_func
 499              	_ZNK12StaticString3endEv:
 500              		.fnstart
 501              	.LFB1892:
  47:Core/Inc/StaticString.hpp **** 	inline const char * end() const { return s + l; }
 502              		.loc 2 47 22
 503              		.cfi_startproc
 504              		@ args = 0, pretend = 0, frame = 8
 505              		@ frame_needed = 1, uses_anonymous_args = 0
 506              		@ link register save eliminated.
 507 0000 80B4     		push	{r7}
 508              		.cfi_def_cfa_offset 4
 509              		.cfi_offset 7, -4
 510 0002 83B0     		sub	sp, sp, #12
 511              		.cfi_def_cfa_offset 16
 512 0004 00AF     		add	r7, sp, #0
 513              		.cfi_def_cfa_register 7
 514 0006 7860     		str	r0, [r7, #4]
 515              		.loc 2 47 43
 516 0008 7B68     		ldr	r3, [r7, #4]
 517 000a 1A68     		ldr	r2, [r3]
 518              		.loc 2 47 47
 519 000c 7B68     		ldr	r3, [r7, #4]
 520 000e 5B68     		ldr	r3, [r3, #4]
 521 0010 1344     		add	r3, r3, r2
 522              		.loc 2 47 50
 523 0012 1846     		mov	r0, r3
 524 0014 0C37     		adds	r7, r7, #12
 525              		.cfi_def_cfa_offset 4
 526 0016 BD46     		mov	sp, r7
 527              		.cfi_def_cfa_register 13
 528              		@ sp needed
 529 0018 5DF8047B 		ldr	r7, [sp], #4
 530              		.cfi_restore 7
 531              		.cfi_def_cfa_offset 0
 532 001c 7047     		bx	lr
 533              		.cfi_endproc
 534              	.LFE1892:
 535              		.cantunwind
 536              		.fnend
 538              		.section	.text._ZNK12StaticString5c_strEv,"axG",%progbits,_ZNK12StaticString5c_strEv,comdat
 539              		.align	1
 540              		.weak	_ZNK12StaticString5c_strEv
 541              		.syntax unified
 542              		.thumb
 543              		.thumb_func
 545              	_ZNK12StaticString5c_strEv:
 546              		.fnstart
 547              	.LFB1893:
ARM GAS  /var/folders/bb/dhrb69655gd8t4nf464nxc_00000gn/T//ccyYPrc2.s 			page 14


  48:Core/Inc/StaticString.hpp **** 	inline const char * c_str() const { return s; }
 548              		.loc 2 48 22
 549              		.cfi_startproc
 550              		@ args = 0, pretend = 0, frame = 8
 551              		@ frame_needed = 1, uses_anonymous_args = 0
 552              		@ link register save eliminated.
 553 0000 80B4     		push	{r7}
 554              		.cfi_def_cfa_offset 4
 555              		.cfi_offset 7, -4
 556 0002 83B0     		sub	sp, sp, #12
 557              		.cfi_def_cfa_offset 16
 558 0004 00AF     		add	r7, sp, #0
 559              		.cfi_def_cfa_register 7
 560 0006 7860     		str	r0, [r7, #4]
 561              		.loc 2 48 45
 562 0008 7B68     		ldr	r3, [r7, #4]
 563 000a 1B68     		ldr	r3, [r3]
 564              		.loc 2 48 48
 565 000c 1846     		mov	r0, r3
 566 000e 0C37     		adds	r7, r7, #12
 567              		.cfi_def_cfa_offset 4
 568 0010 BD46     		mov	sp, r7
 569              		.cfi_def_cfa_register 13
 570              		@ sp needed
 571 0012 5DF8047B 		ldr	r7, [sp], #4
 572              		.cfi_restore 7
 573              		.cfi_def_cfa_offset 0
 574 0016 7047     		bx	lr
 575              		.cfi_endproc
 576              	.LFE1893:
 577              		.cantunwind
 578              		.fnend
 580              		.section	.text._ZNK12StaticString6substrEjj,"axG",%progbits,_ZNK12StaticString6substrEjj,comdat
 581              		.align	1
 582              		.weak	_ZNK12StaticString6substrEjj
 583              		.syntax unified
 584              		.thumb
 585              		.thumb_func
 587              	_ZNK12StaticString6substrEjj:
 588              		.fnstart
 589              	.LFB1896:
  49:Core/Inc/StaticString.hpp **** 	inline bool empty() const { return l == 0; }
  50:Core/Inc/StaticString.hpp **** 	inline char at(size_t n) const { return *(s + n); }
  51:Core/Inc/StaticString.hpp **** 
  52:Core/Inc/StaticString.hpp **** 
  53:Core/Inc/StaticString.hpp **** 	StaticString substr(size_t begin, size_t len = npos) const { return StaticString(s + begin, (len =
 590              		.loc 2 53 15
 591              		.cfi_startproc
 592              		@ args = 0, pretend = 0, frame = 16
 593              		@ frame_needed = 1, uses_anonymous_args = 0
 594 0000 80B5     		push	{r7, lr}
 595              		.cfi_def_cfa_offset 8
 596              		.cfi_offset 7, -8
 597              		.cfi_offset 14, -4
 598 0002 84B0     		sub	sp, sp, #16
 599              		.cfi_def_cfa_offset 24
 600 0004 00AF     		add	r7, sp, #0
ARM GAS  /var/folders/bb/dhrb69655gd8t4nf464nxc_00000gn/T//ccyYPrc2.s 			page 15


 601              		.cfi_def_cfa_register 7
 602 0006 F860     		str	r0, [r7, #12]
 603 0008 B960     		str	r1, [r7, #8]
 604 000a 7A60     		str	r2, [r7, #4]
 605 000c 3B60     		str	r3, [r7]
 606              		.loc 2 53 83
 607 000e BB68     		ldr	r3, [r7, #8]
 608 0010 1A68     		ldr	r2, [r3]
 609              		.loc 2 53 127
 610 0012 7B68     		ldr	r3, [r7, #4]
 611 0014 D118     		adds	r1, r2, r3
 612 0016 3B68     		ldr	r3, [r7]
 613 0018 B3F1FF3F 		cmp	r3, #-1
 614 001c 04D1     		bne	.L14
 615              		.loc 2 53 111 discriminator 1
 616 001e BB68     		ldr	r3, [r7, #8]
 617 0020 5A68     		ldr	r2, [r3, #4]
 618              		.loc 2 53 127 discriminator 1
 619 0022 7B68     		ldr	r3, [r7, #4]
 620 0024 D31A     		subs	r3, r2, r3
 621 0026 00E0     		b	.L15
 622              	.L14:
 623              		.loc 2 53 127 is_stmt 0 discriminator 2
 624 0028 3B68     		ldr	r3, [r7]
 625              	.L15:
 626              		.loc 2 53 127 discriminator 4
 627 002a 1A46     		mov	r2, r3
 628 002c F868     		ldr	r0, [r7, #12]
 629 002e FFF7FEFF 		bl	_ZN12StaticStringC1IKcEEPT_j
 630              		.loc 2 53 130 is_stmt 1 discriminator 4
 631 0032 F868     		ldr	r0, [r7, #12]
 632 0034 1037     		adds	r7, r7, #16
 633              		.cfi_def_cfa_offset 8
 634 0036 BD46     		mov	sp, r7
 635              		.cfi_def_cfa_register 13
 636              		@ sp needed
 637 0038 80BD     		pop	{r7, pc}
 638              		.cfi_endproc
 639              	.LFE1896:
 640              		.cantunwind
 641              		.fnend
 643              		.section	.text._ZN12StaticStringaSERKS_,"axG",%progbits,_ZN12StaticStringaSERKS_,comdat
 644              		.align	1
 645              		.weak	_ZN12StaticStringaSERKS_
 646              		.syntax unified
 647              		.thumb
 648              		.thumb_func
 650              	_ZN12StaticStringaSERKS_:
 651              		.fnstart
 652              	.LFB1897:
  54:Core/Inc/StaticString.hpp **** 	size_t find(char c) const;
  55:Core/Inc/StaticString.hpp **** 	size_t find_last_of(char c) const;
  56:Core/Inc/StaticString.hpp **** 
  57:Core/Inc/StaticString.hpp **** 	inline const char * operator = (const StaticString & str){ return str.s; }
 653              		.loc 2 57 22
 654              		.cfi_startproc
 655              		@ args = 0, pretend = 0, frame = 8
ARM GAS  /var/folders/bb/dhrb69655gd8t4nf464nxc_00000gn/T//ccyYPrc2.s 			page 16


 656              		@ frame_needed = 1, uses_anonymous_args = 0
 657              		@ link register save eliminated.
 658 0000 80B4     		push	{r7}
 659              		.cfi_def_cfa_offset 4
 660              		.cfi_offset 7, -4
 661 0002 83B0     		sub	sp, sp, #12
 662              		.cfi_def_cfa_offset 16
 663 0004 00AF     		add	r7, sp, #0
 664              		.cfi_def_cfa_register 7
 665 0006 7860     		str	r0, [r7, #4]
 666 0008 3960     		str	r1, [r7]
 667              		.loc 2 57 72
 668 000a 3B68     		ldr	r3, [r7]
 669 000c 1B68     		ldr	r3, [r3]
 670              		.loc 2 57 75
 671 000e 1846     		mov	r0, r3
 672 0010 0C37     		adds	r7, r7, #12
 673              		.cfi_def_cfa_offset 4
 674 0012 BD46     		mov	sp, r7
 675              		.cfi_def_cfa_register 13
 676              		@ sp needed
 677 0014 5DF8047B 		ldr	r7, [sp], #4
 678              		.cfi_restore 7
 679              		.cfi_def_cfa_offset 0
 680 0018 7047     		bx	lr
 681              		.cfi_endproc
 682              	.LFE1897:
 683              		.cantunwind
 684              		.fnend
 686              		.section	.text._ZNK12StaticStringeqEOS_,"axG",%progbits,_ZNK12StaticStringeqEOS_,comdat
 687              		.align	1
 688              		.weak	_ZNK12StaticStringeqEOS_
 689              		.syntax unified
 690              		.thumb
 691              		.thumb_func
 693              	_ZNK12StaticStringeqEOS_:
 694              		.fnstart
 695              	.LFB1898:
  58:Core/Inc/StaticString.hpp **** 	StaticString operator + (StaticString & s);
  59:Core/Inc/StaticString.hpp **** 	bool operator == (StaticString && str) const { return strncmp(s, str.s, l) == 0; }
 696              		.loc 2 59 7
 697              		.cfi_startproc
 698              		@ args = 0, pretend = 0, frame = 8
 699              		@ frame_needed = 1, uses_anonymous_args = 0
 700 0000 80B5     		push	{r7, lr}
 701              		.cfi_def_cfa_offset 8
 702              		.cfi_offset 7, -8
 703              		.cfi_offset 14, -4
 704 0002 82B0     		sub	sp, sp, #8
 705              		.cfi_def_cfa_offset 16
 706 0004 00AF     		add	r7, sp, #0
 707              		.cfi_def_cfa_register 7
 708 0006 7860     		str	r0, [r7, #4]
 709 0008 3960     		str	r1, [r7]
 710              		.loc 2 59 64
 711 000a 7B68     		ldr	r3, [r7, #4]
 712 000c 1868     		ldr	r0, [r3]
ARM GAS  /var/folders/bb/dhrb69655gd8t4nf464nxc_00000gn/T//ccyYPrc2.s 			page 17


 713              		.loc 2 59 63
 714 000e 3B68     		ldr	r3, [r7]
 715 0010 1968     		ldr	r1, [r3]
 716              		.loc 2 59 74
 717 0012 7B68     		ldr	r3, [r7, #4]
 718 0014 5B68     		ldr	r3, [r3, #4]
 719              		.loc 2 59 63
 720 0016 1A46     		mov	r2, r3
 721 0018 FFF7FEFF 		bl	strncmp
 722 001c 0346     		mov	r3, r0
 723              		.loc 2 59 80
 724 001e 002B     		cmp	r3, #0
 725 0020 0CBF     		ite	eq
 726 0022 0123     		moveq	r3, #1
 727 0024 0023     		movne	r3, #0
 728 0026 DBB2     		uxtb	r3, r3
 729              		.loc 2 59 83
 730 0028 1846     		mov	r0, r3
 731 002a 0837     		adds	r7, r7, #8
 732              		.cfi_def_cfa_offset 8
 733 002c BD46     		mov	sp, r7
 734              		.cfi_def_cfa_register 13
 735              		@ sp needed
 736 002e 80BD     		pop	{r7, pc}
 737              		.cfi_endproc
 738              	.LFE1898:
 739              		.cantunwind
 740              		.fnend
 742              		.section	.rodata
 743              		.align	2
 744              	.LC0:
 745 0000 0D0A00   		.ascii	"\015\012\000"
 746              		.section	.text._ZN13NMEA_StandardC2Ev,"axG",%progbits,_ZN13NMEA_StandardC5Ev,comdat
 747              		.align	1
 748              		.weak	_ZN13NMEA_StandardC2Ev
 749              		.syntax unified
 750              		.thumb
 751              		.thumb_func
 753              	_ZN13NMEA_StandardC2Ev:
 754              		.fnstart
 755              	.LFB1906:
 756              		.file 3 "Core/Inc/NMEA_Standard.hpp"
   1:Core/Inc/NMEA_Standard.hpp **** /**
   2:Core/Inc/NMEA_Standard.hpp ****   ******************************************************************************
   3:Core/Inc/NMEA_Standard.hpp ****   * @file           : NMEA.hpp
   4:Core/Inc/NMEA_Standard.hpp ****   * @brief          : NMEA Protocol Standard Driver
   5:Core/Inc/NMEA_Standard.hpp ****   * @author			: Lawrence Stanton
   6:Core/Inc/NMEA_Standard.hpp ****   ******************************************************************************
   7:Core/Inc/NMEA_Standard.hpp ****   * @attention
   8:Core/Inc/NMEA_Standard.hpp ****   *
   9:Core/Inc/NMEA_Standard.hpp ****   *  LD Stanton 2022
  10:Core/Inc/NMEA_Standard.hpp ****   * 
  11:Core/Inc/NMEA_Standard.hpp ****   * This file and its content are the copyright property of the author. All 
  12:Core/Inc/NMEA_Standard.hpp ****   * rights are reserved. No warranty is given. No liability is assumed.
  13:Core/Inc/NMEA_Standard.hpp ****   * Confidential unless licensed otherwise. If licensed, refer to the 
  14:Core/Inc/NMEA_Standard.hpp ****   * accompanying file "LICENCE" for license details.
  15:Core/Inc/NMEA_Standard.hpp ****   * 
ARM GAS  /var/folders/bb/dhrb69655gd8t4nf464nxc_00000gn/T//ccyYPrc2.s 			page 18


  16:Core/Inc/NMEA_Standard.hpp ****   ******************************************************************************
  17:Core/Inc/NMEA_Standard.hpp ****   */
  18:Core/Inc/NMEA_Standard.hpp **** 
  19:Core/Inc/NMEA_Standard.hpp **** #pragma once
  20:Core/Inc/NMEA_Standard.hpp **** 
  21:Core/Inc/NMEA_Standard.hpp **** #include <array>
  22:Core/Inc/NMEA_Standard.hpp **** #include <stdint.h>
  23:Core/Inc/NMEA_Standard.hpp **** 
  24:Core/Inc/NMEA_Standard.hpp **** #include "StaticString.hpp"
  25:Core/Inc/NMEA_Standard.hpp **** 
  26:Core/Inc/NMEA_Standard.hpp **** using string = StaticString;
  27:Core/Inc/NMEA_Standard.hpp **** 
  28:Core/Inc/NMEA_Standard.hpp **** class NMEA_Standard{
  29:Core/Inc/NMEA_Standard.hpp **** protected:
  30:Core/Inc/NMEA_Standard.hpp **** 	struct Address;
  31:Core/Inc/NMEA_Standard.hpp **** 	struct Checksum;
  32:Core/Inc/NMEA_Standard.hpp **** 
  33:Core/Inc/NMEA_Standard.hpp **** public:
  34:Core/Inc/NMEA_Standard.hpp **** 	enum class TalkerID;
  35:Core/Inc/NMEA_Standard.hpp **** 	enum class Message;
  36:Core/Inc/NMEA_Standard.hpp **** 
  37:Core/Inc/NMEA_Standard.hpp **** 	class DTM;
  38:Core/Inc/NMEA_Standard.hpp **** 	class GBS;
  39:Core/Inc/NMEA_Standard.hpp **** 	class GGA;
  40:Core/Inc/NMEA_Standard.hpp **** 	class GLL;
  41:Core/Inc/NMEA_Standard.hpp **** 	class GNS;
  42:Core/Inc/NMEA_Standard.hpp **** 	class GRS;
  43:Core/Inc/NMEA_Standard.hpp **** 	class GSA;
  44:Core/Inc/NMEA_Standard.hpp **** 	class GST;
  45:Core/Inc/NMEA_Standard.hpp **** 	class GSV;
  46:Core/Inc/NMEA_Standard.hpp **** 	class RLM;
  47:Core/Inc/NMEA_Standard.hpp **** 	class RMC;
  48:Core/Inc/NMEA_Standard.hpp **** 	class TXT;
  49:Core/Inc/NMEA_Standard.hpp **** 	class VLW;
  50:Core/Inc/NMEA_Standard.hpp **** 	class VTG;
  51:Core/Inc/NMEA_Standard.hpp **** 	class ZDA;
  52:Core/Inc/NMEA_Standard.hpp **** 
  53:Core/Inc/NMEA_Standard.hpp **** 	class BAD;	// NOT a real NMEA object. Returned by factory when an invalid NMEA sentence is passed.
  54:Core/Inc/NMEA_Standard.hpp **** 	
  55:Core/Inc/NMEA_Standard.hpp **** 	virtual ~NMEA_Standard() = default;
  56:Core/Inc/NMEA_Standard.hpp **** 
  57:Core/Inc/NMEA_Standard.hpp **** 	virtual string toString(char * buff) = 0;	// Generates the NMEA Sentence representing teh NMEA obj
  58:Core/Inc/NMEA_Standard.hpp **** 
  59:Core/Inc/NMEA_Standard.hpp **** 	inline static bool valid(const string & nmea) {return Checksum::valid(nmea);}
  60:Core/Inc/NMEA_Standard.hpp **** 
  61:Core/Inc/NMEA_Standard.hpp **** protected:
  62:Core/Inc/NMEA_Standard.hpp **** 	struct Address{
  63:Core/Inc/NMEA_Standard.hpp **** 		string tt;	// Talker Identifier (string format)
  64:Core/Inc/NMEA_Standard.hpp **** 		string sss;	// Sentence Formatter
  65:Core/Inc/NMEA_Standard.hpp **** 		// Note: tt and sss are typically that many characters long but proprietary messages can be diffe
  66:Core/Inc/NMEA_Standard.hpp **** 		
  67:Core/Inc/NMEA_Standard.hpp **** 		Address() = default;
  68:Core/Inc/NMEA_Standard.hpp **** 		Address(const string & s);
  69:Core/Inc/NMEA_Standard.hpp **** 		Address(const string & tt, const string & sss);
  70:Core/Inc/NMEA_Standard.hpp **** 		string toString();
  71:Core/Inc/NMEA_Standard.hpp **** 	};
  72:Core/Inc/NMEA_Standard.hpp **** 	
ARM GAS  /var/folders/bb/dhrb69655gd8t4nf464nxc_00000gn/T//ccyYPrc2.s 			page 19


  73:Core/Inc/NMEA_Standard.hpp **** 	struct Checksum{
  74:Core/Inc/NMEA_Standard.hpp **** 		static const char ast = '*';	// Checksum Prefix
  75:Core/Inc/NMEA_Standard.hpp **** 		uint8_t cs;						// Checksum Value
  76:Core/Inc/NMEA_Standard.hpp **** 
  77:Core/Inc/NMEA_Standard.hpp **** 		Checksum() = default;
  78:Core/Inc/NMEA_Standard.hpp **** 		Checksum(const string & s);		// s is the checksum substring including the '*'.
  79:Core/Inc/NMEA_Standard.hpp **** 		Checksum(uint8_t cs);			// Set a hexadecimal value for cs.
  80:Core/Inc/NMEA_Standard.hpp **** 		
  81:Core/Inc/NMEA_Standard.hpp **** 		static uint8_t checksum(const string & nmea);	// Calculates and sets the checksum based upon a NM
  82:Core/Inc/NMEA_Standard.hpp **** 		static bool valid(const string & nmea);
  83:Core/Inc/NMEA_Standard.hpp **** 		string toString(char cStr[4]);
  84:Core/Inc/NMEA_Standard.hpp **** 	};
  85:Core/Inc/NMEA_Standard.hpp **** 
  86:Core/Inc/NMEA_Standard.hpp **** 	struct UTC_Time{
  87:Core/Inc/NMEA_Standard.hpp **** 		uint8_t hh;	// Hours
  88:Core/Inc/NMEA_Standard.hpp **** 		uint8_t mm;	// Minutes
  89:Core/Inc/NMEA_Standard.hpp **** 		float ss;	// Seconds (2 or 3 decimal points of precision)
  90:Core/Inc/NMEA_Standard.hpp **** 
  91:Core/Inc/NMEA_Standard.hpp **** 		UTC_Time() = default;
  92:Core/Inc/NMEA_Standard.hpp **** 		UTC_Time(const string & tStr);
  93:Core/Inc/NMEA_Standard.hpp **** 		UTC_Time(const UTC_Time & t) = default;
  94:Core/Inc/NMEA_Standard.hpp **** 		string toString();
  95:Core/Inc/NMEA_Standard.hpp **** 
  96:Core/Inc/NMEA_Standard.hpp **** 		// uint32_t operator = (const UTC_Time & t);	// Time in ms since Jan 1 1980
  97:Core/Inc/NMEA_Standard.hpp **** 	};
  98:Core/Inc/NMEA_Standard.hpp **** 
  99:Core/Inc/NMEA_Standard.hpp **** 	struct Coordinate{
 100:Core/Inc/NMEA_Standard.hpp **** 		uint16_t deg;
 101:Core/Inc/NMEA_Standard.hpp **** 		float min;
 102:Core/Inc/NMEA_Standard.hpp **** 
 103:Core/Inc/NMEA_Standard.hpp **** 		Coordinate() = default;
 104:Core/Inc/NMEA_Standard.hpp **** 		Coordinate(const string & s);
 105:Core/Inc/NMEA_Standard.hpp **** 		Coordinate(const Coordinate & c) = default;
 106:Core/Inc/NMEA_Standard.hpp **** 
 107:Core/Inc/NMEA_Standard.hpp **** 		string toString(char cStr[11]);
 108:Core/Inc/NMEA_Standard.hpp **** 
 109:Core/Inc/NMEA_Standard.hpp **** 		float operator = (const Coordinate c);
 110:Core/Inc/NMEA_Standard.hpp **** 
 111:Core/Inc/NMEA_Standard.hpp **** 	};
 112:Core/Inc/NMEA_Standard.hpp **** 
 113:Core/Inc/NMEA_Standard.hpp **** 	NMEA_Standard() = default;	// Derived classes shall be responsible for all base member initialisat
 757              		.loc 3 113 2
 758              		.cfi_startproc
 759              		@ args = 0, pretend = 0, frame = 8
 760              		@ frame_needed = 1, uses_anonymous_args = 0
 761 0000 80B5     		push	{r7, lr}
 762              		.cfi_def_cfa_offset 8
 763              		.cfi_offset 7, -8
 764              		.cfi_offset 14, -4
 765 0002 82B0     		sub	sp, sp, #8
 766              		.cfi_def_cfa_offset 16
 767 0004 00AF     		add	r7, sp, #0
 768              		.cfi_def_cfa_register 7
 769 0006 7860     		str	r0, [r7, #4]
 770              	.LBB3:
 771              		.loc 3 113 2
 772 0008 084A     		ldr	r2, .L23
ARM GAS  /var/folders/bb/dhrb69655gd8t4nf464nxc_00000gn/T//ccyYPrc2.s 			page 20


 773 000a 7B68     		ldr	r3, [r7, #4]
 774 000c 1A60     		str	r2, [r3]
 775 000e 7B68     		ldr	r3, [r7, #4]
 776 0010 2422     		movs	r2, #36
 777 0012 1A71     		strb	r2, [r3, #4]
 778 0014 7B68     		ldr	r3, [r7, #4]
 779 0016 0833     		adds	r3, r3, #8
 780 0018 0549     		ldr	r1, .L23+4
 781 001a 1846     		mov	r0, r3
 782 001c FFF7FEFF 		bl	_ZN12StaticStringC1EPKc
 783              	.LBE3:
 784 0020 7B68     		ldr	r3, [r7, #4]
 785 0022 1846     		mov	r0, r3
 786 0024 0837     		adds	r7, r7, #8
 787              		.cfi_def_cfa_offset 8
 788 0026 BD46     		mov	sp, r7
 789              		.cfi_def_cfa_register 13
 790              		@ sp needed
 791 0028 80BD     		pop	{r7, pc}
 792              	.L24:
 793 002a 00BF     		.align	2
 794              	.L23:
 795 002c 08000000 		.word	_ZTV13NMEA_Standard+8
 796 0030 00000000 		.word	.LC0
 797              		.cfi_endproc
 798              	.LFE1906:
 799              		.cantunwind
 800              		.fnend
 802              		.weak	_ZN13NMEA_StandardC1Ev
 803              		.thumb_set _ZN13NMEA_StandardC1Ev,_ZN13NMEA_StandardC2Ev
 804              		.section	.text._ZN13NMEA_StandardD2Ev,"axG",%progbits,_ZN13NMEA_StandardD5Ev,comdat
 805              		.align	1
 806              		.weak	_ZN13NMEA_StandardD2Ev
 807              		.syntax unified
 808              		.thumb
 809              		.thumb_func
 811              	_ZN13NMEA_StandardD2Ev:
 812              		.fnstart
 813              	.LFB1909:
  55:Core/Inc/NMEA_Standard.hpp **** 
 814              		.loc 3 55 10
 815              		.cfi_startproc
 816              		@ args = 0, pretend = 0, frame = 8
 817              		@ frame_needed = 1, uses_anonymous_args = 0
 818              		@ link register save eliminated.
 819 0000 80B4     		push	{r7}
 820              		.cfi_def_cfa_offset 4
 821              		.cfi_offset 7, -4
 822 0002 83B0     		sub	sp, sp, #12
 823              		.cfi_def_cfa_offset 16
 824 0004 00AF     		add	r7, sp, #0
 825              		.cfi_def_cfa_register 7
 826 0006 7860     		str	r0, [r7, #4]
 827              	.LBB4:
  55:Core/Inc/NMEA_Standard.hpp **** 
 828              		.loc 3 55 10
 829 0008 044A     		ldr	r2, .L27
ARM GAS  /var/folders/bb/dhrb69655gd8t4nf464nxc_00000gn/T//ccyYPrc2.s 			page 21


 830 000a 7B68     		ldr	r3, [r7, #4]
 831 000c 1A60     		str	r2, [r3]
 832              	.LBE4:
 833 000e 7B68     		ldr	r3, [r7, #4]
 834 0010 1846     		mov	r0, r3
 835 0012 0C37     		adds	r7, r7, #12
 836              		.cfi_def_cfa_offset 4
 837 0014 BD46     		mov	sp, r7
 838              		.cfi_def_cfa_register 13
 839              		@ sp needed
 840 0016 5DF8047B 		ldr	r7, [sp], #4
 841              		.cfi_restore 7
 842              		.cfi_def_cfa_offset 0
 843 001a 7047     		bx	lr
 844              	.L28:
 845              		.align	2
 846              	.L27:
 847 001c 08000000 		.word	_ZTV13NMEA_Standard+8
 848              		.cfi_endproc
 849              	.LFE1909:
 850              		.cantunwind
 851              		.fnend
 853              		.weak	_ZN13NMEA_StandardD1Ev
 854              		.thumb_set _ZN13NMEA_StandardD1Ev,_ZN13NMEA_StandardD2Ev
 855              		.section	.text._ZN13NMEA_StandardD0Ev,"axG",%progbits,_ZN13NMEA_StandardD5Ev,comdat
 856              		.align	1
 857              		.weak	_ZN13NMEA_StandardD0Ev
 858              		.syntax unified
 859              		.thumb
 860              		.thumb_func
 862              	_ZN13NMEA_StandardD0Ev:
 863              		.fnstart
 864              	.LFB1911:
  55:Core/Inc/NMEA_Standard.hpp **** 
 865              		.loc 3 55 10
 866              		.cfi_startproc
 867              		@ args = 0, pretend = 0, frame = 8
 868              		@ frame_needed = 1, uses_anonymous_args = 0
 869 0000 80B5     		push	{r7, lr}
 870              		.cfi_def_cfa_offset 8
 871              		.cfi_offset 7, -8
 872              		.cfi_offset 14, -4
 873 0002 82B0     		sub	sp, sp, #8
 874              		.cfi_def_cfa_offset 16
 875 0004 00AF     		add	r7, sp, #0
 876              		.cfi_def_cfa_register 7
 877 0006 7860     		str	r0, [r7, #4]
  55:Core/Inc/NMEA_Standard.hpp **** 
 878              		.loc 3 55 10
 879 0008 7868     		ldr	r0, [r7, #4]
 880 000a FFF7FEFF 		bl	_ZN13NMEA_StandardD1Ev
 881 000e 1021     		movs	r1, #16
 882 0010 7868     		ldr	r0, [r7, #4]
 883 0012 FFF7FEFF 		bl	_ZdlPvj
 884 0016 7B68     		ldr	r3, [r7, #4]
 885 0018 1846     		mov	r0, r3
 886 001a 0837     		adds	r7, r7, #8
ARM GAS  /var/folders/bb/dhrb69655gd8t4nf464nxc_00000gn/T//ccyYPrc2.s 			page 22


 887              		.cfi_def_cfa_offset 8
 888 001c BD46     		mov	sp, r7
 889              		.cfi_def_cfa_register 13
 890              		@ sp needed
 891 001e 80BD     		pop	{r7, pc}
 892              		.cfi_endproc
 893              	.LFE1911:
 894              		.cantunwind
 895              		.fnend
 897              		.section	.text._ZN8M9N_Base9NMEA_PUBXC2Ev,"axG",%progbits,_ZN8M9N_Base9NMEA_PUBXC5Ev,comdat
 898              		.align	1
 899              		.weak	_ZN8M9N_Base9NMEA_PUBXC2Ev
 900              		.syntax unified
 901              		.thumb
 902              		.thumb_func
 904              	_ZN8M9N_Base9NMEA_PUBXC2Ev:
 905              		.fnstart
 906              	.LFB1918:
 907              		.file 4 "Core/Inc/M9N_Base.hpp"
   1:Core/Inc/M9N_Base.hpp **** /**
   2:Core/Inc/M9N_Base.hpp ****   ******************************************************************************
   3:Core/Inc/M9N_Base.hpp ****   * @file           : M9N.hpp
   4:Core/Inc/M9N_Base.hpp ****   * @brief          : Header file for uBlox M9N Base Driver.
   5:Core/Inc/M9N_Base.hpp ****   * @author			: Lawrence Stanton
   6:Core/Inc/M9N_Base.hpp ****   ******************************************************************************
   7:Core/Inc/M9N_Base.hpp ****   * @attention
   8:Core/Inc/M9N_Base.hpp ****   *
   9:Core/Inc/M9N_Base.hpp ****   *  LD Stanton 2022
  10:Core/Inc/M9N_Base.hpp ****   * 
  11:Core/Inc/M9N_Base.hpp ****   * This file and its content are the copyright property of the author. All 
  12:Core/Inc/M9N_Base.hpp ****   * rights are reserved. No warranty is given. No liability is assumed.
  13:Core/Inc/M9N_Base.hpp ****   * Confidential unless licensed otherwise. If licensed, refer to the 
  14:Core/Inc/M9N_Base.hpp ****   * accompanying file "LICENCE" for license details.
  15:Core/Inc/M9N_Base.hpp ****   * 
  16:Core/Inc/M9N_Base.hpp ****   ******************************************************************************
  17:Core/Inc/M9N_Base.hpp ****   */
  18:Core/Inc/M9N_Base.hpp **** 
  19:Core/Inc/M9N_Base.hpp **** #pragma once
  20:Core/Inc/M9N_Base.hpp **** 
  21:Core/Inc/M9N_Base.hpp **** #include <stdio.h>
  22:Core/Inc/M9N_Base.hpp **** #include <string>
  23:Core/Inc/M9N_Base.hpp **** #include <vector>
  24:Core/Inc/M9N_Base.hpp **** 
  25:Core/Inc/M9N_Base.hpp **** #include "UBX.hpp"
  26:Core/Inc/M9N_Base.hpp **** #include "NMEA_Standard.hpp"
  27:Core/Inc/M9N_Base.hpp **** #include "StaticString.hpp"
  28:Core/Inc/M9N_Base.hpp **** 
  29:Core/Inc/M9N_Base.hpp **** 
  30:Core/Inc/M9N_Base.hpp **** class M9N_Base{
  31:Core/Inc/M9N_Base.hpp **** public:
  32:Core/Inc/M9N_Base.hpp **** 
  33:Core/Inc/M9N_Base.hpp **** 	enum class PortID : uint8_t{
  34:Core/Inc/M9N_Base.hpp **** 		UART1 = 1u,	// UART Interface
  35:Core/Inc/M9N_Base.hpp **** 		USB = 3u	// Serial USB Interface
  36:Core/Inc/M9N_Base.hpp **** 	};
  37:Core/Inc/M9N_Base.hpp **** 	
  38:Core/Inc/M9N_Base.hpp **** 	enum class InProto : uint16_t{
ARM GAS  /var/folders/bb/dhrb69655gd8t4nf464nxc_00000gn/T//ccyYPrc2.s 			page 23


  39:Core/Inc/M9N_Base.hpp **** 		UBX   = 0x0001u,
  40:Core/Inc/M9N_Base.hpp **** 		NMEA  = 0x0002u,
  41:Core/Inc/M9N_Base.hpp **** 		RTCM  = 0x0004u,
  42:Core/Inc/M9N_Base.hpp **** 		RTCM3 = 0x0020u,
  43:Core/Inc/M9N_Base.hpp **** 		ALL   = 0x0027u
  44:Core/Inc/M9N_Base.hpp **** 	};
  45:Core/Inc/M9N_Base.hpp **** 
  46:Core/Inc/M9N_Base.hpp **** 	enum class OutProto : uint16_t{
  47:Core/Inc/M9N_Base.hpp **** 		UBX   = 0x0001u,
  48:Core/Inc/M9N_Base.hpp **** 		NMEA  = 0x0002u
  49:Core/Inc/M9N_Base.hpp **** 	};
  50:Core/Inc/M9N_Base.hpp **** 
  51:Core/Inc/M9N_Base.hpp **** 	enum class Baud : uint32_t{
  52:Core/Inc/M9N_Base.hpp **** 		B9600 = 9600u,
  53:Core/Inc/M9N_Base.hpp **** 		B19200 = 19200u,
  54:Core/Inc/M9N_Base.hpp **** 		B38400 = 38400u,
  55:Core/Inc/M9N_Base.hpp **** 		B115200 = 115200u,
  56:Core/Inc/M9N_Base.hpp **** 		B230400 = 230400u,
  57:Core/Inc/M9N_Base.hpp **** 		B460800 = 460800u,
  58:Core/Inc/M9N_Base.hpp **** 		B921600 = 921600u
  59:Core/Inc/M9N_Base.hpp **** 	};
  60:Core/Inc/M9N_Base.hpp **** 
  61:Core/Inc/M9N_Base.hpp **** 	enum class MessageType{
  62:Core/Inc/M9N_Base.hpp **** 		NMEA,
  63:Core/Inc/M9N_Base.hpp **** 		UBX,
  64:Core/Inc/M9N_Base.hpp **** 		RTCM
  65:Core/Inc/M9N_Base.hpp **** 	};
  66:Core/Inc/M9N_Base.hpp **** 
  67:Core/Inc/M9N_Base.hpp **** 	class NMEA_PUBX : public NMEA_Standard{
 908              		.loc 4 67 8
 909              		.cfi_startproc
 910              		@ args = 0, pretend = 0, frame = 8
 911              		@ frame_needed = 1, uses_anonymous_args = 0
 912 0000 80B5     		push	{r7, lr}
 913              		.cfi_def_cfa_offset 8
 914              		.cfi_offset 7, -8
 915              		.cfi_offset 14, -4
 916 0002 82B0     		sub	sp, sp, #8
 917              		.cfi_def_cfa_offset 16
 918 0004 00AF     		add	r7, sp, #0
 919              		.cfi_def_cfa_register 7
 920 0006 7860     		str	r0, [r7, #4]
 921              	.LBB5:
 922              		.loc 4 67 8
 923 0008 7B68     		ldr	r3, [r7, #4]
 924 000a 1846     		mov	r0, r3
 925 000c FFF7FEFF 		bl	_ZN13NMEA_StandardC2Ev
 926 0010 034A     		ldr	r2, .L33
 927 0012 7B68     		ldr	r3, [r7, #4]
 928 0014 1A60     		str	r2, [r3]
 929              	.LBE5:
 930 0016 7B68     		ldr	r3, [r7, #4]
 931 0018 1846     		mov	r0, r3
 932 001a 0837     		adds	r7, r7, #8
 933              		.cfi_def_cfa_offset 8
 934 001c BD46     		mov	sp, r7
 935              		.cfi_def_cfa_register 13
ARM GAS  /var/folders/bb/dhrb69655gd8t4nf464nxc_00000gn/T//ccyYPrc2.s 			page 24


 936              		@ sp needed
 937 001e 80BD     		pop	{r7, pc}
 938              	.L34:
 939              		.align	2
 940              	.L33:
 941 0020 08000000 		.word	_ZTVN8M9N_Base9NMEA_PUBXE+8
 942              		.cfi_endproc
 943              	.LFE1918:
 944              		.cantunwind
 945              		.fnend
 947              		.weak	_ZN8M9N_Base9NMEA_PUBXC1Ev
 948              		.thumb_set _ZN8M9N_Base9NMEA_PUBXC1Ev,_ZN8M9N_Base9NMEA_PUBXC2Ev
 949              		.section	.text._ZN8M9N_Base9NMEA_PUBXD2Ev,"axG",%progbits,_ZN8M9N_Base9NMEA_PUBXD5Ev,comdat
 950              		.align	1
 951              		.weak	_ZN8M9N_Base9NMEA_PUBXD2Ev
 952              		.syntax unified
 953              		.thumb
 954              		.thumb_func
 956              	_ZN8M9N_Base9NMEA_PUBXD2Ev:
 957              		.fnstart
 958              	.LFB1921:
 959              		.loc 4 67 8
 960              		.cfi_startproc
 961              		@ args = 0, pretend = 0, frame = 8
 962              		@ frame_needed = 1, uses_anonymous_args = 0
 963 0000 80B5     		push	{r7, lr}
 964              		.cfi_def_cfa_offset 8
 965              		.cfi_offset 7, -8
 966              		.cfi_offset 14, -4
 967 0002 82B0     		sub	sp, sp, #8
 968              		.cfi_def_cfa_offset 16
 969 0004 00AF     		add	r7, sp, #0
 970              		.cfi_def_cfa_register 7
 971 0006 7860     		str	r0, [r7, #4]
 972              	.LBB6:
 973              		.loc 4 67 8
 974 0008 054A     		ldr	r2, .L37
 975 000a 7B68     		ldr	r3, [r7, #4]
 976 000c 1A60     		str	r2, [r3]
 977 000e 7B68     		ldr	r3, [r7, #4]
 978 0010 1846     		mov	r0, r3
 979 0012 FFF7FEFF 		bl	_ZN13NMEA_StandardD2Ev
 980              	.LBE6:
 981 0016 7B68     		ldr	r3, [r7, #4]
 982 0018 1846     		mov	r0, r3
 983 001a 0837     		adds	r7, r7, #8
 984              		.cfi_def_cfa_offset 8
 985 001c BD46     		mov	sp, r7
 986              		.cfi_def_cfa_register 13
 987              		@ sp needed
 988 001e 80BD     		pop	{r7, pc}
 989              	.L38:
 990              		.align	2
 991              	.L37:
 992 0020 08000000 		.word	_ZTVN8M9N_Base9NMEA_PUBXE+8
 993              		.cfi_endproc
 994              	.LFE1921:
ARM GAS  /var/folders/bb/dhrb69655gd8t4nf464nxc_00000gn/T//ccyYPrc2.s 			page 25


 995              		.cantunwind
 996              		.fnend
 998              		.weak	_ZN8M9N_Base9NMEA_PUBXD1Ev
 999              		.thumb_set _ZN8M9N_Base9NMEA_PUBXD1Ev,_ZN8M9N_Base9NMEA_PUBXD2Ev
 1000              		.section	.text._ZN8M9N_Base9NMEA_PUBXD0Ev,"axG",%progbits,_ZN8M9N_Base9NMEA_PUBXD5Ev,comdat
 1001              		.align	1
 1002              		.weak	_ZN8M9N_Base9NMEA_PUBXD0Ev
 1003              		.syntax unified
 1004              		.thumb
 1005              		.thumb_func
 1007              	_ZN8M9N_Base9NMEA_PUBXD0Ev:
 1008              		.fnstart
 1009              	.LFB1923:
 1010              		.loc 4 67 8
 1011              		.cfi_startproc
 1012              		@ args = 0, pretend = 0, frame = 8
 1013              		@ frame_needed = 1, uses_anonymous_args = 0
 1014 0000 80B5     		push	{r7, lr}
 1015              		.cfi_def_cfa_offset 8
 1016              		.cfi_offset 7, -8
 1017              		.cfi_offset 14, -4
 1018 0002 82B0     		sub	sp, sp, #8
 1019              		.cfi_def_cfa_offset 16
 1020 0004 00AF     		add	r7, sp, #0
 1021              		.cfi_def_cfa_register 7
 1022 0006 7860     		str	r0, [r7, #4]
 1023              		.loc 4 67 8
 1024 0008 7868     		ldr	r0, [r7, #4]
 1025 000a FFF7FEFF 		bl	_ZN8M9N_Base9NMEA_PUBXD1Ev
 1026 000e 1021     		movs	r1, #16
 1027 0010 7868     		ldr	r0, [r7, #4]
 1028 0012 FFF7FEFF 		bl	_ZdlPvj
 1029 0016 7B68     		ldr	r3, [r7, #4]
 1030 0018 1846     		mov	r0, r3
 1031 001a 0837     		adds	r7, r7, #8
 1032              		.cfi_def_cfa_offset 8
 1033 001c BD46     		mov	sp, r7
 1034              		.cfi_def_cfa_register 13
 1035              		@ sp needed
 1036 001e 80BD     		pop	{r7, pc}
 1037              		.cfi_endproc
 1038              	.LFE1923:
 1039              		.cantunwind
 1040              		.fnend
 1042              		.section	.text._ZN8M9N_Base9NMEA_PUBX4PUBXC2Eh,"ax",%progbits
 1043              		.align	1
 1044              		.global	_ZN8M9N_Base9NMEA_PUBX4PUBXC2Eh
 1045              		.syntax unified
 1046              		.thumb
 1047              		.thumb_func
 1049              	_ZN8M9N_Base9NMEA_PUBX4PUBXC2Eh:
 1050              		.fnstart
 1051              	.LFB1924:
 1052              		.file 5 "Core/Src/NMEA_PUBX.cpp"
   1:Core/Src/NMEA_PUBX.cpp **** /**
   2:Core/Src/NMEA_PUBX.cpp ****   ******************************************************************************
   3:Core/Src/NMEA_PUBX.cpp ****   * @file			: NMEA_PUBX.cpp
ARM GAS  /var/folders/bb/dhrb69655gd8t4nf464nxc_00000gn/T//ccyYPrc2.s 			page 26


   4:Core/Src/NMEA_PUBX.cpp ****   * @brief			: Source for PUBX NMEA Protocol Extension.
   5:Core/Src/NMEA_PUBX.cpp ****   * @author			: Lawrence Stanton
   6:Core/Src/NMEA_PUBX.cpp ****   ******************************************************************************
   7:Core/Src/NMEA_PUBX.cpp ****   * @attention
   8:Core/Src/NMEA_PUBX.cpp ****   *
   9:Core/Src/NMEA_PUBX.cpp ****   *  LD Stanton 2022
  10:Core/Src/NMEA_PUBX.cpp ****   * 
  11:Core/Src/NMEA_PUBX.cpp ****   * This file and its content are the copyright property of the author. All 
  12:Core/Src/NMEA_PUBX.cpp ****   * rights are reserved. No warranty is given. No liability is assumed.
  13:Core/Src/NMEA_PUBX.cpp ****   * Confidential unless licensed otherwise. If licensed, refer to the 
  14:Core/Src/NMEA_PUBX.cpp ****   * accompanying file "LICENCE" for license details.
  15:Core/Src/NMEA_PUBX.cpp ****   * 
  16:Core/Src/NMEA_PUBX.cpp ****   ******************************************************************************
  17:Core/Src/NMEA_PUBX.cpp ****   */
  18:Core/Src/NMEA_PUBX.cpp **** 
  19:Core/Src/NMEA_PUBX.cpp **** #include "M9N_Base.hpp"
  20:Core/Src/NMEA_PUBX.cpp **** #include "NMEA_Standard.hpp"
  21:Core/Src/NMEA_PUBX.cpp **** 
  22:Core/Src/NMEA_PUBX.cpp **** #include <algorithm>
  23:Core/Src/NMEA_PUBX.cpp **** 
  24:Core/Src/NMEA_PUBX.cpp **** M9N_Base::NMEA_PUBX::PUBX::PUBX(uint8_t msgId) :
 1053              		.loc 5 24 1
 1054              		.cfi_startproc
 1055              		@ args = 0, pretend = 0, frame = 8
 1056              		@ frame_needed = 1, uses_anonymous_args = 0
 1057 0000 80B5     		push	{r7, lr}
 1058              		.cfi_def_cfa_offset 8
 1059              		.cfi_offset 7, -8
 1060              		.cfi_offset 14, -4
 1061 0002 82B0     		sub	sp, sp, #8
 1062              		.cfi_def_cfa_offset 16
 1063 0004 00AF     		add	r7, sp, #0
 1064              		.cfi_def_cfa_register 7
 1065 0006 7860     		str	r0, [r7, #4]
 1066 0008 0B46     		mov	r3, r1
 1067 000a FB70     		strb	r3, [r7, #3]
 1068              	.LBB7:
  25:Core/Src/NMEA_PUBX.cpp **** 	NMEA_PUBX(),
  26:Core/Src/NMEA_PUBX.cpp **** 	addr(msgId) {}
 1069              		.loc 5 26 12
 1070 000c 7B68     		ldr	r3, [r7, #4]
 1071 000e 1A46     		mov	r2, r3
 1072 0010 0023     		movs	r3, #0
 1073 0012 1360     		str	r3, [r2]
 1074 0014 5360     		str	r3, [r2, #4]
 1075 0016 9360     		str	r3, [r2, #8]
 1076 0018 D360     		str	r3, [r2, #12]
 1077 001a 7B68     		ldr	r3, [r7, #4]
 1078 001c 1846     		mov	r0, r3
 1079 001e FFF7FEFF 		bl	_ZN8M9N_Base9NMEA_PUBXC2Ev
 1080 0022 074A     		ldr	r2, .L43
 1081 0024 7B68     		ldr	r3, [r7, #4]
 1082 0026 1A60     		str	r2, [r3]
 1083 0028 7B68     		ldr	r3, [r7, #4]
 1084 002a 1033     		adds	r3, r3, #16
 1085 002c FA78     		ldrb	r2, [r7, #3]	@ zero_extendqisi2
 1086 002e 1146     		mov	r1, r2
ARM GAS  /var/folders/bb/dhrb69655gd8t4nf464nxc_00000gn/T//ccyYPrc2.s 			page 27


 1087 0030 1846     		mov	r0, r3
 1088 0032 FFF7FEFF 		bl	_ZN8M9N_Base9NMEA_PUBX4PUBX7AddressC1Eh
 1089              	.LBE7:
 1090              		.loc 5 26 15
 1091 0036 7B68     		ldr	r3, [r7, #4]
 1092 0038 1846     		mov	r0, r3
 1093 003a 0837     		adds	r7, r7, #8
 1094              		.cfi_def_cfa_offset 8
 1095 003c BD46     		mov	sp, r7
 1096              		.cfi_def_cfa_register 13
 1097              		@ sp needed
 1098 003e 80BD     		pop	{r7, pc}
 1099              	.L44:
 1100              		.align	2
 1101              	.L43:
 1102 0040 08000000 		.word	_ZTVN8M9N_Base9NMEA_PUBX4PUBXE+8
 1103              		.cfi_endproc
 1104              	.LFE1924:
 1105              		.cantunwind
 1106              		.fnend
 1108              		.global	_ZN8M9N_Base9NMEA_PUBX4PUBXC1Eh
 1109              		.thumb_set _ZN8M9N_Base9NMEA_PUBX4PUBXC1Eh,_ZN8M9N_Base9NMEA_PUBX4PUBXC2Eh
 1110              		.section	.rodata
 1111 0003 00       		.align	2
 1112              	.LC1:
 1113 0004 50554258 		.ascii	"PUBX\000"
 1113      00
 1114              		.section	.text._ZN8M9N_Base9NMEA_PUBX4PUBX7AddressC2Eh,"ax",%progbits
 1115              		.align	1
 1116              		.global	_ZN8M9N_Base9NMEA_PUBX4PUBX7AddressC2Eh
 1117              		.syntax unified
 1118              		.thumb
 1119              		.thumb_func
 1121              	_ZN8M9N_Base9NMEA_PUBX4PUBX7AddressC2Eh:
 1122              		.fnstart
 1123              	.LFB1927:
  27:Core/Src/NMEA_PUBX.cpp **** 
  28:Core/Src/NMEA_PUBX.cpp **** M9N_Base::NMEA_PUBX::PUBX::Address::Address(uint8_t msgId) :
 1124              		.loc 5 28 1
 1125              		.cfi_startproc
 1126              		@ args = 0, pretend = 0, frame = 8
 1127              		@ frame_needed = 1, uses_anonymous_args = 0
 1128 0000 80B5     		push	{r7, lr}
 1129              		.cfi_def_cfa_offset 8
 1130              		.cfi_offset 7, -8
 1131              		.cfi_offset 14, -4
 1132 0002 82B0     		sub	sp, sp, #8
 1133              		.cfi_def_cfa_offset 16
 1134 0004 00AF     		add	r7, sp, #0
 1135              		.cfi_def_cfa_register 7
 1136 0006 7860     		str	r0, [r7, #4]
 1137 0008 0B46     		mov	r3, r1
 1138 000a FB70     		strb	r3, [r7, #3]
 1139              	.LBB8:
  29:Core/Src/NMEA_PUBX.cpp **** 	msgId(msgId){}
 1140              		.loc 5 29 13
 1141 000c 7B68     		ldr	r3, [r7, #4]
ARM GAS  /var/folders/bb/dhrb69655gd8t4nf464nxc_00000gn/T//ccyYPrc2.s 			page 28


 1142 000e 0649     		ldr	r1, .L47
 1143 0010 1846     		mov	r0, r3
 1144 0012 FFF7FEFF 		bl	_ZN12StaticStringC1EPKc
 1145 0016 7B68     		ldr	r3, [r7, #4]
 1146 0018 FA78     		ldrb	r2, [r7, #3]
 1147 001a 1A72     		strb	r2, [r3, #8]
 1148              	.LBE8:
 1149              		.loc 5 29 15
 1150 001c 7B68     		ldr	r3, [r7, #4]
 1151 001e 1846     		mov	r0, r3
 1152 0020 0837     		adds	r7, r7, #8
 1153              		.cfi_def_cfa_offset 8
 1154 0022 BD46     		mov	sp, r7
 1155              		.cfi_def_cfa_register 13
 1156              		@ sp needed
 1157 0024 80BD     		pop	{r7, pc}
 1158              	.L48:
 1159 0026 00BF     		.align	2
 1160              	.L47:
 1161 0028 04000000 		.word	.LC1
 1162              		.cfi_endproc
 1163              	.LFE1927:
 1164              		.cantunwind
 1165              		.fnend
 1167              		.global	_ZN8M9N_Base9NMEA_PUBX4PUBX7AddressC1Eh
 1168              		.thumb_set _ZN8M9N_Base9NMEA_PUBX4PUBX7AddressC1Eh,_ZN8M9N_Base9NMEA_PUBX4PUBX7AddressC2Eh
 1169              		.section	.text._ZN8M9N_Base9NMEA_PUBX4PUBXD2Ev,"axG",%progbits,_ZN8M9N_Base9NMEA_PUBX4PUBXD5Ev,com
 1170              		.align	1
 1171              		.weak	_ZN8M9N_Base9NMEA_PUBX4PUBXD2Ev
 1172              		.syntax unified
 1173              		.thumb
 1174              		.thumb_func
 1176              	_ZN8M9N_Base9NMEA_PUBX4PUBXD2Ev:
 1177              		.fnstart
 1178              	.LFB1931:
 1179              		.file 6 "Core/Inc/NMEA_PUBX.hpp"
   1:Core/Inc/NMEA_PUBX.hpp **** /**
   2:Core/Inc/NMEA_PUBX.hpp ****   ******************************************************************************
   3:Core/Inc/NMEA_PUBX.hpp ****   * @file			: NMEA_PUBX.hpp
   4:Core/Inc/NMEA_PUBX.hpp ****   * @brief			: uBlox NMEA PUBX Protocol Extension
   5:Core/Inc/NMEA_PUBX.hpp ****   * @author			: Lawrence Stanton
   6:Core/Inc/NMEA_PUBX.hpp ****   ******************************************************************************
   7:Core/Inc/NMEA_PUBX.hpp ****   * @attention
   8:Core/Inc/NMEA_PUBX.hpp ****   *
   9:Core/Inc/NMEA_PUBX.hpp ****   *  LD Stanton 2022
  10:Core/Inc/NMEA_PUBX.hpp ****   * 
  11:Core/Inc/NMEA_PUBX.hpp ****   * This file and its content are the copyright property of the author. All 
  12:Core/Inc/NMEA_PUBX.hpp ****   * rights are reserved. No warranty is given. No liability is assumed.
  13:Core/Inc/NMEA_PUBX.hpp ****   * Confidential unless licensed otherwise. If licensed, refer to the 
  14:Core/Inc/NMEA_PUBX.hpp ****   * accompanying file "LICENCE" for license details.
  15:Core/Inc/NMEA_PUBX.hpp ****   * 
  16:Core/Inc/NMEA_PUBX.hpp ****   ******************************************************************************
  17:Core/Inc/NMEA_PUBX.hpp ****   */
  18:Core/Inc/NMEA_PUBX.hpp **** 
  19:Core/Inc/NMEA_PUBX.hpp **** #pragma once
  20:Core/Inc/NMEA_PUBX.hpp **** 
  21:Core/Inc/NMEA_PUBX.hpp **** #include "M9N_Base.hpp"
ARM GAS  /var/folders/bb/dhrb69655gd8t4nf464nxc_00000gn/T//ccyYPrc2.s 			page 29


  22:Core/Inc/NMEA_PUBX.hpp **** #include "NMEA_Standard.hpp"
  23:Core/Inc/NMEA_PUBX.hpp **** 
  24:Core/Inc/NMEA_PUBX.hpp **** using NMEA = M9N_Base::NMEA_PUBX;
  25:Core/Inc/NMEA_PUBX.hpp **** 
  26:Core/Inc/NMEA_PUBX.hpp **** enum class NMEA::Message{
  27:Core/Inc/NMEA_PUBX.hpp **** 	/* Standard NMEA Sentences. Identical to NMEA_Base::Message */
  28:Core/Inc/NMEA_PUBX.hpp **** 	DTM,	// Datum Reference
  29:Core/Inc/NMEA_PUBX.hpp **** 	GAQ,	// GA Poll
  30:Core/Inc/NMEA_PUBX.hpp **** 	GBQ,	// GB Poll
  31:Core/Inc/NMEA_PUBX.hpp **** 	GBS,	// Satellite Fault Detection
  32:Core/Inc/NMEA_PUBX.hpp **** 	GGA,	// GPS Fix Data
  33:Core/Inc/NMEA_PUBX.hpp **** 	GLL,	// Location with Time and Fix Status
  34:Core/Inc/NMEA_PUBX.hpp **** 	GLQ,	// GL Poll
  35:Core/Inc/NMEA_PUBX.hpp **** 	GNQ,	// GN Poll
  36:Core/Inc/NMEA_PUBX.hpp **** 	GNS,	// GNSS Fix Data
  37:Core/Inc/NMEA_PUBX.hpp **** 	GPQ,	// GP Poll
  38:Core/Inc/NMEA_PUBX.hpp **** 	GRS,	// GNSS Range Residuals
  39:Core/Inc/NMEA_PUBX.hpp **** 	GSA,	// GNSS Dilution of Precision
  40:Core/Inc/NMEA_PUBX.hpp **** 	GST,	// GNSS Pseudorange Error Statistics
  41:Core/Inc/NMEA_PUBX.hpp **** 	GSV,	// GNSS Satellites in View
  42:Core/Inc/NMEA_PUBX.hpp **** 	RLM,	// Return Link Message
  43:Core/Inc/NMEA_PUBX.hpp **** 	RMC,	// Recommended Minimum Data
  44:Core/Inc/NMEA_PUBX.hpp **** 	TXT,	// Test transmission
  45:Core/Inc/NMEA_PUBX.hpp **** 	VLW,	// Dual Ground/Water Distance
  46:Core/Inc/NMEA_PUBX.hpp **** 	VTG,	// Course over Ground and Speed
  47:Core/Inc/NMEA_PUBX.hpp **** 	ZDA, 	// Time and Date
  48:Core/Inc/NMEA_PUBX.hpp **** 
  49:Core/Inc/NMEA_PUBX.hpp **** 	/* uBlox PUBX Extensions  */
  50:Core/Inc/NMEA_PUBX.hpp **** 	PUBX_CONFIG,	// Protocols and Rate Configuration
  51:Core/Inc/NMEA_PUBX.hpp **** 	PUBX_POSITION,	// Positional Data
  52:Core/Inc/NMEA_PUBX.hpp **** 	PUBX_RATE,		// Message Output Rate
  53:Core/Inc/NMEA_PUBX.hpp **** 	PUBX_SVSTATUS,	// Satellite Status
  54:Core/Inc/NMEA_PUBX.hpp **** 	PUBX_TIME,		// Time Information
  55:Core/Inc/NMEA_PUBX.hpp **** 
  56:Core/Inc/NMEA_PUBX.hpp **** 	/* Unknown Case*/
  57:Core/Inc/NMEA_PUBX.hpp **** 	UNKNOWN
  58:Core/Inc/NMEA_PUBX.hpp **** };
  59:Core/Inc/NMEA_PUBX.hpp **** 
  60:Core/Inc/NMEA_PUBX.hpp **** class NMEA::PUBX : public NMEA_PUBX{
 1180              		.loc 6 60 13
 1181              		.cfi_startproc
 1182              		@ args = 0, pretend = 0, frame = 8
 1183              		@ frame_needed = 1, uses_anonymous_args = 0
 1184 0000 80B5     		push	{r7, lr}
 1185              		.cfi_def_cfa_offset 8
 1186              		.cfi_offset 7, -8
 1187              		.cfi_offset 14, -4
 1188 0002 82B0     		sub	sp, sp, #8
 1189              		.cfi_def_cfa_offset 16
 1190 0004 00AF     		add	r7, sp, #0
 1191              		.cfi_def_cfa_register 7
 1192 0006 7860     		str	r0, [r7, #4]
 1193              	.LBB9:
 1194              		.loc 6 60 13
 1195 0008 054A     		ldr	r2, .L51
 1196 000a 7B68     		ldr	r3, [r7, #4]
 1197 000c 1A60     		str	r2, [r3]
ARM GAS  /var/folders/bb/dhrb69655gd8t4nf464nxc_00000gn/T//ccyYPrc2.s 			page 30


 1198 000e 7B68     		ldr	r3, [r7, #4]
 1199 0010 1846     		mov	r0, r3
 1200 0012 FFF7FEFF 		bl	_ZN8M9N_Base9NMEA_PUBXD2Ev
 1201              	.LBE9:
 1202 0016 7B68     		ldr	r3, [r7, #4]
 1203 0018 1846     		mov	r0, r3
 1204 001a 0837     		adds	r7, r7, #8
 1205              		.cfi_def_cfa_offset 8
 1206 001c BD46     		mov	sp, r7
 1207              		.cfi_def_cfa_register 13
 1208              		@ sp needed
 1209 001e 80BD     		pop	{r7, pc}
 1210              	.L52:
 1211              		.align	2
 1212              	.L51:
 1213 0020 08000000 		.word	_ZTVN8M9N_Base9NMEA_PUBX4PUBXE+8
 1214              		.cfi_endproc
 1215              	.LFE1931:
 1216              		.cantunwind
 1217              		.fnend
 1219              		.weak	_ZN8M9N_Base9NMEA_PUBX4PUBXD1Ev
 1220              		.thumb_set _ZN8M9N_Base9NMEA_PUBX4PUBXD1Ev,_ZN8M9N_Base9NMEA_PUBX4PUBXD2Ev
 1221              		.section	.text._ZN8M9N_Base9NMEA_PUBX4PUBXD0Ev,"axG",%progbits,_ZN8M9N_Base9NMEA_PUBX4PUBXD5Ev,com
 1222              		.align	1
 1223              		.weak	_ZN8M9N_Base9NMEA_PUBX4PUBXD0Ev
 1224              		.syntax unified
 1225              		.thumb
 1226              		.thumb_func
 1228              	_ZN8M9N_Base9NMEA_PUBX4PUBXD0Ev:
 1229              		.fnstart
 1230              	.LFB1933:
 1231              		.loc 6 60 13
 1232              		.cfi_startproc
 1233              		@ args = 0, pretend = 0, frame = 8
 1234              		@ frame_needed = 1, uses_anonymous_args = 0
 1235 0000 80B5     		push	{r7, lr}
 1236              		.cfi_def_cfa_offset 8
 1237              		.cfi_offset 7, -8
 1238              		.cfi_offset 14, -4
 1239 0002 82B0     		sub	sp, sp, #8
 1240              		.cfi_def_cfa_offset 16
 1241 0004 00AF     		add	r7, sp, #0
 1242              		.cfi_def_cfa_register 7
 1243 0006 7860     		str	r0, [r7, #4]
 1244              		.loc 6 60 13
 1245 0008 7868     		ldr	r0, [r7, #4]
 1246 000a FFF7FEFF 		bl	_ZN8M9N_Base9NMEA_PUBX4PUBXD1Ev
 1247 000e 1C21     		movs	r1, #28
 1248 0010 7868     		ldr	r0, [r7, #4]
 1249 0012 FFF7FEFF 		bl	_ZdlPvj
 1250 0016 7B68     		ldr	r3, [r7, #4]
 1251 0018 1846     		mov	r0, r3
 1252 001a 0837     		adds	r7, r7, #8
 1253              		.cfi_def_cfa_offset 8
 1254 001c BD46     		mov	sp, r7
 1255              		.cfi_def_cfa_register 13
 1256              		@ sp needed
ARM GAS  /var/folders/bb/dhrb69655gd8t4nf464nxc_00000gn/T//ccyYPrc2.s 			page 31


 1257 001e 80BD     		pop	{r7, pc}
 1258              		.cfi_endproc
 1259              	.LFE1933:
 1260              		.cantunwind
 1261              		.fnend
 1263              		.section	.text._ZN8M9N_Base9NMEA_PUBX6ConfigC2ENS_6PortIDENS_7InProtoENS_8OutProtoENS_4BaudEb,"ax"
 1264              		.align	1
 1265              		.global	_ZN8M9N_Base9NMEA_PUBX6ConfigC2ENS_6PortIDENS_7InProtoENS_8OutProtoENS_4BaudEb
 1266              		.syntax unified
 1267              		.thumb
 1268              		.thumb_func
 1270              	_ZN8M9N_Base9NMEA_PUBX6ConfigC2ENS_6PortIDENS_7InProtoENS_8OutProtoENS_4BaudEb:
 1271              		.fnstart
 1272              	.LFB1934:
  30:Core/Src/NMEA_PUBX.cpp **** 
  31:Core/Src/NMEA_PUBX.cpp **** M9N_Base::NMEA_PUBX::Config::Config(
 1273              		.loc 5 31 1
 1274              		.cfi_startproc
 1275              		@ args = 8, pretend = 0, frame = 16
 1276              		@ frame_needed = 1, uses_anonymous_args = 0
 1277 0000 80B5     		push	{r7, lr}
 1278              		.save {r7, lr}
 1279              		.cfi_def_cfa_offset 8
 1280              		.cfi_offset 7, -8
 1281              		.cfi_offset 14, -4
 1282              		.pad #16
 1283 0002 84B0     		sub	sp, sp, #16
 1284              		.cfi_def_cfa_offset 24
 1285              		.setfp r7, sp, #0
 1286 0004 00AF     		add	r7, sp, #0
 1287              		.cfi_def_cfa_register 7
 1288 0006 F860     		str	r0, [r7, #12]
 1289 0008 0846     		mov	r0, r1
 1290 000a 1146     		mov	r1, r2
 1291 000c 1A46     		mov	r2, r3
 1292 000e 0346     		mov	r3, r0
 1293 0010 FB72     		strb	r3, [r7, #11]
 1294 0012 0B46     		mov	r3, r1	@ movhi
 1295 0014 3B81     		strh	r3, [r7, #8]	@ movhi
 1296 0016 1346     		mov	r3, r2	@ movhi
 1297 0018 FB80     		strh	r3, [r7, #6]	@ movhi
 1298              	.LBB10:
  32:Core/Src/NMEA_PUBX.cpp **** 	M9N_Base::PortID portId, 
  33:Core/Src/NMEA_PUBX.cpp **** 	M9N_Base::InProto inProto, 
  34:Core/Src/NMEA_PUBX.cpp **** 	M9N_Base::OutProto outProto, 
  35:Core/Src/NMEA_PUBX.cpp **** 	M9N_Base::Baud baudrate, 
  36:Core/Src/NMEA_PUBX.cpp **** 	bool autobauding) :
  37:Core/Src/NMEA_PUBX.cpp **** 		PUBX(41u),
  38:Core/Src/NMEA_PUBX.cpp **** 		portId(portId),
  39:Core/Src/NMEA_PUBX.cpp **** 		inProto(inProto),
  40:Core/Src/NMEA_PUBX.cpp **** 		outProto(outProto),
  41:Core/Src/NMEA_PUBX.cpp **** 		baudrate(baudrate),
  42:Core/Src/NMEA_PUBX.cpp **** 		autobauding(autobauding){
 1299              		.loc 5 42 26
 1300 001a FB68     		ldr	r3, [r7, #12]
 1301 001c 2921     		movs	r1, #41
 1302 001e 1846     		mov	r0, r3
ARM GAS  /var/folders/bb/dhrb69655gd8t4nf464nxc_00000gn/T//ccyYPrc2.s 			page 32


 1303 0020 FFF7FEFF 		bl	_ZN8M9N_Base9NMEA_PUBX4PUBXC2Eh
 1304 0024 114A     		ldr	r2, .L60
 1305 0026 FB68     		ldr	r3, [r7, #12]
 1306 0028 1A60     		str	r2, [r3]
 1307 002a FB68     		ldr	r3, [r7, #12]
 1308 002c FA7A     		ldrb	r2, [r7, #11]
 1309 002e 1A77     		strb	r2, [r3, #28]
 1310 0030 FB68     		ldr	r3, [r7, #12]
 1311 0032 3A89     		ldrh	r2, [r7, #8]	@ movhi
 1312 0034 DA83     		strh	r2, [r3, #30]	@ movhi
 1313 0036 FB68     		ldr	r3, [r7, #12]
 1314 0038 FA88     		ldrh	r2, [r7, #6]	@ movhi
 1315 003a 1A84     		strh	r2, [r3, #32]	@ movhi
 1316 003c FB68     		ldr	r3, [r7, #12]
 1317 003e BA69     		ldr	r2, [r7, #24]
 1318 0040 5A62     		str	r2, [r3, #36]
 1319 0042 FB68     		ldr	r3, [r7, #12]
 1320 0044 3A7F     		ldrb	r2, [r7, #28]
 1321 0046 83F82820 		strb	r2, [r3, #40]
  43:Core/Src/NMEA_PUBX.cpp **** 			setChecksum();
 1322              		.loc 5 43 15
 1323 004a FB68     		ldr	r3, [r7, #12]
 1324 004c 1846     		mov	r0, r3
 1325              	.LEHB0:
 1326 004e FFF7FEFF 		bl	_ZN13NMEA_Standard11setChecksumEv
 1327              	.LEHE0:
 1328              	.LBE10:
  44:Core/Src/NMEA_PUBX.cpp **** }
 1329              		.loc 5 44 1
 1330 0052 FB68     		ldr	r3, [r7, #12]
 1331 0054 05E0     		b	.L59
 1332              	.L58:
 1333              	.LBB11:
  42:Core/Src/NMEA_PUBX.cpp **** 			setChecksum();
 1334              		.loc 5 42 26
 1335 0056 FB68     		ldr	r3, [r7, #12]
 1336 0058 1846     		mov	r0, r3
 1337 005a FFF7FEFF 		bl	_ZN8M9N_Base9NMEA_PUBX4PUBXD2Ev
 1338              	.LEHB1:
 1339 005e FFF7FEFF 		bl	__cxa_end_cleanup
 1340              	.LEHE1:
 1341              	.L59:
 1342              	.LBE11:
 1343              		.loc 5 44 1
 1344 0062 1846     		mov	r0, r3
 1345 0064 1037     		adds	r7, r7, #16
 1346              		.cfi_def_cfa_offset 8
 1347 0066 BD46     		mov	sp, r7
 1348              		.cfi_def_cfa_register 13
 1349              		@ sp needed
 1350 0068 80BD     		pop	{r7, pc}
 1351              	.L61:
 1352 006a 00BF     		.align	2
 1353              	.L60:
 1354 006c 08000000 		.word	_ZTVN8M9N_Base9NMEA_PUBX6ConfigE+8
 1355              		.cfi_endproc
 1356              	.LFE1934:
ARM GAS  /var/folders/bb/dhrb69655gd8t4nf464nxc_00000gn/T//ccyYPrc2.s 			page 33


 1357              		.global	__gxx_personality_v0
 1358              		.personality	__gxx_personality_v0
 1359              		.handlerdata
 1360              	.LLSDA1934:
 1361 000c FF       		.byte	0xff
 1362 000d FF       		.byte	0xff
 1363 000e 01       		.byte	0x1
 1364 000f 08       		.uleb128 .LLSDACSE1934-.LLSDACSB1934
 1365              	.LLSDACSB1934:
 1366 0010 4E       		.uleb128 .LEHB0-.LFB1934
 1367 0011 04       		.uleb128 .LEHE0-.LEHB0
 1368 0012 56       		.uleb128 .L58-.LFB1934
 1369 0013 00       		.uleb128 0
 1370 0014 5E       		.uleb128 .LEHB1-.LFB1934
 1371 0015 04       		.uleb128 .LEHE1-.LEHB1
 1372 0016 00       		.uleb128 0
 1373 0017 00       		.uleb128 0
 1374              	.LLSDACSE1934:
 1375              		.section	.text._ZN8M9N_Base9NMEA_PUBX6ConfigC2ENS_6PortIDENS_7InProtoENS_8OutProtoENS_4BaudEb
 1376              		.fnend
 1378              		.global	_ZN8M9N_Base9NMEA_PUBX6ConfigC1ENS_6PortIDENS_7InProtoENS_8OutProtoENS_4BaudEb
 1379              		.thumb_set _ZN8M9N_Base9NMEA_PUBX6ConfigC1ENS_6PortIDENS_7InProtoENS_8OutProtoENS_4BaudEb,_ZN8M9N_
 1380              		.section	.rodata
 1381 0009 000000   		.align	2
 1382              	.LC2:
 1383 000c 24505542 		.ascii	"$PUBX,41,%1hu,%04hX,%04hX,%6lu,%1u*%02X\015\012\000"
 1383      582C3431 
 1383      2C253168 
 1383      752C2530 
 1383      3468582C 
 1384              		.section	.text._ZN8M9N_Base9NMEA_PUBX6Config8toStringEPc,"ax",%progbits
 1385              		.align	1
 1386              		.global	_ZN8M9N_Base9NMEA_PUBX6Config8toStringEPc
 1387              		.syntax unified
 1388              		.thumb
 1389              		.thumb_func
 1391              	_ZN8M9N_Base9NMEA_PUBX6Config8toStringEPc:
 1392              		.fnstart
 1393              	.LFB1936:
  45:Core/Src/NMEA_PUBX.cpp **** 
  46:Core/Src/NMEA_PUBX.cpp **** string M9N_Base::NMEA_PUBX::Config::toString(char buff[35]){
 1394              		.loc 5 46 60
 1395              		.cfi_startproc
 1396              		@ args = 0, pretend = 0, frame = 16
 1397              		@ frame_needed = 1, uses_anonymous_args = 0
 1398 0000 B0B5     		push	{r4, r5, r7, lr}
 1399              		.cfi_def_cfa_offset 16
 1400              		.cfi_offset 4, -16
 1401              		.cfi_offset 5, -12
 1402              		.cfi_offset 7, -8
 1403              		.cfi_offset 14, -4
 1404 0002 8AB0     		sub	sp, sp, #40
 1405              		.cfi_def_cfa_offset 56
 1406 0004 06AF     		add	r7, sp, #24
 1407              		.cfi_def_cfa 7, 32
 1408 0006 F860     		str	r0, [r7, #12]
 1409 0008 B960     		str	r1, [r7, #8]
ARM GAS  /var/folders/bb/dhrb69655gd8t4nf464nxc_00000gn/T//ccyYPrc2.s 			page 34


 1410 000a 7A60     		str	r2, [r7, #4]
  47:Core/Src/NMEA_PUBX.cpp **** 	std::snprintf(buff, 35, "$PUBX,41,%1hu,%04hX,%04hX,%6lu,%1u*%02X\r\n",
  48:Core/Src/NMEA_PUBX.cpp **** 					static_cast<uint8_t>(portId), 
 1411              		.loc 5 48 27
 1412 000c BB68     		ldr	r3, [r7, #8]
 1413 000e 1B7F     		ldrb	r3, [r3, #28]	@ zero_extendqisi2
  47:Core/Src/NMEA_PUBX.cpp **** 	std::snprintf(buff, 35, "$PUBX,41,%1hu,%04hX,%04hX,%6lu,%1u*%02X\r\n",
 1414              		.loc 5 47 15
 1415 0010 1D46     		mov	r5, r3
  49:Core/Src/NMEA_PUBX.cpp **** 					static_cast<uint16_t>(inProto), 
 1416              		.loc 5 49 28
 1417 0012 BB68     		ldr	r3, [r7, #8]
 1418 0014 DB8B     		ldrh	r3, [r3, #30]
  47:Core/Src/NMEA_PUBX.cpp **** 	std::snprintf(buff, 35, "$PUBX,41,%1hu,%04hX,%04hX,%6lu,%1u*%02X\r\n",
 1419              		.loc 5 47 15
 1420 0016 1846     		mov	r0, r3
  50:Core/Src/NMEA_PUBX.cpp **** 					static_cast<uint16_t>(outProto), 
 1421              		.loc 5 50 28
 1422 0018 BB68     		ldr	r3, [r7, #8]
 1423 001a 1B8C     		ldrh	r3, [r3, #32]
  47:Core/Src/NMEA_PUBX.cpp **** 	std::snprintf(buff, 35, "$PUBX,41,%1hu,%04hX,%04hX,%6lu,%1u*%02X\r\n",
 1424              		.loc 5 47 15
 1425 001c 1C46     		mov	r4, r3
  51:Core/Src/NMEA_PUBX.cpp **** 					static_cast<uint32_t>(baudrate),
 1426              		.loc 5 51 28
 1427 001e BB68     		ldr	r3, [r7, #8]
 1428 0020 5B6A     		ldr	r3, [r3, #36]
  52:Core/Src/NMEA_PUBX.cpp **** 					autobauding ? 1u : 0u,
 1429              		.loc 5 52 6
 1430 0022 BA68     		ldr	r2, [r7, #8]
 1431 0024 92F82820 		ldrb	r2, [r2, #40]	@ zero_extendqisi2
  47:Core/Src/NMEA_PUBX.cpp **** 					static_cast<uint8_t>(portId), 
 1432              		.loc 5 47 15
 1433 0028 002A     		cmp	r2, #0
 1434 002a 01D0     		beq	.L63
  47:Core/Src/NMEA_PUBX.cpp **** 					static_cast<uint8_t>(portId), 
 1435              		.loc 5 47 15 is_stmt 0 discriminator 1
 1436 002c 0122     		movs	r2, #1
 1437 002e 00E0     		b	.L64
 1438              	.L63:
  47:Core/Src/NMEA_PUBX.cpp **** 					static_cast<uint8_t>(portId), 
 1439              		.loc 5 47 15 discriminator 2
 1440 0030 0022     		movs	r2, #0
 1441              	.L64:
  53:Core/Src/NMEA_PUBX.cpp **** 					cs.cs);
 1442              		.loc 5 53 9 is_stmt 1
 1443 0032 B968     		ldr	r1, [r7, #8]
 1444 0034 4979     		ldrb	r1, [r1, #5]	@ zero_extendqisi2
  47:Core/Src/NMEA_PUBX.cpp **** 					static_cast<uint8_t>(portId), 
 1445              		.loc 5 47 15
 1446 0036 0491     		str	r1, [sp, #16]
 1447 0038 0392     		str	r2, [sp, #12]
 1448 003a 0293     		str	r3, [sp, #8]
 1449 003c 0194     		str	r4, [sp, #4]
 1450 003e 0090     		str	r0, [sp]
 1451 0040 2B46     		mov	r3, r5
 1452 0042 064A     		ldr	r2, .L66
ARM GAS  /var/folders/bb/dhrb69655gd8t4nf464nxc_00000gn/T//ccyYPrc2.s 			page 35


 1453 0044 2321     		movs	r1, #35
 1454 0046 7868     		ldr	r0, [r7, #4]
 1455 0048 FFF7FEFF 		bl	snprintf
  54:Core/Src/NMEA_PUBX.cpp **** 	return string(buff);
 1456              		.loc 5 54 20
 1457 004c 7968     		ldr	r1, [r7, #4]
 1458 004e F868     		ldr	r0, [r7, #12]
 1459 0050 FFF7FEFF 		bl	_ZN12StaticStringC1EPKc
  55:Core/Src/NMEA_PUBX.cpp **** }
 1460              		.loc 5 55 1
 1461 0054 F868     		ldr	r0, [r7, #12]
 1462 0056 1037     		adds	r7, r7, #16
 1463              		.cfi_def_cfa_offset 16
 1464 0058 BD46     		mov	sp, r7
 1465              		.cfi_def_cfa_register 13
 1466              		@ sp needed
 1467 005a B0BD     		pop	{r4, r5, r7, pc}
 1468              	.L67:
 1469              		.align	2
 1470              	.L66:
 1471 005c 0C000000 		.word	.LC2
 1472              		.cfi_endproc
 1473              	.LFE1936:
 1474              		.cantunwind
 1475              		.fnend
 1477              		.section	.text._ZN8M9N_Base9NMEA_PUBX10getMessageERK12StaticString,"ax",%progbits
 1478              		.align	1
 1479              		.global	_ZN8M9N_Base9NMEA_PUBX10getMessageERK12StaticString
 1480              		.syntax unified
 1481              		.thumb
 1482              		.thumb_func
 1484              	_ZN8M9N_Base9NMEA_PUBX10getMessageERK12StaticString:
 1485              		.fnstart
 1486              	.LFB1937:
  56:Core/Src/NMEA_PUBX.cpp **** 
  57:Core/Src/NMEA_PUBX.cpp **** M9N_Base::NMEA_PUBX::Message M9N_Base::NMEA_PUBX::getMessage(const StaticString & s){
 1487              		.loc 5 57 85
 1488              		.cfi_startproc
 1489              		@ args = 0, pretend = 0, frame = 48
 1490              		@ frame_needed = 1, uses_anonymous_args = 0
 1491 0000 90B5     		push	{r4, r7, lr}
 1492              		.save {r4, r7, lr}
 1493              		.cfi_def_cfa_offset 12
 1494              		.cfi_offset 4, -12
 1495              		.cfi_offset 7, -8
 1496              		.cfi_offset 14, -4
 1497              		.pad #52
 1498 0002 8DB0     		sub	sp, sp, #52
 1499              		.cfi_def_cfa_offset 64
 1500              		.setfp r7, sp, #0
 1501 0004 00AF     		add	r7, sp, #0
 1502              		.cfi_def_cfa_register 7
 1503 0006 7860     		str	r0, [r7, #4]
  58:Core/Src/NMEA_PUBX.cpp **** 	if(s.size() < 6) return Message::UNKNOWN;
 1504              		.loc 5 58 11
 1505 0008 7868     		ldr	r0, [r7, #4]
 1506 000a FFF7FEFF 		bl	_ZNK12StaticString4sizeEv
ARM GAS  /var/folders/bb/dhrb69655gd8t4nf464nxc_00000gn/T//ccyYPrc2.s 			page 36


 1507 000e 0346     		mov	r3, r0
 1508              		.loc 5 58 14
 1509 0010 052B     		cmp	r3, #5
 1510 0012 94BF     		ite	ls
 1511 0014 0123     		movls	r3, #1
 1512 0016 0023     		movhi	r3, #0
 1513 0018 DBB2     		uxtb	r3, r3
 1514              		.loc 5 58 2
 1515 001a 002B     		cmp	r3, #0
 1516 001c 01D0     		beq	.L69
 1517              		.loc 5 58 35 discriminator 1
 1518 001e 1923     		movs	r3, #25
 1519 0020 77E0     		b	.L70
 1520              	.L69:
  59:Core/Src/NMEA_PUBX.cpp **** 
  60:Core/Src/NMEA_PUBX.cpp **** 	auto firstDelim = std::find(s.begin(), s.end(), ',');
 1521              		.loc 5 60 29
 1522 0022 7868     		ldr	r0, [r7, #4]
 1523 0024 FFF7FEFF 		bl	_ZNK12StaticString5beginEv
 1524 0028 0446     		mov	r4, r0
 1525 002a 7868     		ldr	r0, [r7, #4]
 1526 002c FFF7FEFF 		bl	_ZNK12StaticString3endEv
 1527 0030 0146     		mov	r1, r0
 1528              		.loc 5 60 50
 1529 0032 2C23     		movs	r3, #44
 1530 0034 FB74     		strb	r3, [r7, #19]
 1531              		.loc 5 60 29
 1532 0036 07F11303 		add	r3, r7, #19
 1533 003a 1A46     		mov	r2, r3
 1534 003c 2046     		mov	r0, r4
 1535 003e FFF7FEFF 		bl	_ZSt4findIPKccET_S2_S2_RKT0_
 1536 0042 0346     		mov	r3, r0
 1537 0044 FB62     		str	r3, [r7, #44]
 1538              	.LBB12:
  61:Core/Src/NMEA_PUBX.cpp **** 	if( (firstDelim != s.end()) && (firstDelim > s.begin() + 1) ){
 1539              		.loc 5 61 26
 1540 0046 7868     		ldr	r0, [r7, #4]
 1541 0048 FFF7FEFF 		bl	_ZNK12StaticString3endEv
 1542 004c 0246     		mov	r2, r0
 1543              		.loc 5 61 30
 1544 004e FB6A     		ldr	r3, [r7, #44]
 1545 0050 9342     		cmp	r3, r2
 1546 0052 09D0     		beq	.L71
 1547              		.loc 5 61 54 discriminator 1
 1548 0054 7868     		ldr	r0, [r7, #4]
 1549 0056 FFF7FEFF 		bl	_ZNK12StaticString5beginEv
 1550 005a 0346     		mov	r3, r0
 1551              		.loc 5 61 57 discriminator 1
 1552 005c 0133     		adds	r3, r3, #1
 1553              		.loc 5 61 30 discriminator 1
 1554 005e FA6A     		ldr	r2, [r7, #44]
 1555 0060 9A42     		cmp	r2, r3
 1556 0062 01D9     		bls	.L71
 1557              		.loc 5 61 30 is_stmt 0 discriminator 3
 1558 0064 0123     		movs	r3, #1
 1559 0066 00E0     		b	.L72
 1560              	.L71:
ARM GAS  /var/folders/bb/dhrb69655gd8t4nf464nxc_00000gn/T//ccyYPrc2.s 			page 37


 1561              		.loc 5 61 30 discriminator 4
 1562 0068 0023     		movs	r3, #0
 1563              	.L72:
 1564              		.loc 5 61 2 is_stmt 1 discriminator 6
 1565 006a 002B     		cmp	r3, #0
 1566 006c 50D0     		beq	.L73
 1567              	.LBB13:
  62:Core/Src/NMEA_PUBX.cpp **** 		auto addr = string(s.begin() + 1, firstDelim);
 1568              		.loc 5 62 29
 1569 006e 7868     		ldr	r0, [r7, #4]
 1570 0070 FFF7FEFF 		bl	_ZNK12StaticString5beginEv
 1571 0074 0346     		mov	r3, r0
 1572              		.loc 5 62 47
 1573 0076 591C     		adds	r1, r3, #1
 1574 0078 07F10803 		add	r3, r7, #8
 1575 007c FA6A     		ldr	r2, [r7, #44]
 1576 007e 1846     		mov	r0, r3
 1577 0080 FFF7FEFF 		bl	_ZN12StaticStringC1IKcEEPT_S3_
  63:Core/Src/NMEA_PUBX.cpp **** 		
  64:Core/Src/NMEA_PUBX.cpp **** 		if(addr == "PUBX") addr = string(s.begin() + 1, firstDelim + 3);
 1578              		.loc 5 64 11
 1579 0084 07F11403 		add	r3, r7, #20
 1580 0088 2449     		ldr	r1, .L76
 1581 008a 1846     		mov	r0, r3
 1582 008c FFF7FEFF 		bl	_ZN12StaticStringC1EPKc
 1583 0090 07F11402 		add	r2, r7, #20
 1584 0094 07F10803 		add	r3, r7, #8
 1585 0098 1146     		mov	r1, r2
 1586 009a 1846     		mov	r0, r3
 1587 009c FFF7FEFF 		bl	_ZNK12StaticStringeqEOS_
 1588 00a0 0346     		mov	r3, r0
 1589              		.loc 5 64 3
 1590 00a2 002B     		cmp	r3, #0
 1591 00a4 14D0     		beq	.L74
 1592              		.loc 5 64 43 discriminator 1
 1593 00a6 7868     		ldr	r0, [r7, #4]
 1594 00a8 FFF7FEFF 		bl	_ZNK12StaticString5beginEv
 1595 00ac 0346     		mov	r3, r0
 1596              		.loc 5 64 29 discriminator 1
 1597 00ae 591C     		adds	r1, r3, #1
 1598 00b0 FB6A     		ldr	r3, [r7, #44]
 1599 00b2 DA1C     		adds	r2, r3, #3
 1600 00b4 07F11C03 		add	r3, r7, #28
 1601 00b8 1846     		mov	r0, r3
 1602 00ba FFF7FEFF 		bl	_ZN12StaticStringC1IKcEEPT_S3_
 1603              		.loc 5 64 27 discriminator 1
 1604 00be 07F11C02 		add	r2, r7, #28
 1605 00c2 07F10803 		add	r3, r7, #8
 1606 00c6 1146     		mov	r1, r2
 1607 00c8 1846     		mov	r0, r3
 1608 00ca FFF7FEFF 		bl	_ZN12StaticStringaSERKS_
 1609 00ce 1DE0     		b	.L75
 1610              	.L74:
  65:Core/Src/NMEA_PUBX.cpp **** 		else if(addr.size() == 5) addr = addr.substr(2);	// Drop SS from normal address.
 1611              		.loc 5 65 20
 1612 00d0 07F10803 		add	r3, r7, #8
 1613 00d4 1846     		mov	r0, r3
ARM GAS  /var/folders/bb/dhrb69655gd8t4nf464nxc_00000gn/T//ccyYPrc2.s 			page 38


 1614 00d6 FFF7FEFF 		bl	_ZNK12StaticString4sizeEv
 1615 00da 0346     		mov	r3, r0
 1616              		.loc 5 65 23
 1617 00dc 052B     		cmp	r3, #5
 1618 00de 0CBF     		ite	eq
 1619 00e0 0123     		moveq	r3, #1
 1620 00e2 0023     		movne	r3, #0
 1621 00e4 DBB2     		uxtb	r3, r3
 1622              		.loc 5 65 8
 1623 00e6 002B     		cmp	r3, #0
 1624 00e8 10D0     		beq	.L75
 1625              		.loc 5 65 49 discriminator 1
 1626 00ea 07F12400 		add	r0, r7, #36
 1627 00ee 07F10801 		add	r1, r7, #8
 1628 00f2 4FF0FF33 		mov	r3, #-1
 1629 00f6 0222     		movs	r2, #2
 1630 00f8 FFF7FEFF 		bl	_ZNK12StaticString6substrEjj
 1631              		.loc 5 65 34 discriminator 1
 1632 00fc 07F12402 		add	r2, r7, #36
 1633 0100 07F10803 		add	r3, r7, #8
 1634 0104 1146     		mov	r1, r2
 1635 0106 1846     		mov	r0, r3
 1636 0108 FFF7FEFF 		bl	_ZN12StaticStringaSERKS_
 1637              	.L75:
  66:Core/Src/NMEA_PUBX.cpp **** 
  67:Core/Src/NMEA_PUBX.cpp **** 		return Message::UNKNOWN;
 1638              		.loc 5 67 19
 1639 010c 1923     		movs	r3, #25
 1640 010e 00E0     		b	.L70
 1641              	.L73:
 1642              	.LBE13:
  68:Core/Src/NMEA_PUBX.cpp **** 
  69:Core/Src/NMEA_PUBX.cpp **** 		// static std::map<std::string, Message> m{
  70:Core/Src/NMEA_PUBX.cpp **** 		// 	{"DTM", Message::DTM},
  71:Core/Src/NMEA_PUBX.cpp **** 		// 	{"GAQ", Message::GAQ},
  72:Core/Src/NMEA_PUBX.cpp **** 		// 	{"GBQ", Message::GBQ},
  73:Core/Src/NMEA_PUBX.cpp **** 		// 	{"GBS", Message::GBS},
  74:Core/Src/NMEA_PUBX.cpp **** 		// 	{"GGA", Message::GGA},
  75:Core/Src/NMEA_PUBX.cpp **** 		// 	{"GLL", Message::GLL},
  76:Core/Src/NMEA_PUBX.cpp **** 		// 	{"GLQ", Message::GLQ},
  77:Core/Src/NMEA_PUBX.cpp **** 		// 	{"GNQ", Message::GNQ},
  78:Core/Src/NMEA_PUBX.cpp **** 		// 	{"GNS", Message::GNS},
  79:Core/Src/NMEA_PUBX.cpp **** 		// 	{"GPQ", Message::GPQ},
  80:Core/Src/NMEA_PUBX.cpp **** 		// 	{"GRS", Message::GRS},
  81:Core/Src/NMEA_PUBX.cpp **** 		// 	{"GSA", Message::GSA},
  82:Core/Src/NMEA_PUBX.cpp **** 		// 	{"GST", Message::GST},
  83:Core/Src/NMEA_PUBX.cpp **** 		// 	{"GSV", Message::GSV},
  84:Core/Src/NMEA_PUBX.cpp **** 		// 	{"RLM", Message::RLM},
  85:Core/Src/NMEA_PUBX.cpp **** 		// 	{"RMC", Message::RMC},
  86:Core/Src/NMEA_PUBX.cpp **** 		// 	{"TXT", Message::TXT},
  87:Core/Src/NMEA_PUBX.cpp **** 		// 	{"VLW", Message::VLW},
  88:Core/Src/NMEA_PUBX.cpp **** 		// 	{"VTG", Message::VTG},
  89:Core/Src/NMEA_PUBX.cpp **** 		// 	{"ZDA", Message::ZDA},
  90:Core/Src/NMEA_PUBX.cpp **** 		// 	{"PUBX,41", Message::PUBX_CONFIG},
  91:Core/Src/NMEA_PUBX.cpp **** 		// 	{"PUBX,00", Message::PUBX_POSITION},
  92:Core/Src/NMEA_PUBX.cpp **** 		// 	{"PUBX,03", Message::PUBX_RATE},
  93:Core/Src/NMEA_PUBX.cpp **** 		// 	{"PUBX,03", Message::PUBX_SVSTATUS},
ARM GAS  /var/folders/bb/dhrb69655gd8t4nf464nxc_00000gn/T//ccyYPrc2.s 			page 39


  94:Core/Src/NMEA_PUBX.cpp **** 		// 	{"PUBX,04", Message::PUBX_TIME}
  95:Core/Src/NMEA_PUBX.cpp **** 		// };
  96:Core/Src/NMEA_PUBX.cpp **** 
  97:Core/Src/NMEA_PUBX.cpp **** 		// if(m.find(addr) == m.end()) return Message::UNKNOWN;
  98:Core/Src/NMEA_PUBX.cpp **** 		// else return m[addr];
  99:Core/Src/NMEA_PUBX.cpp **** 	}
 100:Core/Src/NMEA_PUBX.cpp **** 	else return Message::UNKNOWN;
 1643              		.loc 5 100 23
 1644 0110 1923     		movs	r3, #25
 1645              	.L70:
 1646              	.LBE12:
 101:Core/Src/NMEA_PUBX.cpp **** }
 1647              		.loc 5 101 1 discriminator 1
 1648 0112 1846     		mov	r0, r3
 1649 0114 3437     		adds	r7, r7, #52
 1650              		.cfi_def_cfa_offset 12
 1651 0116 BD46     		mov	sp, r7
 1652              		.cfi_def_cfa_register 13
 1653              		@ sp needed
 1654 0118 90BD     		pop	{r4, r7, pc}
 1655              	.L77:
 1656 011a 00BF     		.align	2
 1657              	.L76:
 1658 011c 04000000 		.word	.LC1
 1659              		.cfi_endproc
 1660              	.LFE1937:
 1661              		.fnend
 1663              		.section	.rodata
 1664 0036 0000     		.align	2
 1665              	.LC3:
 1666 0038 50554258 		.ascii	"PUBX,41\000"
 1666      2C343100 
 1667              		.align	2
 1668              	.LC4:
 1669 0040 50554258 		.ascii	"PUBX,00\000"
 1669      2C303000 
 1670              		.align	2
 1671              	.LC5:
 1672 0048 50554258 		.ascii	"PUBX,03\000"
 1672      2C303300 
 1673              		.align	2
 1674              	.LC6:
 1675 0050 50554258 		.ascii	"PUBX,04\000"
 1675      2C303400 
 1676              		.align	2
 1677              	.LC7:
 1678 0058 44544D00 		.ascii	"DTM\000"
 1679              		.align	2
 1680              	.LC8:
 1681 005c 47415100 		.ascii	"GAQ\000"
 1682              		.align	2
 1683              	.LC9:
 1684 0060 47425100 		.ascii	"GBQ\000"
 1685              		.align	2
 1686              	.LC10:
 1687 0064 47425300 		.ascii	"GBS\000"
 1688              		.align	2
ARM GAS  /var/folders/bb/dhrb69655gd8t4nf464nxc_00000gn/T//ccyYPrc2.s 			page 40


 1689              	.LC11:
 1690 0068 47474100 		.ascii	"GGA\000"
 1691              		.align	2
 1692              	.LC12:
 1693 006c 474C4C00 		.ascii	"GLL\000"
 1694              		.align	2
 1695              	.LC13:
 1696 0070 474C5100 		.ascii	"GLQ\000"
 1697              		.align	2
 1698              	.LC14:
 1699 0074 474E5100 		.ascii	"GNQ\000"
 1700              		.align	2
 1701              	.LC15:
 1702 0078 474E5300 		.ascii	"GNS\000"
 1703              		.align	2
 1704              	.LC16:
 1705 007c 47505100 		.ascii	"GPQ\000"
 1706              		.align	2
 1707              	.LC17:
 1708 0080 47525300 		.ascii	"GRS\000"
 1709              		.align	2
 1710              	.LC18:
 1711 0084 47534100 		.ascii	"GSA\000"
 1712              		.align	2
 1713              	.LC19:
 1714 0088 47535400 		.ascii	"GST\000"
 1715              		.align	2
 1716              	.LC20:
 1717 008c 47535600 		.ascii	"GSV\000"
 1718              		.align	2
 1719              	.LC21:
 1720 0090 524C4D00 		.ascii	"RLM\000"
 1721              		.align	2
 1722              	.LC22:
 1723 0094 524D4300 		.ascii	"RMC\000"
 1724              		.align	2
 1725              	.LC23:
 1726 0098 54585400 		.ascii	"TXT\000"
 1727              		.align	2
 1728              	.LC24:
 1729 009c 564C5700 		.ascii	"VLW\000"
 1730              		.align	2
 1731              	.LC25:
 1732 00a0 56544700 		.ascii	"VTG\000"
 1733              		.align	2
 1734              	.LC26:
 1735 00a4 5A444100 		.ascii	"ZDA\000"
 1736              		.align	2
 1737              	.LC27:
 1738 00a8 00       		.ascii	"\000"
 1739              		.section	.text._ZN8M9N_Base9NMEA_PUBX8toStringENS0_7MessageE,"ax",%progbits
 1740              		.align	1
 1741              		.global	_ZN8M9N_Base9NMEA_PUBX8toStringENS0_7MessageE
 1742              		.syntax unified
 1743              		.thumb
 1744              		.thumb_func
 1746              	_ZN8M9N_Base9NMEA_PUBX8toStringENS0_7MessageE:
ARM GAS  /var/folders/bb/dhrb69655gd8t4nf464nxc_00000gn/T//ccyYPrc2.s 			page 41


 1747              		.fnstart
 1748              	.LFB1938:
 102:Core/Src/NMEA_PUBX.cpp **** 
 103:Core/Src/NMEA_PUBX.cpp **** string M9N_Base::NMEA_PUBX::toString(const Message msg){
 1749              		.loc 5 103 56
 1750              		.cfi_startproc
 1751              		@ args = 0, pretend = 0, frame = 8
 1752              		@ frame_needed = 1, uses_anonymous_args = 0
 1753 0000 80B5     		push	{r7, lr}
 1754              		.cfi_def_cfa_offset 8
 1755              		.cfi_offset 7, -8
 1756              		.cfi_offset 14, -4
 1757 0002 82B0     		sub	sp, sp, #8
 1758              		.cfi_def_cfa_offset 16
 1759 0004 00AF     		add	r7, sp, #0
 1760              		.cfi_def_cfa_register 7
 1761 0006 7860     		str	r0, [r7, #4]
 1762 0008 3960     		str	r1, [r7]
 104:Core/Src/NMEA_PUBX.cpp **** 	switch(msg){
 1763              		.loc 5 104 2
 1764 000a 3B68     		ldr	r3, [r7]
 1765 000c 182B     		cmp	r3, #24
 1766 000e 00F2B280 		bhi	.L79
 1767 0012 01A2     		adr	r2, .L81
 1768 0014 52F823F0 		ldr	pc, [r2, r3, lsl #2]
 1769              		.p2align 2
 1770              	.L81:
 1771 0018 AF000000 		.word	.L105+1
 1772 001c B9000000 		.word	.L104+1
 1773 0020 C3000000 		.word	.L103+1
 1774 0024 CD000000 		.word	.L102+1
 1775 0028 D7000000 		.word	.L101+1
 1776 002c E1000000 		.word	.L100+1
 1777 0030 EB000000 		.word	.L99+1
 1778 0034 F5000000 		.word	.L98+1
 1779 0038 FF000000 		.word	.L97+1
 1780 003c 09010000 		.word	.L96+1
 1781 0040 13010000 		.word	.L95+1
 1782 0044 1D010000 		.word	.L94+1
 1783 0048 27010000 		.word	.L93+1
 1784 004c 31010000 		.word	.L92+1
 1785 0050 3B010000 		.word	.L91+1
 1786 0054 45010000 		.word	.L90+1
 1787 0058 4F010000 		.word	.L89+1
 1788 005c 59010000 		.word	.L88+1
 1789 0060 63010000 		.word	.L87+1
 1790 0064 6D010000 		.word	.L86+1
 1791 0068 7D000000 		.word	.L85+1
 1792 006c 87000000 		.word	.L84+1
 1793 0070 91000000 		.word	.L83+1
 1794 0074 9B000000 		.word	.L82+1
 1795 0078 A5000000 		.word	.L80+1
 1796              		.p2align 1
 1797              	.L85:
 105:Core/Src/NMEA_PUBX.cpp **** 		/* PUBX Extension Cases */
 106:Core/Src/NMEA_PUBX.cpp **** 		case Message::PUBX_CONFIG: 		return "PUBX,41";
 1798              		.loc 5 106 39
ARM GAS  /var/folders/bb/dhrb69655gd8t4nf464nxc_00000gn/T//ccyYPrc2.s 			page 42


 1799 007c 4249     		ldr	r1, .L107
 1800 007e 7868     		ldr	r0, [r7, #4]
 1801 0080 FFF7FEFF 		bl	_ZN12StaticStringC1EPKc
 1802 0084 7BE0     		b	.L106
 1803              	.L84:
 107:Core/Src/NMEA_PUBX.cpp **** 		case Message::PUBX_POSITION: 	return "PUBX,00";
 1804              		.loc 5 107 40
 1805 0086 4149     		ldr	r1, .L107+4
 1806 0088 7868     		ldr	r0, [r7, #4]
 1807 008a FFF7FEFF 		bl	_ZN12StaticStringC1EPKc
 1808 008e 76E0     		b	.L106
 1809              	.L83:
 108:Core/Src/NMEA_PUBX.cpp **** 		case Message::PUBX_RATE: 		return "PUBX,03";
 1810              		.loc 5 108 37
 1811 0090 3F49     		ldr	r1, .L107+8
 1812 0092 7868     		ldr	r0, [r7, #4]
 1813 0094 FFF7FEFF 		bl	_ZN12StaticStringC1EPKc
 1814 0098 71E0     		b	.L106
 1815              	.L82:
 109:Core/Src/NMEA_PUBX.cpp **** 		case Message::PUBX_SVSTATUS: 	return "PUBX,03";
 1816              		.loc 5 109 40
 1817 009a 3D49     		ldr	r1, .L107+8
 1818 009c 7868     		ldr	r0, [r7, #4]
 1819 009e FFF7FEFF 		bl	_ZN12StaticStringC1EPKc
 1820 00a2 6CE0     		b	.L106
 1821              	.L80:
 110:Core/Src/NMEA_PUBX.cpp **** 		case Message::PUBX_TIME: 		return "PUBX,04";
 1822              		.loc 5 110 37
 1823 00a4 3B49     		ldr	r1, .L107+12
 1824 00a6 7868     		ldr	r0, [r7, #4]
 1825 00a8 FFF7FEFF 		bl	_ZN12StaticStringC1EPKc
 1826 00ac 67E0     		b	.L106
 1827              	.L105:
 111:Core/Src/NMEA_PUBX.cpp **** 
 112:Core/Src/NMEA_PUBX.cpp **** 		/* Standard NMEA Cases */
 113:Core/Src/NMEA_PUBX.cpp **** 		// Duplicated from NMEA_Standard::toString() because NMEA_PUBX::Message did
 114:Core/Src/NMEA_PUBX.cpp **** 		// not inherit enumerals from NMEA_Standard::Message. 
 115:Core/Src/NMEA_PUBX.cpp **** 		// Without explicit enumeral values, casting is prone to error.
 116:Core/Src/NMEA_PUBX.cpp **** 		// This approach is therefore safer, and the Standard NMEA messages will rarely change if ever.
 117:Core/Src/NMEA_PUBX.cpp **** 		case Message::DTM : return "DTM";
 1828              		.loc 5 117 30
 1829 00ae 3A49     		ldr	r1, .L107+16
 1830 00b0 7868     		ldr	r0, [r7, #4]
 1831 00b2 FFF7FEFF 		bl	_ZN12StaticStringC1EPKc
 1832 00b6 62E0     		b	.L106
 1833              	.L104:
 118:Core/Src/NMEA_PUBX.cpp **** 		case Message::GAQ : return "GAQ";
 1834              		.loc 5 118 30
 1835 00b8 3849     		ldr	r1, .L107+20
 1836 00ba 7868     		ldr	r0, [r7, #4]
 1837 00bc FFF7FEFF 		bl	_ZN12StaticStringC1EPKc
 1838 00c0 5DE0     		b	.L106
 1839              	.L103:
 119:Core/Src/NMEA_PUBX.cpp **** 		case Message::GBQ : return "GBQ";
 1840              		.loc 5 119 30
 1841 00c2 3749     		ldr	r1, .L107+24
 1842 00c4 7868     		ldr	r0, [r7, #4]
ARM GAS  /var/folders/bb/dhrb69655gd8t4nf464nxc_00000gn/T//ccyYPrc2.s 			page 43


 1843 00c6 FFF7FEFF 		bl	_ZN12StaticStringC1EPKc
 1844 00ca 58E0     		b	.L106
 1845              	.L102:
 120:Core/Src/NMEA_PUBX.cpp **** 		case Message::GBS : return "GBS";
 1846              		.loc 5 120 30
 1847 00cc 3549     		ldr	r1, .L107+28
 1848 00ce 7868     		ldr	r0, [r7, #4]
 1849 00d0 FFF7FEFF 		bl	_ZN12StaticStringC1EPKc
 1850 00d4 53E0     		b	.L106
 1851              	.L101:
 121:Core/Src/NMEA_PUBX.cpp **** 		case Message::GGA : return "GGA";
 1852              		.loc 5 121 30
 1853 00d6 3449     		ldr	r1, .L107+32
 1854 00d8 7868     		ldr	r0, [r7, #4]
 1855 00da FFF7FEFF 		bl	_ZN12StaticStringC1EPKc
 1856 00de 4EE0     		b	.L106
 1857              	.L100:
 122:Core/Src/NMEA_PUBX.cpp **** 		case Message::GLL : return "GLL";
 1858              		.loc 5 122 30
 1859 00e0 3249     		ldr	r1, .L107+36
 1860 00e2 7868     		ldr	r0, [r7, #4]
 1861 00e4 FFF7FEFF 		bl	_ZN12StaticStringC1EPKc
 1862 00e8 49E0     		b	.L106
 1863              	.L99:
 123:Core/Src/NMEA_PUBX.cpp **** 		case Message::GLQ : return "GLQ";
 1864              		.loc 5 123 30
 1865 00ea 3149     		ldr	r1, .L107+40
 1866 00ec 7868     		ldr	r0, [r7, #4]
 1867 00ee FFF7FEFF 		bl	_ZN12StaticStringC1EPKc
 1868 00f2 44E0     		b	.L106
 1869              	.L98:
 124:Core/Src/NMEA_PUBX.cpp **** 		case Message::GNQ : return "GNQ";
 1870              		.loc 5 124 30
 1871 00f4 2F49     		ldr	r1, .L107+44
 1872 00f6 7868     		ldr	r0, [r7, #4]
 1873 00f8 FFF7FEFF 		bl	_ZN12StaticStringC1EPKc
 1874 00fc 3FE0     		b	.L106
 1875              	.L97:
 125:Core/Src/NMEA_PUBX.cpp **** 		case Message::GNS : return "GNS";
 1876              		.loc 5 125 30
 1877 00fe 2E49     		ldr	r1, .L107+48
 1878 0100 7868     		ldr	r0, [r7, #4]
 1879 0102 FFF7FEFF 		bl	_ZN12StaticStringC1EPKc
 1880 0106 3AE0     		b	.L106
 1881              	.L96:
 126:Core/Src/NMEA_PUBX.cpp **** 		case Message::GPQ : return "GPQ";
 1882              		.loc 5 126 30
 1883 0108 2C49     		ldr	r1, .L107+52
 1884 010a 7868     		ldr	r0, [r7, #4]
 1885 010c FFF7FEFF 		bl	_ZN12StaticStringC1EPKc
 1886 0110 35E0     		b	.L106
 1887              	.L95:
 127:Core/Src/NMEA_PUBX.cpp **** 		case Message::GRS : return "GRS";
 1888              		.loc 5 127 30
 1889 0112 2B49     		ldr	r1, .L107+56
 1890 0114 7868     		ldr	r0, [r7, #4]
 1891 0116 FFF7FEFF 		bl	_ZN12StaticStringC1EPKc
ARM GAS  /var/folders/bb/dhrb69655gd8t4nf464nxc_00000gn/T//ccyYPrc2.s 			page 44


 1892 011a 30E0     		b	.L106
 1893              	.L94:
 128:Core/Src/NMEA_PUBX.cpp **** 		case Message::GSA : return "GSA";
 1894              		.loc 5 128 30
 1895 011c 2949     		ldr	r1, .L107+60
 1896 011e 7868     		ldr	r0, [r7, #4]
 1897 0120 FFF7FEFF 		bl	_ZN12StaticStringC1EPKc
 1898 0124 2BE0     		b	.L106
 1899              	.L93:
 129:Core/Src/NMEA_PUBX.cpp **** 		case Message::GST : return "GST";
 1900              		.loc 5 129 30
 1901 0126 2849     		ldr	r1, .L107+64
 1902 0128 7868     		ldr	r0, [r7, #4]
 1903 012a FFF7FEFF 		bl	_ZN12StaticStringC1EPKc
 1904 012e 26E0     		b	.L106
 1905              	.L92:
 130:Core/Src/NMEA_PUBX.cpp **** 		case Message::GSV : return "GSV";
 1906              		.loc 5 130 30
 1907 0130 2649     		ldr	r1, .L107+68
 1908 0132 7868     		ldr	r0, [r7, #4]
 1909 0134 FFF7FEFF 		bl	_ZN12StaticStringC1EPKc
 1910 0138 21E0     		b	.L106
 1911              	.L91:
 131:Core/Src/NMEA_PUBX.cpp **** 		case Message::RLM : return "RLM";
 1912              		.loc 5 131 30
 1913 013a 2549     		ldr	r1, .L107+72
 1914 013c 7868     		ldr	r0, [r7, #4]
 1915 013e FFF7FEFF 		bl	_ZN12StaticStringC1EPKc
 1916 0142 1CE0     		b	.L106
 1917              	.L90:
 132:Core/Src/NMEA_PUBX.cpp **** 		case Message::RMC : return "RMC";
 1918              		.loc 5 132 30
 1919 0144 2349     		ldr	r1, .L107+76
 1920 0146 7868     		ldr	r0, [r7, #4]
 1921 0148 FFF7FEFF 		bl	_ZN12StaticStringC1EPKc
 1922 014c 17E0     		b	.L106
 1923              	.L89:
 133:Core/Src/NMEA_PUBX.cpp **** 		case Message::TXT : return "TXT";
 1924              		.loc 5 133 30
 1925 014e 2249     		ldr	r1, .L107+80
 1926 0150 7868     		ldr	r0, [r7, #4]
 1927 0152 FFF7FEFF 		bl	_ZN12StaticStringC1EPKc
 1928 0156 12E0     		b	.L106
 1929              	.L88:
 134:Core/Src/NMEA_PUBX.cpp **** 		case Message::VLW : return "VLW";
 1930              		.loc 5 134 30
 1931 0158 2049     		ldr	r1, .L107+84
 1932 015a 7868     		ldr	r0, [r7, #4]
 1933 015c FFF7FEFF 		bl	_ZN12StaticStringC1EPKc
 1934 0160 0DE0     		b	.L106
 1935              	.L87:
 135:Core/Src/NMEA_PUBX.cpp **** 		case Message::VTG : return "VTG";
 1936              		.loc 5 135 30
 1937 0162 1F49     		ldr	r1, .L107+88
 1938 0164 7868     		ldr	r0, [r7, #4]
 1939 0166 FFF7FEFF 		bl	_ZN12StaticStringC1EPKc
 1940 016a 08E0     		b	.L106
ARM GAS  /var/folders/bb/dhrb69655gd8t4nf464nxc_00000gn/T//ccyYPrc2.s 			page 45


 1941              	.L86:
 136:Core/Src/NMEA_PUBX.cpp **** 		case Message::ZDA : return "ZDA";
 1942              		.loc 5 136 30
 1943 016c 1D49     		ldr	r1, .L107+92
 1944 016e 7868     		ldr	r0, [r7, #4]
 1945 0170 FFF7FEFF 		bl	_ZN12StaticStringC1EPKc
 1946 0174 03E0     		b	.L106
 1947              	.L79:
 137:Core/Src/NMEA_PUBX.cpp **** 
 138:Core/Src/NMEA_PUBX.cpp **** 		default: return "";
 1948              		.loc 5 138 19
 1949 0176 1C49     		ldr	r1, .L107+96
 1950 0178 7868     		ldr	r0, [r7, #4]
 1951 017a FFF7FEFF 		bl	_ZN12StaticStringC1EPKc
 1952              	.L106:
 139:Core/Src/NMEA_PUBX.cpp **** 	}
 140:Core/Src/NMEA_PUBX.cpp **** }
 1953              		.loc 5 140 1
 1954 017e 7868     		ldr	r0, [r7, #4]
 1955 0180 0837     		adds	r7, r7, #8
 1956              		.cfi_def_cfa_offset 8
 1957 0182 BD46     		mov	sp, r7
 1958              		.cfi_def_cfa_register 13
 1959              		@ sp needed
 1960 0184 80BD     		pop	{r7, pc}
 1961              	.L108:
 1962 0186 00BF     		.align	2
 1963              	.L107:
 1964 0188 38000000 		.word	.LC3
 1965 018c 40000000 		.word	.LC4
 1966 0190 48000000 		.word	.LC5
 1967 0194 50000000 		.word	.LC6
 1968 0198 58000000 		.word	.LC7
 1969 019c 5C000000 		.word	.LC8
 1970 01a0 60000000 		.word	.LC9
 1971 01a4 64000000 		.word	.LC10
 1972 01a8 68000000 		.word	.LC11
 1973 01ac 6C000000 		.word	.LC12
 1974 01b0 70000000 		.word	.LC13
 1975 01b4 74000000 		.word	.LC14
 1976 01b8 78000000 		.word	.LC15
 1977 01bc 7C000000 		.word	.LC16
 1978 01c0 80000000 		.word	.LC17
 1979 01c4 84000000 		.word	.LC18
 1980 01c8 88000000 		.word	.LC19
 1981 01cc 8C000000 		.word	.LC20
 1982 01d0 90000000 		.word	.LC21
 1983 01d4 94000000 		.word	.LC22
 1984 01d8 98000000 		.word	.LC23
 1985 01dc 9C000000 		.word	.LC24
 1986 01e0 A0000000 		.word	.LC25
 1987 01e4 A4000000 		.word	.LC26
 1988 01e8 A8000000 		.word	.LC27
 1989              		.cfi_endproc
 1990              	.LFE1938:
 1991              		.cantunwind
 1992              		.fnend
ARM GAS  /var/folders/bb/dhrb69655gd8t4nf464nxc_00000gn/T//ccyYPrc2.s 			page 46


 1994              		.section	.text._ZN8M9N_Base9NMEA_PUBX4RateC2ENS0_7MessageEhhhhh,"ax",%progbits
 1995              		.align	1
 1996              		.global	_ZN8M9N_Base9NMEA_PUBX4RateC2ENS0_7MessageEhhhhh
 1997              		.syntax unified
 1998              		.thumb
 1999              		.thumb_func
 2001              	_ZN8M9N_Base9NMEA_PUBX4RateC2ENS0_7MessageEhhhhh:
 2002              		.fnstart
 2003              	.LFB1940:
 141:Core/Src/NMEA_PUBX.cpp **** 
 142:Core/Src/NMEA_PUBX.cpp **** M9N_Base::NMEA_PUBX::Rate::Rate(
 2004              		.loc 5 142 1
 2005              		.cfi_startproc
 2006              		@ args = 12, pretend = 0, frame = 16
 2007              		@ frame_needed = 1, uses_anonymous_args = 0
 2008 0000 80B5     		push	{r7, lr}
 2009              		.save {r7, lr}
 2010              		.cfi_def_cfa_offset 8
 2011              		.cfi_offset 7, -8
 2012              		.cfi_offset 14, -4
 2013              		.pad #16
 2014 0002 84B0     		sub	sp, sp, #16
 2015              		.cfi_def_cfa_offset 24
 2016              		.setfp r7, sp, #0
 2017 0004 00AF     		add	r7, sp, #0
 2018              		.cfi_def_cfa_register 7
 2019 0006 F860     		str	r0, [r7, #12]
 2020 0008 B960     		str	r1, [r7, #8]
 2021 000a 1146     		mov	r1, r2
 2022 000c 1A46     		mov	r2, r3
 2023 000e 0B46     		mov	r3, r1
 2024 0010 FB71     		strb	r3, [r7, #7]
 2025 0012 1346     		mov	r3, r2
 2026 0014 BB71     		strb	r3, [r7, #6]
 2027              	.LBB14:
 143:Core/Src/NMEA_PUBX.cpp **** 	Message ID,
 144:Core/Src/NMEA_PUBX.cpp **** 	uint8_t rddc,
 145:Core/Src/NMEA_PUBX.cpp **** 	uint8_t rus1,
 146:Core/Src/NMEA_PUBX.cpp **** 	uint8_t rus2,
 147:Core/Src/NMEA_PUBX.cpp **** 	uint8_t rusb,
 148:Core/Src/NMEA_PUBX.cpp **** 	uint8_t rspi ) :
 149:Core/Src/NMEA_PUBX.cpp **** 		PUBX(40u),
 150:Core/Src/NMEA_PUBX.cpp **** 		ID(ID),
 151:Core/Src/NMEA_PUBX.cpp **** 		rddc(rddc),
 152:Core/Src/NMEA_PUBX.cpp **** 		rus1(rus1),
 153:Core/Src/NMEA_PUBX.cpp **** 		rus2(rus2),
 154:Core/Src/NMEA_PUBX.cpp **** 		rusb(rusb),
 155:Core/Src/NMEA_PUBX.cpp **** 		rspi(rspi) {
 2028              		.loc 5 155 12
 2029 0016 FB68     		ldr	r3, [r7, #12]
 2030 0018 2821     		movs	r1, #40
 2031 001a 1846     		mov	r0, r3
 2032 001c FFF7FEFF 		bl	_ZN8M9N_Base9NMEA_PUBX4PUBXC2Eh
 2033 0020 154A     		ldr	r2, .L114
 2034 0022 FB68     		ldr	r3, [r7, #12]
 2035 0024 1A60     		str	r2, [r3]
 2036 0026 FB68     		ldr	r3, [r7, #12]
ARM GAS  /var/folders/bb/dhrb69655gd8t4nf464nxc_00000gn/T//ccyYPrc2.s 			page 47


 2037 0028 BA68     		ldr	r2, [r7, #8]
 2038 002a DA61     		str	r2, [r3, #28]
 2039 002c FB68     		ldr	r3, [r7, #12]
 2040 002e FA79     		ldrb	r2, [r7, #7]
 2041 0030 83F82020 		strb	r2, [r3, #32]
 2042 0034 FB68     		ldr	r3, [r7, #12]
 2043 0036 BA79     		ldrb	r2, [r7, #6]
 2044 0038 83F82120 		strb	r2, [r3, #33]
 2045 003c FB68     		ldr	r3, [r7, #12]
 2046 003e 3A7E     		ldrb	r2, [r7, #24]
 2047 0040 83F82220 		strb	r2, [r3, #34]
 2048 0044 FB68     		ldr	r3, [r7, #12]
 2049 0046 3A7F     		ldrb	r2, [r7, #28]
 2050 0048 83F82320 		strb	r2, [r3, #35]
 2051 004c FB68     		ldr	r3, [r7, #12]
 2052 004e 97F82020 		ldrb	r2, [r7, #32]
 2053 0052 83F82420 		strb	r2, [r3, #36]
 156:Core/Src/NMEA_PUBX.cpp **** 			setChecksum();
 2054              		.loc 5 156 15
 2055 0056 FB68     		ldr	r3, [r7, #12]
 2056 0058 1846     		mov	r0, r3
 2057              	.LEHB2:
 2058 005a FFF7FEFF 		bl	_ZN13NMEA_Standard11setChecksumEv
 2059              	.LEHE2:
 2060              	.LBE14:
 157:Core/Src/NMEA_PUBX.cpp **** }
 2061              		.loc 5 157 1
 2062 005e FB68     		ldr	r3, [r7, #12]
 2063 0060 05E0     		b	.L113
 2064              	.L112:
 2065              	.LBB15:
 155:Core/Src/NMEA_PUBX.cpp **** 			setChecksum();
 2066              		.loc 5 155 12
 2067 0062 FB68     		ldr	r3, [r7, #12]
 2068 0064 1846     		mov	r0, r3
 2069 0066 FFF7FEFF 		bl	_ZN8M9N_Base9NMEA_PUBX4PUBXD2Ev
 2070              	.LEHB3:
 2071 006a FFF7FEFF 		bl	__cxa_end_cleanup
 2072              	.LEHE3:
 2073              	.L113:
 2074              	.LBE15:
 2075              		.loc 5 157 1
 2076 006e 1846     		mov	r0, r3
 2077 0070 1037     		adds	r7, r7, #16
 2078              		.cfi_def_cfa_offset 8
 2079 0072 BD46     		mov	sp, r7
 2080              		.cfi_def_cfa_register 13
 2081              		@ sp needed
 2082 0074 80BD     		pop	{r7, pc}
 2083              	.L115:
 2084 0076 00BF     		.align	2
 2085              	.L114:
 2086 0078 08000000 		.word	_ZTVN8M9N_Base9NMEA_PUBX4RateE+8
 2087              		.cfi_endproc
 2088              	.LFE1940:
 2089              		.personality	__gxx_personality_v0
 2090              		.handlerdata
ARM GAS  /var/folders/bb/dhrb69655gd8t4nf464nxc_00000gn/T//ccyYPrc2.s 			page 48


 2091              	.LLSDA1940:
 2092 000c FF       		.byte	0xff
 2093 000d FF       		.byte	0xff
 2094 000e 01       		.byte	0x1
 2095 000f 08       		.uleb128 .LLSDACSE1940-.LLSDACSB1940
 2096              	.LLSDACSB1940:
 2097 0010 5A       		.uleb128 .LEHB2-.LFB1940
 2098 0011 04       		.uleb128 .LEHE2-.LEHB2
 2099 0012 62       		.uleb128 .L112-.LFB1940
 2100 0013 00       		.uleb128 0
 2101 0014 6A       		.uleb128 .LEHB3-.LFB1940
 2102 0015 04       		.uleb128 .LEHE3-.LEHB3
 2103 0016 00       		.uleb128 0
 2104 0017 00       		.uleb128 0
 2105              	.LLSDACSE1940:
 2106              		.section	.text._ZN8M9N_Base9NMEA_PUBX4RateC2ENS0_7MessageEhhhhh
 2107              		.fnend
 2109              		.global	_ZN8M9N_Base9NMEA_PUBX4RateC1ENS0_7MessageEhhhhh
 2110              		.thumb_set _ZN8M9N_Base9NMEA_PUBX4RateC1ENS0_7MessageEhhhhh,_ZN8M9N_Base9NMEA_PUBX4RateC2ENS0_7Mes
 2111              		.section	.rodata
 2112 00a9 000000   		.align	2
 2113              	.LC28:
 2114 00ac 24505542 		.ascii	"$PUBX,40,%3s,%1u,%1u,%1u,%1u,%1u,%1u*%02X\015\012\000"
 2114      582C3430 
 2114      2C253373 
 2114      2C253175 
 2114      2C253175 
 2115              		.section	.text._ZN8M9N_Base9NMEA_PUBX4Rate8toStringEPc,"ax",%progbits
 2116              		.align	1
 2117              		.global	_ZN8M9N_Base9NMEA_PUBX4Rate8toStringEPc
 2118              		.syntax unified
 2119              		.thumb
 2120              		.thumb_func
 2122              	_ZN8M9N_Base9NMEA_PUBX4Rate8toStringEPc:
 2123              		.fnstart
 2124              	.LFB1942:
 158:Core/Src/NMEA_PUBX.cpp **** 
 159:Core/Src/NMEA_PUBX.cpp **** string M9N_Base::NMEA_PUBX::Rate::toString(char buff[30]){
 2125              		.loc 5 159 58
 2126              		.cfi_startproc
 2127              		@ args = 0, pretend = 0, frame = 24
 2128              		@ frame_needed = 1, uses_anonymous_args = 0
 2129 0000 F0B5     		push	{r4, r5, r6, r7, lr}
 2130              		.cfi_def_cfa_offset 20
 2131              		.cfi_offset 4, -20
 2132              		.cfi_offset 5, -16
 2133              		.cfi_offset 6, -12
 2134              		.cfi_offset 7, -8
 2135              		.cfi_offset 14, -4
 2136 0002 8FB0     		sub	sp, sp, #60
 2137              		.cfi_def_cfa_offset 80
 2138 0004 08AF     		add	r7, sp, #32
 2139              		.cfi_def_cfa 7, 48
 2140 0006 F860     		str	r0, [r7, #12]
 2141 0008 B960     		str	r1, [r7, #8]
 2142 000a 7A60     		str	r2, [r7, #4]
 160:Core/Src/NMEA_PUBX.cpp **** 	std::snprintf(buff, 30, "$PUBX,40,%3s,%1u,%1u,%1u,%1u,%1u,%1u*%02X\r\n",
ARM GAS  /var/folders/bb/dhrb69655gd8t4nf464nxc_00000gn/T//ccyYPrc2.s 			page 49


 161:Core/Src/NMEA_PUBX.cpp **** 					NMEA_PUBX::toString(ID).c_str(),	
 2143              		.loc 5 161 28
 2144 000c BB68     		ldr	r3, [r7, #8]
 2145 000e DA69     		ldr	r2, [r3, #28]
 2146 0010 07F11003 		add	r3, r7, #16
 2147 0014 1146     		mov	r1, r2
 2148 0016 1846     		mov	r0, r3
 2149 0018 FFF7FEFF 		bl	_ZN8M9N_Base9NMEA_PUBX8toStringENS0_7MessageE
 160:Core/Src/NMEA_PUBX.cpp **** 	std::snprintf(buff, 30, "$PUBX,40,%3s,%1u,%1u,%1u,%1u,%1u,%1u*%02X\r\n",
 2150              		.loc 5 160 15
 2151 001c 07F11003 		add	r3, r7, #16
 2152 0020 1846     		mov	r0, r3
 2153 0022 FFF7FEFF 		bl	_ZNK12StaticString5c_strEv
 2154 0026 0246     		mov	r2, r0
 162:Core/Src/NMEA_PUBX.cpp **** 					rddc, rus1, rus2, rusb, rspi, reserved, cs.cs );
 2155              		.loc 5 162 6
 2156 0028 BB68     		ldr	r3, [r7, #8]
 2157 002a 93F82030 		ldrb	r3, [r3, #32]	@ zero_extendqisi2
 160:Core/Src/NMEA_PUBX.cpp **** 	std::snprintf(buff, 30, "$PUBX,40,%3s,%1u,%1u,%1u,%1u,%1u,%1u*%02X\r\n",
 2158              		.loc 5 160 15
 2159 002e 1946     		mov	r1, r3
 2160              		.loc 5 162 12
 2161 0030 BB68     		ldr	r3, [r7, #8]
 2162 0032 93F82130 		ldrb	r3, [r3, #33]	@ zero_extendqisi2
 160:Core/Src/NMEA_PUBX.cpp **** 	std::snprintf(buff, 30, "$PUBX,40,%3s,%1u,%1u,%1u,%1u,%1u,%1u*%02X\r\n",
 2163              		.loc 5 160 15
 2164 0036 1846     		mov	r0, r3
 2165              		.loc 5 162 18
 2166 0038 BB68     		ldr	r3, [r7, #8]
 2167 003a 93F82230 		ldrb	r3, [r3, #34]	@ zero_extendqisi2
 160:Core/Src/NMEA_PUBX.cpp **** 	std::snprintf(buff, 30, "$PUBX,40,%3s,%1u,%1u,%1u,%1u,%1u,%1u*%02X\r\n",
 2168              		.loc 5 160 15
 2169 003e 1C46     		mov	r4, r3
 2170              		.loc 5 162 24
 2171 0040 BB68     		ldr	r3, [r7, #8]
 2172 0042 93F82330 		ldrb	r3, [r3, #35]	@ zero_extendqisi2
 160:Core/Src/NMEA_PUBX.cpp **** 	std::snprintf(buff, 30, "$PUBX,40,%3s,%1u,%1u,%1u,%1u,%1u,%1u*%02X\r\n",
 2173              		.loc 5 160 15
 2174 0046 1D46     		mov	r5, r3
 2175              		.loc 5 162 30
 2176 0048 BB68     		ldr	r3, [r7, #8]
 2177 004a 93F82430 		ldrb	r3, [r3, #36]	@ zero_extendqisi2
 160:Core/Src/NMEA_PUBX.cpp **** 	std::snprintf(buff, 30, "$PUBX,40,%3s,%1u,%1u,%1u,%1u,%1u,%1u*%02X\r\n",
 2178              		.loc 5 160 15
 2179 004e 1E46     		mov	r6, r3
 2180              		.loc 5 162 36
 2181 0050 BB68     		ldr	r3, [r7, #8]
 2182 0052 93F82530 		ldrb	r3, [r3, #37]	@ zero_extendqisi2
 160:Core/Src/NMEA_PUBX.cpp **** 	std::snprintf(buff, 30, "$PUBX,40,%3s,%1u,%1u,%1u,%1u,%1u,%1u*%02X\r\n",
 2183              		.loc 5 160 15
 2184 0056 3B60     		str	r3, [r7]
 2185              		.loc 5 162 49
 2186 0058 BB68     		ldr	r3, [r7, #8]
 2187 005a 5B79     		ldrb	r3, [r3, #5]	@ zero_extendqisi2
 160:Core/Src/NMEA_PUBX.cpp **** 	std::snprintf(buff, 30, "$PUBX,40,%3s,%1u,%1u,%1u,%1u,%1u,%1u*%02X\r\n",
 2188              		.loc 5 160 15
 2189 005c 0693     		str	r3, [sp, #24]
ARM GAS  /var/folders/bb/dhrb69655gd8t4nf464nxc_00000gn/T//ccyYPrc2.s 			page 50


 2190 005e 3B68     		ldr	r3, [r7]
 2191 0060 0593     		str	r3, [sp, #20]
 2192 0062 0496     		str	r6, [sp, #16]
 2193 0064 0395     		str	r5, [sp, #12]
 2194 0066 0294     		str	r4, [sp, #8]
 2195 0068 0190     		str	r0, [sp, #4]
 2196 006a 0091     		str	r1, [sp]
 2197 006c 1346     		mov	r3, r2
 2198 006e 064A     		ldr	r2, .L118
 2199 0070 1E21     		movs	r1, #30
 2200 0072 7868     		ldr	r0, [r7, #4]
 2201 0074 FFF7FEFF 		bl	snprintf
 163:Core/Src/NMEA_PUBX.cpp **** 	
 164:Core/Src/NMEA_PUBX.cpp **** 	return string(buff);
 2202              		.loc 5 164 20
 2203 0078 7968     		ldr	r1, [r7, #4]
 2204 007a F868     		ldr	r0, [r7, #12]
 2205 007c FFF7FEFF 		bl	_ZN12StaticStringC1EPKc
 165:Core/Src/NMEA_PUBX.cpp **** }
 2206              		.loc 5 165 1
 2207 0080 F868     		ldr	r0, [r7, #12]
 2208 0082 1C37     		adds	r7, r7, #28
 2209              		.cfi_def_cfa_offset 20
 2210 0084 BD46     		mov	sp, r7
 2211              		.cfi_def_cfa_register 13
 2212              		@ sp needed
 2213 0086 F0BD     		pop	{r4, r5, r6, r7, pc}
 2214              	.L119:
 2215              		.align	2
 2216              	.L118:
 2217 0088 AC000000 		.word	.LC28
 2218              		.cfi_endproc
 2219              	.LFE1942:
 2220              		.cantunwind
 2221              		.fnend
 2223              		.section	.text._ZN12StaticStringC2IKcEEPT_j,"axG",%progbits,_ZN12StaticStringC5IKcEEPT_j,comdat
 2224              		.align	1
 2225              		.weak	_ZN12StaticStringC2IKcEEPT_j
 2226              		.syntax unified
 2227              		.thumb
 2228              		.thumb_func
 2230              	_ZN12StaticStringC2IKcEEPT_j:
 2231              		.fnstart
 2232              	.LFB2217:
  36:Core/Inc/StaticString.hpp **** 
 2233              		.loc 2 36 2
 2234              		.cfi_startproc
 2235              		@ args = 0, pretend = 0, frame = 16
 2236              		@ frame_needed = 1, uses_anonymous_args = 0
 2237              		@ link register save eliminated.
 2238 0000 80B4     		push	{r7}
 2239              		.cfi_def_cfa_offset 4
 2240              		.cfi_offset 7, -4
 2241 0002 85B0     		sub	sp, sp, #20
 2242              		.cfi_def_cfa_offset 24
 2243 0004 00AF     		add	r7, sp, #0
 2244              		.cfi_def_cfa_register 7
ARM GAS  /var/folders/bb/dhrb69655gd8t4nf464nxc_00000gn/T//ccyYPrc2.s 			page 51


 2245 0006 F860     		str	r0, [r7, #12]
 2246 0008 B960     		str	r1, [r7, #8]
 2247 000a 7A60     		str	r2, [r7, #4]
 2248              	.LBB16:
  36:Core/Inc/StaticString.hpp **** 
 2249              		.loc 2 36 55
 2250 000c FB68     		ldr	r3, [r7, #12]
 2251 000e BA68     		ldr	r2, [r7, #8]
 2252 0010 1A60     		str	r2, [r3]
 2253 0012 FB68     		ldr	r3, [r7, #12]
 2254 0014 7A68     		ldr	r2, [r7, #4]
 2255 0016 5A60     		str	r2, [r3, #4]
 2256              	.LBE16:
  36:Core/Inc/StaticString.hpp **** 
 2257              		.loc 2 36 57
 2258 0018 FB68     		ldr	r3, [r7, #12]
 2259 001a 1846     		mov	r0, r3
 2260 001c 1437     		adds	r7, r7, #20
 2261              		.cfi_def_cfa_offset 4
 2262 001e BD46     		mov	sp, r7
 2263              		.cfi_def_cfa_register 13
 2264              		@ sp needed
 2265 0020 5DF8047B 		ldr	r7, [sp], #4
 2266              		.cfi_restore 7
 2267              		.cfi_def_cfa_offset 0
 2268 0024 7047     		bx	lr
 2269              		.cfi_endproc
 2270              	.LFE2217:
 2271              		.cantunwind
 2272              		.fnend
 2274              		.weak	_ZN12StaticStringC1IKcEEPT_j
 2275              		.thumb_set _ZN12StaticStringC1IKcEEPT_j,_ZN12StaticStringC2IKcEEPT_j
 2276              		.section	.text._ZSt4findIPKccET_S2_S2_RKT0_,"axG",%progbits,_ZSt4findIPKccET_S2_S2_RKT0_,comdat
 2277              		.align	1
 2278              		.weak	_ZSt4findIPKccET_S2_S2_RKT0_
 2279              		.syntax unified
 2280              		.thumb
 2281              		.thumb_func
 2283              	_ZSt4findIPKccET_S2_S2_RKT0_:
 2284              		.fnstart
 2285              	.LFB2219:
 2286              		.file 7 "/Users/lawrencestanton/Library/Application Support/Code/User/globalStorage/bmd.stm32-for-
   1:/Users/lawrencestanton/Library/Application Support/Code/User/globalStorage/bmd.stm32-for-vscode/@xpack-dev-tools/arm-none-eabi-gcc/10.3.1-2.3.1/.content/arm-none-eabi/include/c++/10.3.1/bits/stl_algo.h **** // Algorithm implementation -*- C++ -*-
   2:/Users/lawrencestanton/Library/Application Support/Code/User/globalStorage/bmd.stm32-for-vscode/@xpack-dev-tools/arm-none-eabi-gcc/10.3.1-2.3.1/.content/arm-none-eabi/include/c++/10.3.1/bits/stl_algo.h **** 
   3:/Users/lawrencestanton/Library/Application Support/Code/User/globalStorage/bmd.stm32-for-vscode/@xpack-dev-tools/arm-none-eabi-gcc/10.3.1-2.3.1/.content/arm-none-eabi/include/c++/10.3.1/bits/stl_algo.h **** // Copyright (C) 2001-2020 Free Software Foundation, Inc.
   4:/Users/lawrencestanton/Library/Application Support/Code/User/globalStorage/bmd.stm32-for-vscode/@xpack-dev-tools/arm-none-eabi-gcc/10.3.1-2.3.1/.content/arm-none-eabi/include/c++/10.3.1/bits/stl_algo.h **** //
   5:/Users/lawrencestanton/Library/Application Support/Code/User/globalStorage/bmd.stm32-for-vscode/@xpack-dev-tools/arm-none-eabi-gcc/10.3.1-2.3.1/.content/arm-none-eabi/include/c++/10.3.1/bits/stl_algo.h **** // This file is part of the GNU ISO C++ Library.  This library is free
   6:/Users/lawrencestanton/Library/Application Support/Code/User/globalStorage/bmd.stm32-for-vscode/@xpack-dev-tools/arm-none-eabi-gcc/10.3.1-2.3.1/.content/arm-none-eabi/include/c++/10.3.1/bits/stl_algo.h **** // software; you can redistribute it and/or modify it under the
   7:/Users/lawrencestanton/Library/Application Support/Code/User/globalStorage/bmd.stm32-for-vscode/@xpack-dev-tools/arm-none-eabi-gcc/10.3.1-2.3.1/.content/arm-none-eabi/include/c++/10.3.1/bits/stl_algo.h **** // terms of the GNU General Public License as published by the
   8:/Users/lawrencestanton/Library/Application Support/Code/User/globalStorage/bmd.stm32-for-vscode/@xpack-dev-tools/arm-none-eabi-gcc/10.3.1-2.3.1/.content/arm-none-eabi/include/c++/10.3.1/bits/stl_algo.h **** // Free Software Foundation; either version 3, or (at your option)
   9:/Users/lawrencestanton/Library/Application Support/Code/User/globalStorage/bmd.stm32-for-vscode/@xpack-dev-tools/arm-none-eabi-gcc/10.3.1-2.3.1/.content/arm-none-eabi/include/c++/10.3.1/bits/stl_algo.h **** // any later version.
  10:/Users/lawrencestanton/Library/Application Support/Code/User/globalStorage/bmd.stm32-for-vscode/@xpack-dev-tools/arm-none-eabi-gcc/10.3.1-2.3.1/.content/arm-none-eabi/include/c++/10.3.1/bits/stl_algo.h **** 
  11:/Users/lawrencestanton/Library/Application Support/Code/User/globalStorage/bmd.stm32-for-vscode/@xpack-dev-tools/arm-none-eabi-gcc/10.3.1-2.3.1/.content/arm-none-eabi/include/c++/10.3.1/bits/stl_algo.h **** // This library is distributed in the hope that it will be useful,
  12:/Users/lawrencestanton/Library/Application Support/Code/User/globalStorage/bmd.stm32-for-vscode/@xpack-dev-tools/arm-none-eabi-gcc/10.3.1-2.3.1/.content/arm-none-eabi/include/c++/10.3.1/bits/stl_algo.h **** // but WITHOUT ANY WARRANTY; without even the implied warranty of
  13:/Users/lawrencestanton/Library/Application Support/Code/User/globalStorage/bmd.stm32-for-vscode/@xpack-dev-tools/arm-none-eabi-gcc/10.3.1-2.3.1/.content/arm-none-eabi/include/c++/10.3.1/bits/stl_algo.h **** // MERCHANTABILITY or FITNESS FOR A PARTICULAR PURPOSE.  See the
  14:/Users/lawrencestanton/Library/Application Support/Code/User/globalStorage/bmd.stm32-for-vscode/@xpack-dev-tools/arm-none-eabi-gcc/10.3.1-2.3.1/.content/arm-none-eabi/include/c++/10.3.1/bits/stl_algo.h **** // GNU General Public License for more details.
  15:/Users/lawrencestanton/Library/Application Support/Code/User/globalStorage/bmd.stm32-for-vscode/@xpack-dev-tools/arm-none-eabi-gcc/10.3.1-2.3.1/.content/arm-none-eabi/include/c++/10.3.1/bits/stl_algo.h **** 
ARM GAS  /var/folders/bb/dhrb69655gd8t4nf464nxc_00000gn/T//ccyYPrc2.s 			page 52


  16:/Users/lawrencestanton/Library/Application Support/Code/User/globalStorage/bmd.stm32-for-vscode/@xpack-dev-tools/arm-none-eabi-gcc/10.3.1-2.3.1/.content/arm-none-eabi/include/c++/10.3.1/bits/stl_algo.h **** // Under Section 7 of GPL version 3, you are granted additional
  17:/Users/lawrencestanton/Library/Application Support/Code/User/globalStorage/bmd.stm32-for-vscode/@xpack-dev-tools/arm-none-eabi-gcc/10.3.1-2.3.1/.content/arm-none-eabi/include/c++/10.3.1/bits/stl_algo.h **** // permissions described in the GCC Runtime Library Exception, version
  18:/Users/lawrencestanton/Library/Application Support/Code/User/globalStorage/bmd.stm32-for-vscode/@xpack-dev-tools/arm-none-eabi-gcc/10.3.1-2.3.1/.content/arm-none-eabi/include/c++/10.3.1/bits/stl_algo.h **** // 3.1, as published by the Free Software Foundation.
  19:/Users/lawrencestanton/Library/Application Support/Code/User/globalStorage/bmd.stm32-for-vscode/@xpack-dev-tools/arm-none-eabi-gcc/10.3.1-2.3.1/.content/arm-none-eabi/include/c++/10.3.1/bits/stl_algo.h **** 
  20:/Users/lawrencestanton/Library/Application Support/Code/User/globalStorage/bmd.stm32-for-vscode/@xpack-dev-tools/arm-none-eabi-gcc/10.3.1-2.3.1/.content/arm-none-eabi/include/c++/10.3.1/bits/stl_algo.h **** // You should have received a copy of the GNU General Public License and
  21:/Users/lawrencestanton/Library/Application Support/Code/User/globalStorage/bmd.stm32-for-vscode/@xpack-dev-tools/arm-none-eabi-gcc/10.3.1-2.3.1/.content/arm-none-eabi/include/c++/10.3.1/bits/stl_algo.h **** // a copy of the GCC Runtime Library Exception along with this program;
  22:/Users/lawrencestanton/Library/Application Support/Code/User/globalStorage/bmd.stm32-for-vscode/@xpack-dev-tools/arm-none-eabi-gcc/10.3.1-2.3.1/.content/arm-none-eabi/include/c++/10.3.1/bits/stl_algo.h **** // see the files COPYING3 and COPYING.RUNTIME respectively.  If not, see
  23:/Users/lawrencestanton/Library/Application Support/Code/User/globalStorage/bmd.stm32-for-vscode/@xpack-dev-tools/arm-none-eabi-gcc/10.3.1-2.3.1/.content/arm-none-eabi/include/c++/10.3.1/bits/stl_algo.h **** // <http://www.gnu.org/licenses/>.
  24:/Users/lawrencestanton/Library/Application Support/Code/User/globalStorage/bmd.stm32-for-vscode/@xpack-dev-tools/arm-none-eabi-gcc/10.3.1-2.3.1/.content/arm-none-eabi/include/c++/10.3.1/bits/stl_algo.h **** 
  25:/Users/lawrencestanton/Library/Application Support/Code/User/globalStorage/bmd.stm32-for-vscode/@xpack-dev-tools/arm-none-eabi-gcc/10.3.1-2.3.1/.content/arm-none-eabi/include/c++/10.3.1/bits/stl_algo.h **** /*
  26:/Users/lawrencestanton/Library/Application Support/Code/User/globalStorage/bmd.stm32-for-vscode/@xpack-dev-tools/arm-none-eabi-gcc/10.3.1-2.3.1/.content/arm-none-eabi/include/c++/10.3.1/bits/stl_algo.h ****  *
  27:/Users/lawrencestanton/Library/Application Support/Code/User/globalStorage/bmd.stm32-for-vscode/@xpack-dev-tools/arm-none-eabi-gcc/10.3.1-2.3.1/.content/arm-none-eabi/include/c++/10.3.1/bits/stl_algo.h ****  * Copyright (c) 1994
  28:/Users/lawrencestanton/Library/Application Support/Code/User/globalStorage/bmd.stm32-for-vscode/@xpack-dev-tools/arm-none-eabi-gcc/10.3.1-2.3.1/.content/arm-none-eabi/include/c++/10.3.1/bits/stl_algo.h ****  * Hewlett-Packard Company
  29:/Users/lawrencestanton/Library/Application Support/Code/User/globalStorage/bmd.stm32-for-vscode/@xpack-dev-tools/arm-none-eabi-gcc/10.3.1-2.3.1/.content/arm-none-eabi/include/c++/10.3.1/bits/stl_algo.h ****  *
  30:/Users/lawrencestanton/Library/Application Support/Code/User/globalStorage/bmd.stm32-for-vscode/@xpack-dev-tools/arm-none-eabi-gcc/10.3.1-2.3.1/.content/arm-none-eabi/include/c++/10.3.1/bits/stl_algo.h ****  * Permission to use, copy, modify, distribute and sell this software
  31:/Users/lawrencestanton/Library/Application Support/Code/User/globalStorage/bmd.stm32-for-vscode/@xpack-dev-tools/arm-none-eabi-gcc/10.3.1-2.3.1/.content/arm-none-eabi/include/c++/10.3.1/bits/stl_algo.h ****  * and its documentation for any purpose is hereby granted without fee,
  32:/Users/lawrencestanton/Library/Application Support/Code/User/globalStorage/bmd.stm32-for-vscode/@xpack-dev-tools/arm-none-eabi-gcc/10.3.1-2.3.1/.content/arm-none-eabi/include/c++/10.3.1/bits/stl_algo.h ****  * provided that the above copyright notice appear in all copies and
  33:/Users/lawrencestanton/Library/Application Support/Code/User/globalStorage/bmd.stm32-for-vscode/@xpack-dev-tools/arm-none-eabi-gcc/10.3.1-2.3.1/.content/arm-none-eabi/include/c++/10.3.1/bits/stl_algo.h ****  * that both that copyright notice and this permission notice appear
  34:/Users/lawrencestanton/Library/Application Support/Code/User/globalStorage/bmd.stm32-for-vscode/@xpack-dev-tools/arm-none-eabi-gcc/10.3.1-2.3.1/.content/arm-none-eabi/include/c++/10.3.1/bits/stl_algo.h ****  * in supporting documentation.  Hewlett-Packard Company makes no
  35:/Users/lawrencestanton/Library/Application Support/Code/User/globalStorage/bmd.stm32-for-vscode/@xpack-dev-tools/arm-none-eabi-gcc/10.3.1-2.3.1/.content/arm-none-eabi/include/c++/10.3.1/bits/stl_algo.h ****  * representations about the suitability of this software for any
  36:/Users/lawrencestanton/Library/Application Support/Code/User/globalStorage/bmd.stm32-for-vscode/@xpack-dev-tools/arm-none-eabi-gcc/10.3.1-2.3.1/.content/arm-none-eabi/include/c++/10.3.1/bits/stl_algo.h ****  * purpose.  It is provided "as is" without express or implied warranty.
  37:/Users/lawrencestanton/Library/Application Support/Code/User/globalStorage/bmd.stm32-for-vscode/@xpack-dev-tools/arm-none-eabi-gcc/10.3.1-2.3.1/.content/arm-none-eabi/include/c++/10.3.1/bits/stl_algo.h ****  *
  38:/Users/lawrencestanton/Library/Application Support/Code/User/globalStorage/bmd.stm32-for-vscode/@xpack-dev-tools/arm-none-eabi-gcc/10.3.1-2.3.1/.content/arm-none-eabi/include/c++/10.3.1/bits/stl_algo.h ****  *
  39:/Users/lawrencestanton/Library/Application Support/Code/User/globalStorage/bmd.stm32-for-vscode/@xpack-dev-tools/arm-none-eabi-gcc/10.3.1-2.3.1/.content/arm-none-eabi/include/c++/10.3.1/bits/stl_algo.h ****  * Copyright (c) 1996
  40:/Users/lawrencestanton/Library/Application Support/Code/User/globalStorage/bmd.stm32-for-vscode/@xpack-dev-tools/arm-none-eabi-gcc/10.3.1-2.3.1/.content/arm-none-eabi/include/c++/10.3.1/bits/stl_algo.h ****  * Silicon Graphics Computer Systems, Inc.
  41:/Users/lawrencestanton/Library/Application Support/Code/User/globalStorage/bmd.stm32-for-vscode/@xpack-dev-tools/arm-none-eabi-gcc/10.3.1-2.3.1/.content/arm-none-eabi/include/c++/10.3.1/bits/stl_algo.h ****  *
  42:/Users/lawrencestanton/Library/Application Support/Code/User/globalStorage/bmd.stm32-for-vscode/@xpack-dev-tools/arm-none-eabi-gcc/10.3.1-2.3.1/.content/arm-none-eabi/include/c++/10.3.1/bits/stl_algo.h ****  * Permission to use, copy, modify, distribute and sell this software
  43:/Users/lawrencestanton/Library/Application Support/Code/User/globalStorage/bmd.stm32-for-vscode/@xpack-dev-tools/arm-none-eabi-gcc/10.3.1-2.3.1/.content/arm-none-eabi/include/c++/10.3.1/bits/stl_algo.h ****  * and its documentation for any purpose is hereby granted without fee,
  44:/Users/lawrencestanton/Library/Application Support/Code/User/globalStorage/bmd.stm32-for-vscode/@xpack-dev-tools/arm-none-eabi-gcc/10.3.1-2.3.1/.content/arm-none-eabi/include/c++/10.3.1/bits/stl_algo.h ****  * provided that the above copyright notice appear in all copies and
  45:/Users/lawrencestanton/Library/Application Support/Code/User/globalStorage/bmd.stm32-for-vscode/@xpack-dev-tools/arm-none-eabi-gcc/10.3.1-2.3.1/.content/arm-none-eabi/include/c++/10.3.1/bits/stl_algo.h ****  * that both that copyright notice and this permission notice appear
  46:/Users/lawrencestanton/Library/Application Support/Code/User/globalStorage/bmd.stm32-for-vscode/@xpack-dev-tools/arm-none-eabi-gcc/10.3.1-2.3.1/.content/arm-none-eabi/include/c++/10.3.1/bits/stl_algo.h ****  * in supporting documentation.  Silicon Graphics makes no
  47:/Users/lawrencestanton/Library/Application Support/Code/User/globalStorage/bmd.stm32-for-vscode/@xpack-dev-tools/arm-none-eabi-gcc/10.3.1-2.3.1/.content/arm-none-eabi/include/c++/10.3.1/bits/stl_algo.h ****  * representations about the suitability of this software for any
  48:/Users/lawrencestanton/Library/Application Support/Code/User/globalStorage/bmd.stm32-for-vscode/@xpack-dev-tools/arm-none-eabi-gcc/10.3.1-2.3.1/.content/arm-none-eabi/include/c++/10.3.1/bits/stl_algo.h ****  * purpose.  It is provided "as is" without express or implied warranty.
  49:/Users/lawrencestanton/Library/Application Support/Code/User/globalStorage/bmd.stm32-for-vscode/@xpack-dev-tools/arm-none-eabi-gcc/10.3.1-2.3.1/.content/arm-none-eabi/include/c++/10.3.1/bits/stl_algo.h ****  */
  50:/Users/lawrencestanton/Library/Application Support/Code/User/globalStorage/bmd.stm32-for-vscode/@xpack-dev-tools/arm-none-eabi-gcc/10.3.1-2.3.1/.content/arm-none-eabi/include/c++/10.3.1/bits/stl_algo.h **** 
  51:/Users/lawrencestanton/Library/Application Support/Code/User/globalStorage/bmd.stm32-for-vscode/@xpack-dev-tools/arm-none-eabi-gcc/10.3.1-2.3.1/.content/arm-none-eabi/include/c++/10.3.1/bits/stl_algo.h **** /** @file bits/stl_algo.h
  52:/Users/lawrencestanton/Library/Application Support/Code/User/globalStorage/bmd.stm32-for-vscode/@xpack-dev-tools/arm-none-eabi-gcc/10.3.1-2.3.1/.content/arm-none-eabi/include/c++/10.3.1/bits/stl_algo.h ****  *  This is an internal header file, included by other library headers.
  53:/Users/lawrencestanton/Library/Application Support/Code/User/globalStorage/bmd.stm32-for-vscode/@xpack-dev-tools/arm-none-eabi-gcc/10.3.1-2.3.1/.content/arm-none-eabi/include/c++/10.3.1/bits/stl_algo.h ****  *  Do not attempt to use it directly. @headername{algorithm}
  54:/Users/lawrencestanton/Library/Application Support/Code/User/globalStorage/bmd.stm32-for-vscode/@xpack-dev-tools/arm-none-eabi-gcc/10.3.1-2.3.1/.content/arm-none-eabi/include/c++/10.3.1/bits/stl_algo.h ****  */
  55:/Users/lawrencestanton/Library/Application Support/Code/User/globalStorage/bmd.stm32-for-vscode/@xpack-dev-tools/arm-none-eabi-gcc/10.3.1-2.3.1/.content/arm-none-eabi/include/c++/10.3.1/bits/stl_algo.h **** 
  56:/Users/lawrencestanton/Library/Application Support/Code/User/globalStorage/bmd.stm32-for-vscode/@xpack-dev-tools/arm-none-eabi-gcc/10.3.1-2.3.1/.content/arm-none-eabi/include/c++/10.3.1/bits/stl_algo.h **** #ifndef _STL_ALGO_H
  57:/Users/lawrencestanton/Library/Application Support/Code/User/globalStorage/bmd.stm32-for-vscode/@xpack-dev-tools/arm-none-eabi-gcc/10.3.1-2.3.1/.content/arm-none-eabi/include/c++/10.3.1/bits/stl_algo.h **** #define _STL_ALGO_H 1
  58:/Users/lawrencestanton/Library/Application Support/Code/User/globalStorage/bmd.stm32-for-vscode/@xpack-dev-tools/arm-none-eabi-gcc/10.3.1-2.3.1/.content/arm-none-eabi/include/c++/10.3.1/bits/stl_algo.h **** 
  59:/Users/lawrencestanton/Library/Application Support/Code/User/globalStorage/bmd.stm32-for-vscode/@xpack-dev-tools/arm-none-eabi-gcc/10.3.1-2.3.1/.content/arm-none-eabi/include/c++/10.3.1/bits/stl_algo.h **** #include <cstdlib>	     // for rand
  60:/Users/lawrencestanton/Library/Application Support/Code/User/globalStorage/bmd.stm32-for-vscode/@xpack-dev-tools/arm-none-eabi-gcc/10.3.1-2.3.1/.content/arm-none-eabi/include/c++/10.3.1/bits/stl_algo.h **** #include <bits/algorithmfwd.h>
  61:/Users/lawrencestanton/Library/Application Support/Code/User/globalStorage/bmd.stm32-for-vscode/@xpack-dev-tools/arm-none-eabi-gcc/10.3.1-2.3.1/.content/arm-none-eabi/include/c++/10.3.1/bits/stl_algo.h **** #include <bits/stl_heap.h>
  62:/Users/lawrencestanton/Library/Application Support/Code/User/globalStorage/bmd.stm32-for-vscode/@xpack-dev-tools/arm-none-eabi-gcc/10.3.1-2.3.1/.content/arm-none-eabi/include/c++/10.3.1/bits/stl_algo.h **** #include <bits/stl_tempbuf.h>  // for _Temporary_buffer
  63:/Users/lawrencestanton/Library/Application Support/Code/User/globalStorage/bmd.stm32-for-vscode/@xpack-dev-tools/arm-none-eabi-gcc/10.3.1-2.3.1/.content/arm-none-eabi/include/c++/10.3.1/bits/stl_algo.h **** #include <bits/predefined_ops.h>
  64:/Users/lawrencestanton/Library/Application Support/Code/User/globalStorage/bmd.stm32-for-vscode/@xpack-dev-tools/arm-none-eabi-gcc/10.3.1-2.3.1/.content/arm-none-eabi/include/c++/10.3.1/bits/stl_algo.h **** 
  65:/Users/lawrencestanton/Library/Application Support/Code/User/globalStorage/bmd.stm32-for-vscode/@xpack-dev-tools/arm-none-eabi-gcc/10.3.1-2.3.1/.content/arm-none-eabi/include/c++/10.3.1/bits/stl_algo.h **** #if __cplusplus >= 201103L
  66:/Users/lawrencestanton/Library/Application Support/Code/User/globalStorage/bmd.stm32-for-vscode/@xpack-dev-tools/arm-none-eabi-gcc/10.3.1-2.3.1/.content/arm-none-eabi/include/c++/10.3.1/bits/stl_algo.h **** #include <bits/uniform_int_dist.h>
  67:/Users/lawrencestanton/Library/Application Support/Code/User/globalStorage/bmd.stm32-for-vscode/@xpack-dev-tools/arm-none-eabi-gcc/10.3.1-2.3.1/.content/arm-none-eabi/include/c++/10.3.1/bits/stl_algo.h **** #endif
  68:/Users/lawrencestanton/Library/Application Support/Code/User/globalStorage/bmd.stm32-for-vscode/@xpack-dev-tools/arm-none-eabi-gcc/10.3.1-2.3.1/.content/arm-none-eabi/include/c++/10.3.1/bits/stl_algo.h **** 
  69:/Users/lawrencestanton/Library/Application Support/Code/User/globalStorage/bmd.stm32-for-vscode/@xpack-dev-tools/arm-none-eabi-gcc/10.3.1-2.3.1/.content/arm-none-eabi/include/c++/10.3.1/bits/stl_algo.h **** // See concept_check.h for the __glibcxx_*_requires macros.
  70:/Users/lawrencestanton/Library/Application Support/Code/User/globalStorage/bmd.stm32-for-vscode/@xpack-dev-tools/arm-none-eabi-gcc/10.3.1-2.3.1/.content/arm-none-eabi/include/c++/10.3.1/bits/stl_algo.h **** 
  71:/Users/lawrencestanton/Library/Application Support/Code/User/globalStorage/bmd.stm32-for-vscode/@xpack-dev-tools/arm-none-eabi-gcc/10.3.1-2.3.1/.content/arm-none-eabi/include/c++/10.3.1/bits/stl_algo.h **** namespace std _GLIBCXX_VISIBILITY(default)
  72:/Users/lawrencestanton/Library/Application Support/Code/User/globalStorage/bmd.stm32-for-vscode/@xpack-dev-tools/arm-none-eabi-gcc/10.3.1-2.3.1/.content/arm-none-eabi/include/c++/10.3.1/bits/stl_algo.h **** {
ARM GAS  /var/folders/bb/dhrb69655gd8t4nf464nxc_00000gn/T//ccyYPrc2.s 			page 53


  73:/Users/lawrencestanton/Library/Application Support/Code/User/globalStorage/bmd.stm32-for-vscode/@xpack-dev-tools/arm-none-eabi-gcc/10.3.1-2.3.1/.content/arm-none-eabi/include/c++/10.3.1/bits/stl_algo.h **** _GLIBCXX_BEGIN_NAMESPACE_VERSION
  74:/Users/lawrencestanton/Library/Application Support/Code/User/globalStorage/bmd.stm32-for-vscode/@xpack-dev-tools/arm-none-eabi-gcc/10.3.1-2.3.1/.content/arm-none-eabi/include/c++/10.3.1/bits/stl_algo.h **** 
  75:/Users/lawrencestanton/Library/Application Support/Code/User/globalStorage/bmd.stm32-for-vscode/@xpack-dev-tools/arm-none-eabi-gcc/10.3.1-2.3.1/.content/arm-none-eabi/include/c++/10.3.1/bits/stl_algo.h ****   /// Swaps the median value of *__a, *__b and *__c under __comp to *__result
  76:/Users/lawrencestanton/Library/Application Support/Code/User/globalStorage/bmd.stm32-for-vscode/@xpack-dev-tools/arm-none-eabi-gcc/10.3.1-2.3.1/.content/arm-none-eabi/include/c++/10.3.1/bits/stl_algo.h ****   template<typename _Iterator, typename _Compare>
  77:/Users/lawrencestanton/Library/Application Support/Code/User/globalStorage/bmd.stm32-for-vscode/@xpack-dev-tools/arm-none-eabi-gcc/10.3.1-2.3.1/.content/arm-none-eabi/include/c++/10.3.1/bits/stl_algo.h ****     _GLIBCXX20_CONSTEXPR
  78:/Users/lawrencestanton/Library/Application Support/Code/User/globalStorage/bmd.stm32-for-vscode/@xpack-dev-tools/arm-none-eabi-gcc/10.3.1-2.3.1/.content/arm-none-eabi/include/c++/10.3.1/bits/stl_algo.h ****     void
  79:/Users/lawrencestanton/Library/Application Support/Code/User/globalStorage/bmd.stm32-for-vscode/@xpack-dev-tools/arm-none-eabi-gcc/10.3.1-2.3.1/.content/arm-none-eabi/include/c++/10.3.1/bits/stl_algo.h ****     __move_median_to_first(_Iterator __result,_Iterator __a, _Iterator __b,
  80:/Users/lawrencestanton/Library/Application Support/Code/User/globalStorage/bmd.stm32-for-vscode/@xpack-dev-tools/arm-none-eabi-gcc/10.3.1-2.3.1/.content/arm-none-eabi/include/c++/10.3.1/bits/stl_algo.h **** 			   _Iterator __c, _Compare __comp)
  81:/Users/lawrencestanton/Library/Application Support/Code/User/globalStorage/bmd.stm32-for-vscode/@xpack-dev-tools/arm-none-eabi-gcc/10.3.1-2.3.1/.content/arm-none-eabi/include/c++/10.3.1/bits/stl_algo.h ****     {
  82:/Users/lawrencestanton/Library/Application Support/Code/User/globalStorage/bmd.stm32-for-vscode/@xpack-dev-tools/arm-none-eabi-gcc/10.3.1-2.3.1/.content/arm-none-eabi/include/c++/10.3.1/bits/stl_algo.h ****       if (__comp(__a, __b))
  83:/Users/lawrencestanton/Library/Application Support/Code/User/globalStorage/bmd.stm32-for-vscode/@xpack-dev-tools/arm-none-eabi-gcc/10.3.1-2.3.1/.content/arm-none-eabi/include/c++/10.3.1/bits/stl_algo.h **** 	{
  84:/Users/lawrencestanton/Library/Application Support/Code/User/globalStorage/bmd.stm32-for-vscode/@xpack-dev-tools/arm-none-eabi-gcc/10.3.1-2.3.1/.content/arm-none-eabi/include/c++/10.3.1/bits/stl_algo.h **** 	  if (__comp(__b, __c))
  85:/Users/lawrencestanton/Library/Application Support/Code/User/globalStorage/bmd.stm32-for-vscode/@xpack-dev-tools/arm-none-eabi-gcc/10.3.1-2.3.1/.content/arm-none-eabi/include/c++/10.3.1/bits/stl_algo.h **** 	    std::iter_swap(__result, __b);
  86:/Users/lawrencestanton/Library/Application Support/Code/User/globalStorage/bmd.stm32-for-vscode/@xpack-dev-tools/arm-none-eabi-gcc/10.3.1-2.3.1/.content/arm-none-eabi/include/c++/10.3.1/bits/stl_algo.h **** 	  else if (__comp(__a, __c))
  87:/Users/lawrencestanton/Library/Application Support/Code/User/globalStorage/bmd.stm32-for-vscode/@xpack-dev-tools/arm-none-eabi-gcc/10.3.1-2.3.1/.content/arm-none-eabi/include/c++/10.3.1/bits/stl_algo.h **** 	    std::iter_swap(__result, __c);
  88:/Users/lawrencestanton/Library/Application Support/Code/User/globalStorage/bmd.stm32-for-vscode/@xpack-dev-tools/arm-none-eabi-gcc/10.3.1-2.3.1/.content/arm-none-eabi/include/c++/10.3.1/bits/stl_algo.h **** 	  else
  89:/Users/lawrencestanton/Library/Application Support/Code/User/globalStorage/bmd.stm32-for-vscode/@xpack-dev-tools/arm-none-eabi-gcc/10.3.1-2.3.1/.content/arm-none-eabi/include/c++/10.3.1/bits/stl_algo.h **** 	    std::iter_swap(__result, __a);
  90:/Users/lawrencestanton/Library/Application Support/Code/User/globalStorage/bmd.stm32-for-vscode/@xpack-dev-tools/arm-none-eabi-gcc/10.3.1-2.3.1/.content/arm-none-eabi/include/c++/10.3.1/bits/stl_algo.h **** 	}
  91:/Users/lawrencestanton/Library/Application Support/Code/User/globalStorage/bmd.stm32-for-vscode/@xpack-dev-tools/arm-none-eabi-gcc/10.3.1-2.3.1/.content/arm-none-eabi/include/c++/10.3.1/bits/stl_algo.h ****       else if (__comp(__a, __c))
  92:/Users/lawrencestanton/Library/Application Support/Code/User/globalStorage/bmd.stm32-for-vscode/@xpack-dev-tools/arm-none-eabi-gcc/10.3.1-2.3.1/.content/arm-none-eabi/include/c++/10.3.1/bits/stl_algo.h **** 	std::iter_swap(__result, __a);
  93:/Users/lawrencestanton/Library/Application Support/Code/User/globalStorage/bmd.stm32-for-vscode/@xpack-dev-tools/arm-none-eabi-gcc/10.3.1-2.3.1/.content/arm-none-eabi/include/c++/10.3.1/bits/stl_algo.h ****       else if (__comp(__b, __c))
  94:/Users/lawrencestanton/Library/Application Support/Code/User/globalStorage/bmd.stm32-for-vscode/@xpack-dev-tools/arm-none-eabi-gcc/10.3.1-2.3.1/.content/arm-none-eabi/include/c++/10.3.1/bits/stl_algo.h **** 	std::iter_swap(__result, __c);
  95:/Users/lawrencestanton/Library/Application Support/Code/User/globalStorage/bmd.stm32-for-vscode/@xpack-dev-tools/arm-none-eabi-gcc/10.3.1-2.3.1/.content/arm-none-eabi/include/c++/10.3.1/bits/stl_algo.h ****       else
  96:/Users/lawrencestanton/Library/Application Support/Code/User/globalStorage/bmd.stm32-for-vscode/@xpack-dev-tools/arm-none-eabi-gcc/10.3.1-2.3.1/.content/arm-none-eabi/include/c++/10.3.1/bits/stl_algo.h **** 	std::iter_swap(__result, __b);
  97:/Users/lawrencestanton/Library/Application Support/Code/User/globalStorage/bmd.stm32-for-vscode/@xpack-dev-tools/arm-none-eabi-gcc/10.3.1-2.3.1/.content/arm-none-eabi/include/c++/10.3.1/bits/stl_algo.h ****     }
  98:/Users/lawrencestanton/Library/Application Support/Code/User/globalStorage/bmd.stm32-for-vscode/@xpack-dev-tools/arm-none-eabi-gcc/10.3.1-2.3.1/.content/arm-none-eabi/include/c++/10.3.1/bits/stl_algo.h **** 
  99:/Users/lawrencestanton/Library/Application Support/Code/User/globalStorage/bmd.stm32-for-vscode/@xpack-dev-tools/arm-none-eabi-gcc/10.3.1-2.3.1/.content/arm-none-eabi/include/c++/10.3.1/bits/stl_algo.h ****   /// Provided for stable_partition to use.
 100:/Users/lawrencestanton/Library/Application Support/Code/User/globalStorage/bmd.stm32-for-vscode/@xpack-dev-tools/arm-none-eabi-gcc/10.3.1-2.3.1/.content/arm-none-eabi/include/c++/10.3.1/bits/stl_algo.h ****   template<typename _InputIterator, typename _Predicate>
 101:/Users/lawrencestanton/Library/Application Support/Code/User/globalStorage/bmd.stm32-for-vscode/@xpack-dev-tools/arm-none-eabi-gcc/10.3.1-2.3.1/.content/arm-none-eabi/include/c++/10.3.1/bits/stl_algo.h ****     _GLIBCXX20_CONSTEXPR
 102:/Users/lawrencestanton/Library/Application Support/Code/User/globalStorage/bmd.stm32-for-vscode/@xpack-dev-tools/arm-none-eabi-gcc/10.3.1-2.3.1/.content/arm-none-eabi/include/c++/10.3.1/bits/stl_algo.h ****     inline _InputIterator
 103:/Users/lawrencestanton/Library/Application Support/Code/User/globalStorage/bmd.stm32-for-vscode/@xpack-dev-tools/arm-none-eabi-gcc/10.3.1-2.3.1/.content/arm-none-eabi/include/c++/10.3.1/bits/stl_algo.h ****     __find_if_not(_InputIterator __first, _InputIterator __last,
 104:/Users/lawrencestanton/Library/Application Support/Code/User/globalStorage/bmd.stm32-for-vscode/@xpack-dev-tools/arm-none-eabi-gcc/10.3.1-2.3.1/.content/arm-none-eabi/include/c++/10.3.1/bits/stl_algo.h **** 		  _Predicate __pred)
 105:/Users/lawrencestanton/Library/Application Support/Code/User/globalStorage/bmd.stm32-for-vscode/@xpack-dev-tools/arm-none-eabi-gcc/10.3.1-2.3.1/.content/arm-none-eabi/include/c++/10.3.1/bits/stl_algo.h ****     {
 106:/Users/lawrencestanton/Library/Application Support/Code/User/globalStorage/bmd.stm32-for-vscode/@xpack-dev-tools/arm-none-eabi-gcc/10.3.1-2.3.1/.content/arm-none-eabi/include/c++/10.3.1/bits/stl_algo.h ****       return std::__find_if(__first, __last,
 107:/Users/lawrencestanton/Library/Application Support/Code/User/globalStorage/bmd.stm32-for-vscode/@xpack-dev-tools/arm-none-eabi-gcc/10.3.1-2.3.1/.content/arm-none-eabi/include/c++/10.3.1/bits/stl_algo.h **** 			    __gnu_cxx::__ops::__negate(__pred),
 108:/Users/lawrencestanton/Library/Application Support/Code/User/globalStorage/bmd.stm32-for-vscode/@xpack-dev-tools/arm-none-eabi-gcc/10.3.1-2.3.1/.content/arm-none-eabi/include/c++/10.3.1/bits/stl_algo.h **** 			    std::__iterator_category(__first));
 109:/Users/lawrencestanton/Library/Application Support/Code/User/globalStorage/bmd.stm32-for-vscode/@xpack-dev-tools/arm-none-eabi-gcc/10.3.1-2.3.1/.content/arm-none-eabi/include/c++/10.3.1/bits/stl_algo.h ****     }
 110:/Users/lawrencestanton/Library/Application Support/Code/User/globalStorage/bmd.stm32-for-vscode/@xpack-dev-tools/arm-none-eabi-gcc/10.3.1-2.3.1/.content/arm-none-eabi/include/c++/10.3.1/bits/stl_algo.h **** 
 111:/Users/lawrencestanton/Library/Application Support/Code/User/globalStorage/bmd.stm32-for-vscode/@xpack-dev-tools/arm-none-eabi-gcc/10.3.1-2.3.1/.content/arm-none-eabi/include/c++/10.3.1/bits/stl_algo.h ****   /// Like find_if_not(), but uses and updates a count of the
 112:/Users/lawrencestanton/Library/Application Support/Code/User/globalStorage/bmd.stm32-for-vscode/@xpack-dev-tools/arm-none-eabi-gcc/10.3.1-2.3.1/.content/arm-none-eabi/include/c++/10.3.1/bits/stl_algo.h ****   /// remaining range length instead of comparing against an end
 113:/Users/lawrencestanton/Library/Application Support/Code/User/globalStorage/bmd.stm32-for-vscode/@xpack-dev-tools/arm-none-eabi-gcc/10.3.1-2.3.1/.content/arm-none-eabi/include/c++/10.3.1/bits/stl_algo.h ****   /// iterator.
 114:/Users/lawrencestanton/Library/Application Support/Code/User/globalStorage/bmd.stm32-for-vscode/@xpack-dev-tools/arm-none-eabi-gcc/10.3.1-2.3.1/.content/arm-none-eabi/include/c++/10.3.1/bits/stl_algo.h ****   template<typename _InputIterator, typename _Predicate, typename _Distance>
 115:/Users/lawrencestanton/Library/Application Support/Code/User/globalStorage/bmd.stm32-for-vscode/@xpack-dev-tools/arm-none-eabi-gcc/10.3.1-2.3.1/.content/arm-none-eabi/include/c++/10.3.1/bits/stl_algo.h ****     _GLIBCXX20_CONSTEXPR
 116:/Users/lawrencestanton/Library/Application Support/Code/User/globalStorage/bmd.stm32-for-vscode/@xpack-dev-tools/arm-none-eabi-gcc/10.3.1-2.3.1/.content/arm-none-eabi/include/c++/10.3.1/bits/stl_algo.h ****     _InputIterator
 117:/Users/lawrencestanton/Library/Application Support/Code/User/globalStorage/bmd.stm32-for-vscode/@xpack-dev-tools/arm-none-eabi-gcc/10.3.1-2.3.1/.content/arm-none-eabi/include/c++/10.3.1/bits/stl_algo.h ****     __find_if_not_n(_InputIterator __first, _Distance& __len, _Predicate __pred)
 118:/Users/lawrencestanton/Library/Application Support/Code/User/globalStorage/bmd.stm32-for-vscode/@xpack-dev-tools/arm-none-eabi-gcc/10.3.1-2.3.1/.content/arm-none-eabi/include/c++/10.3.1/bits/stl_algo.h ****     {
 119:/Users/lawrencestanton/Library/Application Support/Code/User/globalStorage/bmd.stm32-for-vscode/@xpack-dev-tools/arm-none-eabi-gcc/10.3.1-2.3.1/.content/arm-none-eabi/include/c++/10.3.1/bits/stl_algo.h ****       for (; __len; --__len,  (void) ++__first)
 120:/Users/lawrencestanton/Library/Application Support/Code/User/globalStorage/bmd.stm32-for-vscode/@xpack-dev-tools/arm-none-eabi-gcc/10.3.1-2.3.1/.content/arm-none-eabi/include/c++/10.3.1/bits/stl_algo.h **** 	if (!__pred(__first))
 121:/Users/lawrencestanton/Library/Application Support/Code/User/globalStorage/bmd.stm32-for-vscode/@xpack-dev-tools/arm-none-eabi-gcc/10.3.1-2.3.1/.content/arm-none-eabi/include/c++/10.3.1/bits/stl_algo.h **** 	  break;
 122:/Users/lawrencestanton/Library/Application Support/Code/User/globalStorage/bmd.stm32-for-vscode/@xpack-dev-tools/arm-none-eabi-gcc/10.3.1-2.3.1/.content/arm-none-eabi/include/c++/10.3.1/bits/stl_algo.h ****       return __first;
 123:/Users/lawrencestanton/Library/Application Support/Code/User/globalStorage/bmd.stm32-for-vscode/@xpack-dev-tools/arm-none-eabi-gcc/10.3.1-2.3.1/.content/arm-none-eabi/include/c++/10.3.1/bits/stl_algo.h ****     }
 124:/Users/lawrencestanton/Library/Application Support/Code/User/globalStorage/bmd.stm32-for-vscode/@xpack-dev-tools/arm-none-eabi-gcc/10.3.1-2.3.1/.content/arm-none-eabi/include/c++/10.3.1/bits/stl_algo.h **** 
 125:/Users/lawrencestanton/Library/Application Support/Code/User/globalStorage/bmd.stm32-for-vscode/@xpack-dev-tools/arm-none-eabi-gcc/10.3.1-2.3.1/.content/arm-none-eabi/include/c++/10.3.1/bits/stl_algo.h ****   // set_difference
 126:/Users/lawrencestanton/Library/Application Support/Code/User/globalStorage/bmd.stm32-for-vscode/@xpack-dev-tools/arm-none-eabi-gcc/10.3.1-2.3.1/.content/arm-none-eabi/include/c++/10.3.1/bits/stl_algo.h ****   // set_intersection
 127:/Users/lawrencestanton/Library/Application Support/Code/User/globalStorage/bmd.stm32-for-vscode/@xpack-dev-tools/arm-none-eabi-gcc/10.3.1-2.3.1/.content/arm-none-eabi/include/c++/10.3.1/bits/stl_algo.h ****   // set_symmetric_difference
 128:/Users/lawrencestanton/Library/Application Support/Code/User/globalStorage/bmd.stm32-for-vscode/@xpack-dev-tools/arm-none-eabi-gcc/10.3.1-2.3.1/.content/arm-none-eabi/include/c++/10.3.1/bits/stl_algo.h ****   // set_union
 129:/Users/lawrencestanton/Library/Application Support/Code/User/globalStorage/bmd.stm32-for-vscode/@xpack-dev-tools/arm-none-eabi-gcc/10.3.1-2.3.1/.content/arm-none-eabi/include/c++/10.3.1/bits/stl_algo.h ****   // for_each
ARM GAS  /var/folders/bb/dhrb69655gd8t4nf464nxc_00000gn/T//ccyYPrc2.s 			page 54


 130:/Users/lawrencestanton/Library/Application Support/Code/User/globalStorage/bmd.stm32-for-vscode/@xpack-dev-tools/arm-none-eabi-gcc/10.3.1-2.3.1/.content/arm-none-eabi/include/c++/10.3.1/bits/stl_algo.h ****   // find
 131:/Users/lawrencestanton/Library/Application Support/Code/User/globalStorage/bmd.stm32-for-vscode/@xpack-dev-tools/arm-none-eabi-gcc/10.3.1-2.3.1/.content/arm-none-eabi/include/c++/10.3.1/bits/stl_algo.h ****   // find_if
 132:/Users/lawrencestanton/Library/Application Support/Code/User/globalStorage/bmd.stm32-for-vscode/@xpack-dev-tools/arm-none-eabi-gcc/10.3.1-2.3.1/.content/arm-none-eabi/include/c++/10.3.1/bits/stl_algo.h ****   // find_first_of
 133:/Users/lawrencestanton/Library/Application Support/Code/User/globalStorage/bmd.stm32-for-vscode/@xpack-dev-tools/arm-none-eabi-gcc/10.3.1-2.3.1/.content/arm-none-eabi/include/c++/10.3.1/bits/stl_algo.h ****   // adjacent_find
 134:/Users/lawrencestanton/Library/Application Support/Code/User/globalStorage/bmd.stm32-for-vscode/@xpack-dev-tools/arm-none-eabi-gcc/10.3.1-2.3.1/.content/arm-none-eabi/include/c++/10.3.1/bits/stl_algo.h ****   // count
 135:/Users/lawrencestanton/Library/Application Support/Code/User/globalStorage/bmd.stm32-for-vscode/@xpack-dev-tools/arm-none-eabi-gcc/10.3.1-2.3.1/.content/arm-none-eabi/include/c++/10.3.1/bits/stl_algo.h ****   // count_if
 136:/Users/lawrencestanton/Library/Application Support/Code/User/globalStorage/bmd.stm32-for-vscode/@xpack-dev-tools/arm-none-eabi-gcc/10.3.1-2.3.1/.content/arm-none-eabi/include/c++/10.3.1/bits/stl_algo.h ****   // search
 137:/Users/lawrencestanton/Library/Application Support/Code/User/globalStorage/bmd.stm32-for-vscode/@xpack-dev-tools/arm-none-eabi-gcc/10.3.1-2.3.1/.content/arm-none-eabi/include/c++/10.3.1/bits/stl_algo.h **** 
 138:/Users/lawrencestanton/Library/Application Support/Code/User/globalStorage/bmd.stm32-for-vscode/@xpack-dev-tools/arm-none-eabi-gcc/10.3.1-2.3.1/.content/arm-none-eabi/include/c++/10.3.1/bits/stl_algo.h ****   template<typename _ForwardIterator1, typename _ForwardIterator2,
 139:/Users/lawrencestanton/Library/Application Support/Code/User/globalStorage/bmd.stm32-for-vscode/@xpack-dev-tools/arm-none-eabi-gcc/10.3.1-2.3.1/.content/arm-none-eabi/include/c++/10.3.1/bits/stl_algo.h **** 	   typename _BinaryPredicate>
 140:/Users/lawrencestanton/Library/Application Support/Code/User/globalStorage/bmd.stm32-for-vscode/@xpack-dev-tools/arm-none-eabi-gcc/10.3.1-2.3.1/.content/arm-none-eabi/include/c++/10.3.1/bits/stl_algo.h ****     _GLIBCXX20_CONSTEXPR
 141:/Users/lawrencestanton/Library/Application Support/Code/User/globalStorage/bmd.stm32-for-vscode/@xpack-dev-tools/arm-none-eabi-gcc/10.3.1-2.3.1/.content/arm-none-eabi/include/c++/10.3.1/bits/stl_algo.h ****     _ForwardIterator1
 142:/Users/lawrencestanton/Library/Application Support/Code/User/globalStorage/bmd.stm32-for-vscode/@xpack-dev-tools/arm-none-eabi-gcc/10.3.1-2.3.1/.content/arm-none-eabi/include/c++/10.3.1/bits/stl_algo.h ****     __search(_ForwardIterator1 __first1, _ForwardIterator1 __last1,
 143:/Users/lawrencestanton/Library/Application Support/Code/User/globalStorage/bmd.stm32-for-vscode/@xpack-dev-tools/arm-none-eabi-gcc/10.3.1-2.3.1/.content/arm-none-eabi/include/c++/10.3.1/bits/stl_algo.h **** 	     _ForwardIterator2 __first2, _ForwardIterator2 __last2,
 144:/Users/lawrencestanton/Library/Application Support/Code/User/globalStorage/bmd.stm32-for-vscode/@xpack-dev-tools/arm-none-eabi-gcc/10.3.1-2.3.1/.content/arm-none-eabi/include/c++/10.3.1/bits/stl_algo.h **** 	     _BinaryPredicate  __predicate)
 145:/Users/lawrencestanton/Library/Application Support/Code/User/globalStorage/bmd.stm32-for-vscode/@xpack-dev-tools/arm-none-eabi-gcc/10.3.1-2.3.1/.content/arm-none-eabi/include/c++/10.3.1/bits/stl_algo.h ****     {
 146:/Users/lawrencestanton/Library/Application Support/Code/User/globalStorage/bmd.stm32-for-vscode/@xpack-dev-tools/arm-none-eabi-gcc/10.3.1-2.3.1/.content/arm-none-eabi/include/c++/10.3.1/bits/stl_algo.h ****       // Test for empty ranges
 147:/Users/lawrencestanton/Library/Application Support/Code/User/globalStorage/bmd.stm32-for-vscode/@xpack-dev-tools/arm-none-eabi-gcc/10.3.1-2.3.1/.content/arm-none-eabi/include/c++/10.3.1/bits/stl_algo.h ****       if (__first1 == __last1 || __first2 == __last2)
 148:/Users/lawrencestanton/Library/Application Support/Code/User/globalStorage/bmd.stm32-for-vscode/@xpack-dev-tools/arm-none-eabi-gcc/10.3.1-2.3.1/.content/arm-none-eabi/include/c++/10.3.1/bits/stl_algo.h **** 	return __first1;
 149:/Users/lawrencestanton/Library/Application Support/Code/User/globalStorage/bmd.stm32-for-vscode/@xpack-dev-tools/arm-none-eabi-gcc/10.3.1-2.3.1/.content/arm-none-eabi/include/c++/10.3.1/bits/stl_algo.h **** 
 150:/Users/lawrencestanton/Library/Application Support/Code/User/globalStorage/bmd.stm32-for-vscode/@xpack-dev-tools/arm-none-eabi-gcc/10.3.1-2.3.1/.content/arm-none-eabi/include/c++/10.3.1/bits/stl_algo.h ****       // Test for a pattern of length 1.
 151:/Users/lawrencestanton/Library/Application Support/Code/User/globalStorage/bmd.stm32-for-vscode/@xpack-dev-tools/arm-none-eabi-gcc/10.3.1-2.3.1/.content/arm-none-eabi/include/c++/10.3.1/bits/stl_algo.h ****       _ForwardIterator2 __p1(__first2);
 152:/Users/lawrencestanton/Library/Application Support/Code/User/globalStorage/bmd.stm32-for-vscode/@xpack-dev-tools/arm-none-eabi-gcc/10.3.1-2.3.1/.content/arm-none-eabi/include/c++/10.3.1/bits/stl_algo.h ****       if (++__p1 == __last2)
 153:/Users/lawrencestanton/Library/Application Support/Code/User/globalStorage/bmd.stm32-for-vscode/@xpack-dev-tools/arm-none-eabi-gcc/10.3.1-2.3.1/.content/arm-none-eabi/include/c++/10.3.1/bits/stl_algo.h **** 	return std::__find_if(__first1, __last1,
 154:/Users/lawrencestanton/Library/Application Support/Code/User/globalStorage/bmd.stm32-for-vscode/@xpack-dev-tools/arm-none-eabi-gcc/10.3.1-2.3.1/.content/arm-none-eabi/include/c++/10.3.1/bits/stl_algo.h **** 		__gnu_cxx::__ops::__iter_comp_iter(__predicate, __first2));
 155:/Users/lawrencestanton/Library/Application Support/Code/User/globalStorage/bmd.stm32-for-vscode/@xpack-dev-tools/arm-none-eabi-gcc/10.3.1-2.3.1/.content/arm-none-eabi/include/c++/10.3.1/bits/stl_algo.h **** 
 156:/Users/lawrencestanton/Library/Application Support/Code/User/globalStorage/bmd.stm32-for-vscode/@xpack-dev-tools/arm-none-eabi-gcc/10.3.1-2.3.1/.content/arm-none-eabi/include/c++/10.3.1/bits/stl_algo.h ****       // General case.
 157:/Users/lawrencestanton/Library/Application Support/Code/User/globalStorage/bmd.stm32-for-vscode/@xpack-dev-tools/arm-none-eabi-gcc/10.3.1-2.3.1/.content/arm-none-eabi/include/c++/10.3.1/bits/stl_algo.h ****       _ForwardIterator1 __current = __first1;
 158:/Users/lawrencestanton/Library/Application Support/Code/User/globalStorage/bmd.stm32-for-vscode/@xpack-dev-tools/arm-none-eabi-gcc/10.3.1-2.3.1/.content/arm-none-eabi/include/c++/10.3.1/bits/stl_algo.h **** 
 159:/Users/lawrencestanton/Library/Application Support/Code/User/globalStorage/bmd.stm32-for-vscode/@xpack-dev-tools/arm-none-eabi-gcc/10.3.1-2.3.1/.content/arm-none-eabi/include/c++/10.3.1/bits/stl_algo.h ****       for (;;)
 160:/Users/lawrencestanton/Library/Application Support/Code/User/globalStorage/bmd.stm32-for-vscode/@xpack-dev-tools/arm-none-eabi-gcc/10.3.1-2.3.1/.content/arm-none-eabi/include/c++/10.3.1/bits/stl_algo.h **** 	{
 161:/Users/lawrencestanton/Library/Application Support/Code/User/globalStorage/bmd.stm32-for-vscode/@xpack-dev-tools/arm-none-eabi-gcc/10.3.1-2.3.1/.content/arm-none-eabi/include/c++/10.3.1/bits/stl_algo.h **** 	  __first1 =
 162:/Users/lawrencestanton/Library/Application Support/Code/User/globalStorage/bmd.stm32-for-vscode/@xpack-dev-tools/arm-none-eabi-gcc/10.3.1-2.3.1/.content/arm-none-eabi/include/c++/10.3.1/bits/stl_algo.h **** 	    std::__find_if(__first1, __last1,
 163:/Users/lawrencestanton/Library/Application Support/Code/User/globalStorage/bmd.stm32-for-vscode/@xpack-dev-tools/arm-none-eabi-gcc/10.3.1-2.3.1/.content/arm-none-eabi/include/c++/10.3.1/bits/stl_algo.h **** 		__gnu_cxx::__ops::__iter_comp_iter(__predicate, __first2));
 164:/Users/lawrencestanton/Library/Application Support/Code/User/globalStorage/bmd.stm32-for-vscode/@xpack-dev-tools/arm-none-eabi-gcc/10.3.1-2.3.1/.content/arm-none-eabi/include/c++/10.3.1/bits/stl_algo.h **** 
 165:/Users/lawrencestanton/Library/Application Support/Code/User/globalStorage/bmd.stm32-for-vscode/@xpack-dev-tools/arm-none-eabi-gcc/10.3.1-2.3.1/.content/arm-none-eabi/include/c++/10.3.1/bits/stl_algo.h **** 	  if (__first1 == __last1)
 166:/Users/lawrencestanton/Library/Application Support/Code/User/globalStorage/bmd.stm32-for-vscode/@xpack-dev-tools/arm-none-eabi-gcc/10.3.1-2.3.1/.content/arm-none-eabi/include/c++/10.3.1/bits/stl_algo.h **** 	    return __last1;
 167:/Users/lawrencestanton/Library/Application Support/Code/User/globalStorage/bmd.stm32-for-vscode/@xpack-dev-tools/arm-none-eabi-gcc/10.3.1-2.3.1/.content/arm-none-eabi/include/c++/10.3.1/bits/stl_algo.h **** 
 168:/Users/lawrencestanton/Library/Application Support/Code/User/globalStorage/bmd.stm32-for-vscode/@xpack-dev-tools/arm-none-eabi-gcc/10.3.1-2.3.1/.content/arm-none-eabi/include/c++/10.3.1/bits/stl_algo.h **** 	  _ForwardIterator2 __p = __p1;
 169:/Users/lawrencestanton/Library/Application Support/Code/User/globalStorage/bmd.stm32-for-vscode/@xpack-dev-tools/arm-none-eabi-gcc/10.3.1-2.3.1/.content/arm-none-eabi/include/c++/10.3.1/bits/stl_algo.h **** 	  __current = __first1;
 170:/Users/lawrencestanton/Library/Application Support/Code/User/globalStorage/bmd.stm32-for-vscode/@xpack-dev-tools/arm-none-eabi-gcc/10.3.1-2.3.1/.content/arm-none-eabi/include/c++/10.3.1/bits/stl_algo.h **** 	  if (++__current == __last1)
 171:/Users/lawrencestanton/Library/Application Support/Code/User/globalStorage/bmd.stm32-for-vscode/@xpack-dev-tools/arm-none-eabi-gcc/10.3.1-2.3.1/.content/arm-none-eabi/include/c++/10.3.1/bits/stl_algo.h **** 	    return __last1;
 172:/Users/lawrencestanton/Library/Application Support/Code/User/globalStorage/bmd.stm32-for-vscode/@xpack-dev-tools/arm-none-eabi-gcc/10.3.1-2.3.1/.content/arm-none-eabi/include/c++/10.3.1/bits/stl_algo.h **** 
 173:/Users/lawrencestanton/Library/Application Support/Code/User/globalStorage/bmd.stm32-for-vscode/@xpack-dev-tools/arm-none-eabi-gcc/10.3.1-2.3.1/.content/arm-none-eabi/include/c++/10.3.1/bits/stl_algo.h **** 	  while (__predicate(__current, __p))
 174:/Users/lawrencestanton/Library/Application Support/Code/User/globalStorage/bmd.stm32-for-vscode/@xpack-dev-tools/arm-none-eabi-gcc/10.3.1-2.3.1/.content/arm-none-eabi/include/c++/10.3.1/bits/stl_algo.h **** 	    {
 175:/Users/lawrencestanton/Library/Application Support/Code/User/globalStorage/bmd.stm32-for-vscode/@xpack-dev-tools/arm-none-eabi-gcc/10.3.1-2.3.1/.content/arm-none-eabi/include/c++/10.3.1/bits/stl_algo.h **** 	      if (++__p == __last2)
 176:/Users/lawrencestanton/Library/Application Support/Code/User/globalStorage/bmd.stm32-for-vscode/@xpack-dev-tools/arm-none-eabi-gcc/10.3.1-2.3.1/.content/arm-none-eabi/include/c++/10.3.1/bits/stl_algo.h **** 		return __first1;
 177:/Users/lawrencestanton/Library/Application Support/Code/User/globalStorage/bmd.stm32-for-vscode/@xpack-dev-tools/arm-none-eabi-gcc/10.3.1-2.3.1/.content/arm-none-eabi/include/c++/10.3.1/bits/stl_algo.h **** 	      if (++__current == __last1)
 178:/Users/lawrencestanton/Library/Application Support/Code/User/globalStorage/bmd.stm32-for-vscode/@xpack-dev-tools/arm-none-eabi-gcc/10.3.1-2.3.1/.content/arm-none-eabi/include/c++/10.3.1/bits/stl_algo.h **** 		return __last1;
 179:/Users/lawrencestanton/Library/Application Support/Code/User/globalStorage/bmd.stm32-for-vscode/@xpack-dev-tools/arm-none-eabi-gcc/10.3.1-2.3.1/.content/arm-none-eabi/include/c++/10.3.1/bits/stl_algo.h **** 	    }
 180:/Users/lawrencestanton/Library/Application Support/Code/User/globalStorage/bmd.stm32-for-vscode/@xpack-dev-tools/arm-none-eabi-gcc/10.3.1-2.3.1/.content/arm-none-eabi/include/c++/10.3.1/bits/stl_algo.h **** 	  ++__first1;
 181:/Users/lawrencestanton/Library/Application Support/Code/User/globalStorage/bmd.stm32-for-vscode/@xpack-dev-tools/arm-none-eabi-gcc/10.3.1-2.3.1/.content/arm-none-eabi/include/c++/10.3.1/bits/stl_algo.h **** 	}
 182:/Users/lawrencestanton/Library/Application Support/Code/User/globalStorage/bmd.stm32-for-vscode/@xpack-dev-tools/arm-none-eabi-gcc/10.3.1-2.3.1/.content/arm-none-eabi/include/c++/10.3.1/bits/stl_algo.h ****       return __first1;
 183:/Users/lawrencestanton/Library/Application Support/Code/User/globalStorage/bmd.stm32-for-vscode/@xpack-dev-tools/arm-none-eabi-gcc/10.3.1-2.3.1/.content/arm-none-eabi/include/c++/10.3.1/bits/stl_algo.h ****     }
 184:/Users/lawrencestanton/Library/Application Support/Code/User/globalStorage/bmd.stm32-for-vscode/@xpack-dev-tools/arm-none-eabi-gcc/10.3.1-2.3.1/.content/arm-none-eabi/include/c++/10.3.1/bits/stl_algo.h **** 
 185:/Users/lawrencestanton/Library/Application Support/Code/User/globalStorage/bmd.stm32-for-vscode/@xpack-dev-tools/arm-none-eabi-gcc/10.3.1-2.3.1/.content/arm-none-eabi/include/c++/10.3.1/bits/stl_algo.h ****   // search_n
 186:/Users/lawrencestanton/Library/Application Support/Code/User/globalStorage/bmd.stm32-for-vscode/@xpack-dev-tools/arm-none-eabi-gcc/10.3.1-2.3.1/.content/arm-none-eabi/include/c++/10.3.1/bits/stl_algo.h **** 
ARM GAS  /var/folders/bb/dhrb69655gd8t4nf464nxc_00000gn/T//ccyYPrc2.s 			page 55


 187:/Users/lawrencestanton/Library/Application Support/Code/User/globalStorage/bmd.stm32-for-vscode/@xpack-dev-tools/arm-none-eabi-gcc/10.3.1-2.3.1/.content/arm-none-eabi/include/c++/10.3.1/bits/stl_algo.h ****   /**
 188:/Users/lawrencestanton/Library/Application Support/Code/User/globalStorage/bmd.stm32-for-vscode/@xpack-dev-tools/arm-none-eabi-gcc/10.3.1-2.3.1/.content/arm-none-eabi/include/c++/10.3.1/bits/stl_algo.h ****    *  This is an helper function for search_n overloaded for forward iterators.
 189:/Users/lawrencestanton/Library/Application Support/Code/User/globalStorage/bmd.stm32-for-vscode/@xpack-dev-tools/arm-none-eabi-gcc/10.3.1-2.3.1/.content/arm-none-eabi/include/c++/10.3.1/bits/stl_algo.h ****   */
 190:/Users/lawrencestanton/Library/Application Support/Code/User/globalStorage/bmd.stm32-for-vscode/@xpack-dev-tools/arm-none-eabi-gcc/10.3.1-2.3.1/.content/arm-none-eabi/include/c++/10.3.1/bits/stl_algo.h ****   template<typename _ForwardIterator, typename _Integer,
 191:/Users/lawrencestanton/Library/Application Support/Code/User/globalStorage/bmd.stm32-for-vscode/@xpack-dev-tools/arm-none-eabi-gcc/10.3.1-2.3.1/.content/arm-none-eabi/include/c++/10.3.1/bits/stl_algo.h **** 	   typename _UnaryPredicate>
 192:/Users/lawrencestanton/Library/Application Support/Code/User/globalStorage/bmd.stm32-for-vscode/@xpack-dev-tools/arm-none-eabi-gcc/10.3.1-2.3.1/.content/arm-none-eabi/include/c++/10.3.1/bits/stl_algo.h ****     _GLIBCXX20_CONSTEXPR
 193:/Users/lawrencestanton/Library/Application Support/Code/User/globalStorage/bmd.stm32-for-vscode/@xpack-dev-tools/arm-none-eabi-gcc/10.3.1-2.3.1/.content/arm-none-eabi/include/c++/10.3.1/bits/stl_algo.h ****     _ForwardIterator
 194:/Users/lawrencestanton/Library/Application Support/Code/User/globalStorage/bmd.stm32-for-vscode/@xpack-dev-tools/arm-none-eabi-gcc/10.3.1-2.3.1/.content/arm-none-eabi/include/c++/10.3.1/bits/stl_algo.h ****     __search_n_aux(_ForwardIterator __first, _ForwardIterator __last,
 195:/Users/lawrencestanton/Library/Application Support/Code/User/globalStorage/bmd.stm32-for-vscode/@xpack-dev-tools/arm-none-eabi-gcc/10.3.1-2.3.1/.content/arm-none-eabi/include/c++/10.3.1/bits/stl_algo.h **** 		   _Integer __count, _UnaryPredicate __unary_pred,
 196:/Users/lawrencestanton/Library/Application Support/Code/User/globalStorage/bmd.stm32-for-vscode/@xpack-dev-tools/arm-none-eabi-gcc/10.3.1-2.3.1/.content/arm-none-eabi/include/c++/10.3.1/bits/stl_algo.h **** 		   std::forward_iterator_tag)
 197:/Users/lawrencestanton/Library/Application Support/Code/User/globalStorage/bmd.stm32-for-vscode/@xpack-dev-tools/arm-none-eabi-gcc/10.3.1-2.3.1/.content/arm-none-eabi/include/c++/10.3.1/bits/stl_algo.h ****     {
 198:/Users/lawrencestanton/Library/Application Support/Code/User/globalStorage/bmd.stm32-for-vscode/@xpack-dev-tools/arm-none-eabi-gcc/10.3.1-2.3.1/.content/arm-none-eabi/include/c++/10.3.1/bits/stl_algo.h ****       __first = std::__find_if(__first, __last, __unary_pred);
 199:/Users/lawrencestanton/Library/Application Support/Code/User/globalStorage/bmd.stm32-for-vscode/@xpack-dev-tools/arm-none-eabi-gcc/10.3.1-2.3.1/.content/arm-none-eabi/include/c++/10.3.1/bits/stl_algo.h ****       while (__first != __last)
 200:/Users/lawrencestanton/Library/Application Support/Code/User/globalStorage/bmd.stm32-for-vscode/@xpack-dev-tools/arm-none-eabi-gcc/10.3.1-2.3.1/.content/arm-none-eabi/include/c++/10.3.1/bits/stl_algo.h **** 	{
 201:/Users/lawrencestanton/Library/Application Support/Code/User/globalStorage/bmd.stm32-for-vscode/@xpack-dev-tools/arm-none-eabi-gcc/10.3.1-2.3.1/.content/arm-none-eabi/include/c++/10.3.1/bits/stl_algo.h **** 	  typename iterator_traits<_ForwardIterator>::difference_type
 202:/Users/lawrencestanton/Library/Application Support/Code/User/globalStorage/bmd.stm32-for-vscode/@xpack-dev-tools/arm-none-eabi-gcc/10.3.1-2.3.1/.content/arm-none-eabi/include/c++/10.3.1/bits/stl_algo.h **** 	    __n = __count;
 203:/Users/lawrencestanton/Library/Application Support/Code/User/globalStorage/bmd.stm32-for-vscode/@xpack-dev-tools/arm-none-eabi-gcc/10.3.1-2.3.1/.content/arm-none-eabi/include/c++/10.3.1/bits/stl_algo.h **** 	  _ForwardIterator __i = __first;
 204:/Users/lawrencestanton/Library/Application Support/Code/User/globalStorage/bmd.stm32-for-vscode/@xpack-dev-tools/arm-none-eabi-gcc/10.3.1-2.3.1/.content/arm-none-eabi/include/c++/10.3.1/bits/stl_algo.h **** 	  ++__i;
 205:/Users/lawrencestanton/Library/Application Support/Code/User/globalStorage/bmd.stm32-for-vscode/@xpack-dev-tools/arm-none-eabi-gcc/10.3.1-2.3.1/.content/arm-none-eabi/include/c++/10.3.1/bits/stl_algo.h **** 	  while (__i != __last && __n != 1 && __unary_pred(__i))
 206:/Users/lawrencestanton/Library/Application Support/Code/User/globalStorage/bmd.stm32-for-vscode/@xpack-dev-tools/arm-none-eabi-gcc/10.3.1-2.3.1/.content/arm-none-eabi/include/c++/10.3.1/bits/stl_algo.h **** 	    {
 207:/Users/lawrencestanton/Library/Application Support/Code/User/globalStorage/bmd.stm32-for-vscode/@xpack-dev-tools/arm-none-eabi-gcc/10.3.1-2.3.1/.content/arm-none-eabi/include/c++/10.3.1/bits/stl_algo.h **** 	      ++__i;
 208:/Users/lawrencestanton/Library/Application Support/Code/User/globalStorage/bmd.stm32-for-vscode/@xpack-dev-tools/arm-none-eabi-gcc/10.3.1-2.3.1/.content/arm-none-eabi/include/c++/10.3.1/bits/stl_algo.h **** 	      --__n;
 209:/Users/lawrencestanton/Library/Application Support/Code/User/globalStorage/bmd.stm32-for-vscode/@xpack-dev-tools/arm-none-eabi-gcc/10.3.1-2.3.1/.content/arm-none-eabi/include/c++/10.3.1/bits/stl_algo.h **** 	    }
 210:/Users/lawrencestanton/Library/Application Support/Code/User/globalStorage/bmd.stm32-for-vscode/@xpack-dev-tools/arm-none-eabi-gcc/10.3.1-2.3.1/.content/arm-none-eabi/include/c++/10.3.1/bits/stl_algo.h **** 	  if (__n == 1)
 211:/Users/lawrencestanton/Library/Application Support/Code/User/globalStorage/bmd.stm32-for-vscode/@xpack-dev-tools/arm-none-eabi-gcc/10.3.1-2.3.1/.content/arm-none-eabi/include/c++/10.3.1/bits/stl_algo.h **** 	    return __first;
 212:/Users/lawrencestanton/Library/Application Support/Code/User/globalStorage/bmd.stm32-for-vscode/@xpack-dev-tools/arm-none-eabi-gcc/10.3.1-2.3.1/.content/arm-none-eabi/include/c++/10.3.1/bits/stl_algo.h **** 	  if (__i == __last)
 213:/Users/lawrencestanton/Library/Application Support/Code/User/globalStorage/bmd.stm32-for-vscode/@xpack-dev-tools/arm-none-eabi-gcc/10.3.1-2.3.1/.content/arm-none-eabi/include/c++/10.3.1/bits/stl_algo.h **** 	    return __last;
 214:/Users/lawrencestanton/Library/Application Support/Code/User/globalStorage/bmd.stm32-for-vscode/@xpack-dev-tools/arm-none-eabi-gcc/10.3.1-2.3.1/.content/arm-none-eabi/include/c++/10.3.1/bits/stl_algo.h **** 	  __first = std::__find_if(++__i, __last, __unary_pred);
 215:/Users/lawrencestanton/Library/Application Support/Code/User/globalStorage/bmd.stm32-for-vscode/@xpack-dev-tools/arm-none-eabi-gcc/10.3.1-2.3.1/.content/arm-none-eabi/include/c++/10.3.1/bits/stl_algo.h **** 	}
 216:/Users/lawrencestanton/Library/Application Support/Code/User/globalStorage/bmd.stm32-for-vscode/@xpack-dev-tools/arm-none-eabi-gcc/10.3.1-2.3.1/.content/arm-none-eabi/include/c++/10.3.1/bits/stl_algo.h ****       return __last;
 217:/Users/lawrencestanton/Library/Application Support/Code/User/globalStorage/bmd.stm32-for-vscode/@xpack-dev-tools/arm-none-eabi-gcc/10.3.1-2.3.1/.content/arm-none-eabi/include/c++/10.3.1/bits/stl_algo.h ****     }
 218:/Users/lawrencestanton/Library/Application Support/Code/User/globalStorage/bmd.stm32-for-vscode/@xpack-dev-tools/arm-none-eabi-gcc/10.3.1-2.3.1/.content/arm-none-eabi/include/c++/10.3.1/bits/stl_algo.h **** 
 219:/Users/lawrencestanton/Library/Application Support/Code/User/globalStorage/bmd.stm32-for-vscode/@xpack-dev-tools/arm-none-eabi-gcc/10.3.1-2.3.1/.content/arm-none-eabi/include/c++/10.3.1/bits/stl_algo.h ****   /**
 220:/Users/lawrencestanton/Library/Application Support/Code/User/globalStorage/bmd.stm32-for-vscode/@xpack-dev-tools/arm-none-eabi-gcc/10.3.1-2.3.1/.content/arm-none-eabi/include/c++/10.3.1/bits/stl_algo.h ****    *  This is an helper function for search_n overloaded for random access
 221:/Users/lawrencestanton/Library/Application Support/Code/User/globalStorage/bmd.stm32-for-vscode/@xpack-dev-tools/arm-none-eabi-gcc/10.3.1-2.3.1/.content/arm-none-eabi/include/c++/10.3.1/bits/stl_algo.h ****    *  iterators.
 222:/Users/lawrencestanton/Library/Application Support/Code/User/globalStorage/bmd.stm32-for-vscode/@xpack-dev-tools/arm-none-eabi-gcc/10.3.1-2.3.1/.content/arm-none-eabi/include/c++/10.3.1/bits/stl_algo.h ****   */
 223:/Users/lawrencestanton/Library/Application Support/Code/User/globalStorage/bmd.stm32-for-vscode/@xpack-dev-tools/arm-none-eabi-gcc/10.3.1-2.3.1/.content/arm-none-eabi/include/c++/10.3.1/bits/stl_algo.h ****   template<typename _RandomAccessIter, typename _Integer,
 224:/Users/lawrencestanton/Library/Application Support/Code/User/globalStorage/bmd.stm32-for-vscode/@xpack-dev-tools/arm-none-eabi-gcc/10.3.1-2.3.1/.content/arm-none-eabi/include/c++/10.3.1/bits/stl_algo.h **** 	   typename _UnaryPredicate>
 225:/Users/lawrencestanton/Library/Application Support/Code/User/globalStorage/bmd.stm32-for-vscode/@xpack-dev-tools/arm-none-eabi-gcc/10.3.1-2.3.1/.content/arm-none-eabi/include/c++/10.3.1/bits/stl_algo.h ****     _GLIBCXX20_CONSTEXPR
 226:/Users/lawrencestanton/Library/Application Support/Code/User/globalStorage/bmd.stm32-for-vscode/@xpack-dev-tools/arm-none-eabi-gcc/10.3.1-2.3.1/.content/arm-none-eabi/include/c++/10.3.1/bits/stl_algo.h ****     _RandomAccessIter
 227:/Users/lawrencestanton/Library/Application Support/Code/User/globalStorage/bmd.stm32-for-vscode/@xpack-dev-tools/arm-none-eabi-gcc/10.3.1-2.3.1/.content/arm-none-eabi/include/c++/10.3.1/bits/stl_algo.h ****     __search_n_aux(_RandomAccessIter __first, _RandomAccessIter __last,
 228:/Users/lawrencestanton/Library/Application Support/Code/User/globalStorage/bmd.stm32-for-vscode/@xpack-dev-tools/arm-none-eabi-gcc/10.3.1-2.3.1/.content/arm-none-eabi/include/c++/10.3.1/bits/stl_algo.h **** 		   _Integer __count, _UnaryPredicate __unary_pred,
 229:/Users/lawrencestanton/Library/Application Support/Code/User/globalStorage/bmd.stm32-for-vscode/@xpack-dev-tools/arm-none-eabi-gcc/10.3.1-2.3.1/.content/arm-none-eabi/include/c++/10.3.1/bits/stl_algo.h **** 		   std::random_access_iterator_tag)
 230:/Users/lawrencestanton/Library/Application Support/Code/User/globalStorage/bmd.stm32-for-vscode/@xpack-dev-tools/arm-none-eabi-gcc/10.3.1-2.3.1/.content/arm-none-eabi/include/c++/10.3.1/bits/stl_algo.h ****     {
 231:/Users/lawrencestanton/Library/Application Support/Code/User/globalStorage/bmd.stm32-for-vscode/@xpack-dev-tools/arm-none-eabi-gcc/10.3.1-2.3.1/.content/arm-none-eabi/include/c++/10.3.1/bits/stl_algo.h ****       typedef typename std::iterator_traits<_RandomAccessIter>::difference_type
 232:/Users/lawrencestanton/Library/Application Support/Code/User/globalStorage/bmd.stm32-for-vscode/@xpack-dev-tools/arm-none-eabi-gcc/10.3.1-2.3.1/.content/arm-none-eabi/include/c++/10.3.1/bits/stl_algo.h **** 	_DistanceType;
 233:/Users/lawrencestanton/Library/Application Support/Code/User/globalStorage/bmd.stm32-for-vscode/@xpack-dev-tools/arm-none-eabi-gcc/10.3.1-2.3.1/.content/arm-none-eabi/include/c++/10.3.1/bits/stl_algo.h **** 
 234:/Users/lawrencestanton/Library/Application Support/Code/User/globalStorage/bmd.stm32-for-vscode/@xpack-dev-tools/arm-none-eabi-gcc/10.3.1-2.3.1/.content/arm-none-eabi/include/c++/10.3.1/bits/stl_algo.h ****       _DistanceType __tailSize = __last - __first;
 235:/Users/lawrencestanton/Library/Application Support/Code/User/globalStorage/bmd.stm32-for-vscode/@xpack-dev-tools/arm-none-eabi-gcc/10.3.1-2.3.1/.content/arm-none-eabi/include/c++/10.3.1/bits/stl_algo.h ****       _DistanceType __remainder = __count;
 236:/Users/lawrencestanton/Library/Application Support/Code/User/globalStorage/bmd.stm32-for-vscode/@xpack-dev-tools/arm-none-eabi-gcc/10.3.1-2.3.1/.content/arm-none-eabi/include/c++/10.3.1/bits/stl_algo.h **** 
 237:/Users/lawrencestanton/Library/Application Support/Code/User/globalStorage/bmd.stm32-for-vscode/@xpack-dev-tools/arm-none-eabi-gcc/10.3.1-2.3.1/.content/arm-none-eabi/include/c++/10.3.1/bits/stl_algo.h ****       while (__remainder <= __tailSize) // the main loop...
 238:/Users/lawrencestanton/Library/Application Support/Code/User/globalStorage/bmd.stm32-for-vscode/@xpack-dev-tools/arm-none-eabi-gcc/10.3.1-2.3.1/.content/arm-none-eabi/include/c++/10.3.1/bits/stl_algo.h **** 	{
 239:/Users/lawrencestanton/Library/Application Support/Code/User/globalStorage/bmd.stm32-for-vscode/@xpack-dev-tools/arm-none-eabi-gcc/10.3.1-2.3.1/.content/arm-none-eabi/include/c++/10.3.1/bits/stl_algo.h **** 	  __first += __remainder;
 240:/Users/lawrencestanton/Library/Application Support/Code/User/globalStorage/bmd.stm32-for-vscode/@xpack-dev-tools/arm-none-eabi-gcc/10.3.1-2.3.1/.content/arm-none-eabi/include/c++/10.3.1/bits/stl_algo.h **** 	  __tailSize -= __remainder;
 241:/Users/lawrencestanton/Library/Application Support/Code/User/globalStorage/bmd.stm32-for-vscode/@xpack-dev-tools/arm-none-eabi-gcc/10.3.1-2.3.1/.content/arm-none-eabi/include/c++/10.3.1/bits/stl_algo.h **** 	  // __first here is always pointing to one past the last element of
 242:/Users/lawrencestanton/Library/Application Support/Code/User/globalStorage/bmd.stm32-for-vscode/@xpack-dev-tools/arm-none-eabi-gcc/10.3.1-2.3.1/.content/arm-none-eabi/include/c++/10.3.1/bits/stl_algo.h **** 	  // next possible match.
 243:/Users/lawrencestanton/Library/Application Support/Code/User/globalStorage/bmd.stm32-for-vscode/@xpack-dev-tools/arm-none-eabi-gcc/10.3.1-2.3.1/.content/arm-none-eabi/include/c++/10.3.1/bits/stl_algo.h **** 	  _RandomAccessIter __backTrack = __first; 
ARM GAS  /var/folders/bb/dhrb69655gd8t4nf464nxc_00000gn/T//ccyYPrc2.s 			page 56


 244:/Users/lawrencestanton/Library/Application Support/Code/User/globalStorage/bmd.stm32-for-vscode/@xpack-dev-tools/arm-none-eabi-gcc/10.3.1-2.3.1/.content/arm-none-eabi/include/c++/10.3.1/bits/stl_algo.h **** 	  while (__unary_pred(--__backTrack))
 245:/Users/lawrencestanton/Library/Application Support/Code/User/globalStorage/bmd.stm32-for-vscode/@xpack-dev-tools/arm-none-eabi-gcc/10.3.1-2.3.1/.content/arm-none-eabi/include/c++/10.3.1/bits/stl_algo.h **** 	    {
 246:/Users/lawrencestanton/Library/Application Support/Code/User/globalStorage/bmd.stm32-for-vscode/@xpack-dev-tools/arm-none-eabi-gcc/10.3.1-2.3.1/.content/arm-none-eabi/include/c++/10.3.1/bits/stl_algo.h **** 	      if (--__remainder == 0)
 247:/Users/lawrencestanton/Library/Application Support/Code/User/globalStorage/bmd.stm32-for-vscode/@xpack-dev-tools/arm-none-eabi-gcc/10.3.1-2.3.1/.content/arm-none-eabi/include/c++/10.3.1/bits/stl_algo.h **** 		return (__first - __count); // Success
 248:/Users/lawrencestanton/Library/Application Support/Code/User/globalStorage/bmd.stm32-for-vscode/@xpack-dev-tools/arm-none-eabi-gcc/10.3.1-2.3.1/.content/arm-none-eabi/include/c++/10.3.1/bits/stl_algo.h **** 	    }
 249:/Users/lawrencestanton/Library/Application Support/Code/User/globalStorage/bmd.stm32-for-vscode/@xpack-dev-tools/arm-none-eabi-gcc/10.3.1-2.3.1/.content/arm-none-eabi/include/c++/10.3.1/bits/stl_algo.h **** 	  __remainder = __count + 1 - (__first - __backTrack);
 250:/Users/lawrencestanton/Library/Application Support/Code/User/globalStorage/bmd.stm32-for-vscode/@xpack-dev-tools/arm-none-eabi-gcc/10.3.1-2.3.1/.content/arm-none-eabi/include/c++/10.3.1/bits/stl_algo.h **** 	}
 251:/Users/lawrencestanton/Library/Application Support/Code/User/globalStorage/bmd.stm32-for-vscode/@xpack-dev-tools/arm-none-eabi-gcc/10.3.1-2.3.1/.content/arm-none-eabi/include/c++/10.3.1/bits/stl_algo.h ****       return __last; // Failure
 252:/Users/lawrencestanton/Library/Application Support/Code/User/globalStorage/bmd.stm32-for-vscode/@xpack-dev-tools/arm-none-eabi-gcc/10.3.1-2.3.1/.content/arm-none-eabi/include/c++/10.3.1/bits/stl_algo.h ****     }
 253:/Users/lawrencestanton/Library/Application Support/Code/User/globalStorage/bmd.stm32-for-vscode/@xpack-dev-tools/arm-none-eabi-gcc/10.3.1-2.3.1/.content/arm-none-eabi/include/c++/10.3.1/bits/stl_algo.h **** 
 254:/Users/lawrencestanton/Library/Application Support/Code/User/globalStorage/bmd.stm32-for-vscode/@xpack-dev-tools/arm-none-eabi-gcc/10.3.1-2.3.1/.content/arm-none-eabi/include/c++/10.3.1/bits/stl_algo.h ****   template<typename _ForwardIterator, typename _Integer,
 255:/Users/lawrencestanton/Library/Application Support/Code/User/globalStorage/bmd.stm32-for-vscode/@xpack-dev-tools/arm-none-eabi-gcc/10.3.1-2.3.1/.content/arm-none-eabi/include/c++/10.3.1/bits/stl_algo.h **** 	   typename _UnaryPredicate>
 256:/Users/lawrencestanton/Library/Application Support/Code/User/globalStorage/bmd.stm32-for-vscode/@xpack-dev-tools/arm-none-eabi-gcc/10.3.1-2.3.1/.content/arm-none-eabi/include/c++/10.3.1/bits/stl_algo.h ****     _GLIBCXX20_CONSTEXPR
 257:/Users/lawrencestanton/Library/Application Support/Code/User/globalStorage/bmd.stm32-for-vscode/@xpack-dev-tools/arm-none-eabi-gcc/10.3.1-2.3.1/.content/arm-none-eabi/include/c++/10.3.1/bits/stl_algo.h ****     _ForwardIterator
 258:/Users/lawrencestanton/Library/Application Support/Code/User/globalStorage/bmd.stm32-for-vscode/@xpack-dev-tools/arm-none-eabi-gcc/10.3.1-2.3.1/.content/arm-none-eabi/include/c++/10.3.1/bits/stl_algo.h ****     __search_n(_ForwardIterator __first, _ForwardIterator __last,
 259:/Users/lawrencestanton/Library/Application Support/Code/User/globalStorage/bmd.stm32-for-vscode/@xpack-dev-tools/arm-none-eabi-gcc/10.3.1-2.3.1/.content/arm-none-eabi/include/c++/10.3.1/bits/stl_algo.h **** 	       _Integer __count,
 260:/Users/lawrencestanton/Library/Application Support/Code/User/globalStorage/bmd.stm32-for-vscode/@xpack-dev-tools/arm-none-eabi-gcc/10.3.1-2.3.1/.content/arm-none-eabi/include/c++/10.3.1/bits/stl_algo.h **** 	       _UnaryPredicate __unary_pred)
 261:/Users/lawrencestanton/Library/Application Support/Code/User/globalStorage/bmd.stm32-for-vscode/@xpack-dev-tools/arm-none-eabi-gcc/10.3.1-2.3.1/.content/arm-none-eabi/include/c++/10.3.1/bits/stl_algo.h ****     {
 262:/Users/lawrencestanton/Library/Application Support/Code/User/globalStorage/bmd.stm32-for-vscode/@xpack-dev-tools/arm-none-eabi-gcc/10.3.1-2.3.1/.content/arm-none-eabi/include/c++/10.3.1/bits/stl_algo.h ****       if (__count <= 0)
 263:/Users/lawrencestanton/Library/Application Support/Code/User/globalStorage/bmd.stm32-for-vscode/@xpack-dev-tools/arm-none-eabi-gcc/10.3.1-2.3.1/.content/arm-none-eabi/include/c++/10.3.1/bits/stl_algo.h **** 	return __first;
 264:/Users/lawrencestanton/Library/Application Support/Code/User/globalStorage/bmd.stm32-for-vscode/@xpack-dev-tools/arm-none-eabi-gcc/10.3.1-2.3.1/.content/arm-none-eabi/include/c++/10.3.1/bits/stl_algo.h **** 
 265:/Users/lawrencestanton/Library/Application Support/Code/User/globalStorage/bmd.stm32-for-vscode/@xpack-dev-tools/arm-none-eabi-gcc/10.3.1-2.3.1/.content/arm-none-eabi/include/c++/10.3.1/bits/stl_algo.h ****       if (__count == 1)
 266:/Users/lawrencestanton/Library/Application Support/Code/User/globalStorage/bmd.stm32-for-vscode/@xpack-dev-tools/arm-none-eabi-gcc/10.3.1-2.3.1/.content/arm-none-eabi/include/c++/10.3.1/bits/stl_algo.h **** 	return std::__find_if(__first, __last, __unary_pred);
 267:/Users/lawrencestanton/Library/Application Support/Code/User/globalStorage/bmd.stm32-for-vscode/@xpack-dev-tools/arm-none-eabi-gcc/10.3.1-2.3.1/.content/arm-none-eabi/include/c++/10.3.1/bits/stl_algo.h **** 
 268:/Users/lawrencestanton/Library/Application Support/Code/User/globalStorage/bmd.stm32-for-vscode/@xpack-dev-tools/arm-none-eabi-gcc/10.3.1-2.3.1/.content/arm-none-eabi/include/c++/10.3.1/bits/stl_algo.h ****       return std::__search_n_aux(__first, __last, __count, __unary_pred,
 269:/Users/lawrencestanton/Library/Application Support/Code/User/globalStorage/bmd.stm32-for-vscode/@xpack-dev-tools/arm-none-eabi-gcc/10.3.1-2.3.1/.content/arm-none-eabi/include/c++/10.3.1/bits/stl_algo.h **** 				 std::__iterator_category(__first));
 270:/Users/lawrencestanton/Library/Application Support/Code/User/globalStorage/bmd.stm32-for-vscode/@xpack-dev-tools/arm-none-eabi-gcc/10.3.1-2.3.1/.content/arm-none-eabi/include/c++/10.3.1/bits/stl_algo.h ****     }
 271:/Users/lawrencestanton/Library/Application Support/Code/User/globalStorage/bmd.stm32-for-vscode/@xpack-dev-tools/arm-none-eabi-gcc/10.3.1-2.3.1/.content/arm-none-eabi/include/c++/10.3.1/bits/stl_algo.h **** 
 272:/Users/lawrencestanton/Library/Application Support/Code/User/globalStorage/bmd.stm32-for-vscode/@xpack-dev-tools/arm-none-eabi-gcc/10.3.1-2.3.1/.content/arm-none-eabi/include/c++/10.3.1/bits/stl_algo.h ****   // find_end for forward iterators.
 273:/Users/lawrencestanton/Library/Application Support/Code/User/globalStorage/bmd.stm32-for-vscode/@xpack-dev-tools/arm-none-eabi-gcc/10.3.1-2.3.1/.content/arm-none-eabi/include/c++/10.3.1/bits/stl_algo.h ****   template<typename _ForwardIterator1, typename _ForwardIterator2,
 274:/Users/lawrencestanton/Library/Application Support/Code/User/globalStorage/bmd.stm32-for-vscode/@xpack-dev-tools/arm-none-eabi-gcc/10.3.1-2.3.1/.content/arm-none-eabi/include/c++/10.3.1/bits/stl_algo.h **** 	   typename _BinaryPredicate>
 275:/Users/lawrencestanton/Library/Application Support/Code/User/globalStorage/bmd.stm32-for-vscode/@xpack-dev-tools/arm-none-eabi-gcc/10.3.1-2.3.1/.content/arm-none-eabi/include/c++/10.3.1/bits/stl_algo.h ****     _GLIBCXX20_CONSTEXPR
