ARM GAS  /var/folders/bb/dhrb69655gd8t4nf464nxc_00000gn/T//cc50CdYq.s 			page 1


   1              		.cpu cortex-m4
   2              		.arch armv7e-m
   3              		.fpu fpv4-sp-d16
   4              		.eabi_attribute 27, 1
   5              		.eabi_attribute 28, 1
   6              		.eabi_attribute 20, 1
   7              		.eabi_attribute 21, 1
   8              		.eabi_attribute 23, 3
   9              		.eabi_attribute 24, 1
  10              		.eabi_attribute 25, 1
  11              		.eabi_attribute 26, 1
  12              		.eabi_attribute 30, 6
  13              		.eabi_attribute 34, 1
  14              		.eabi_attribute 18, 4
  15              		.file	"StaticString.cpp"
  16              		.text
  17              	.Ltext0:
  18              		.cfi_sections	.debug_frame
  19              		.section	.rodata._ZStL19piecewise_construct,"a"
  20              		.align	2
  23              	_ZStL19piecewise_construct:
  24 0000 00       		.space	1
  25              		.section	.text._ZN9__gnu_cxx5__ops20__iter_equal_to_iterEv,"axG",%progbits,_ZN9__gnu_cxx5__ops20__
  26              		.align	1
  27              		.weak	_ZN9__gnu_cxx5__ops20__iter_equal_to_iterEv
  28              		.syntax unified
  29              		.thumb
  30              		.thumb_func
  32              	_ZN9__gnu_cxx5__ops20__iter_equal_to_iterEv:
  33              		.fnstart
  34              	.LFB245:
  35              		.file 1 "/Users/lawrencestanton/Library/Application Support/Code/User/globalStorage/bmd.stm32-for-
   1:/Users/lawrencestanton/Library/Application Support/Code/User/globalStorage/bmd.stm32-for-vscode/@xpack-dev-tools/arm-none-eabi-gcc/10.3.1-2.3.1/.content/arm-none-eabi/include/c++/10.3.1/bits/predefined_ops.h **** // Default predicates for internal use -*- C++ -*-
   2:/Users/lawrencestanton/Library/Application Support/Code/User/globalStorage/bmd.stm32-for-vscode/@xpack-dev-tools/arm-none-eabi-gcc/10.3.1-2.3.1/.content/arm-none-eabi/include/c++/10.3.1/bits/predefined_ops.h **** 
   3:/Users/lawrencestanton/Library/Application Support/Code/User/globalStorage/bmd.stm32-for-vscode/@xpack-dev-tools/arm-none-eabi-gcc/10.3.1-2.3.1/.content/arm-none-eabi/include/c++/10.3.1/bits/predefined_ops.h **** // Copyright (C) 2013-2020 Free Software Foundation, Inc.
   4:/Users/lawrencestanton/Library/Application Support/Code/User/globalStorage/bmd.stm32-for-vscode/@xpack-dev-tools/arm-none-eabi-gcc/10.3.1-2.3.1/.content/arm-none-eabi/include/c++/10.3.1/bits/predefined_ops.h **** //
   5:/Users/lawrencestanton/Library/Application Support/Code/User/globalStorage/bmd.stm32-for-vscode/@xpack-dev-tools/arm-none-eabi-gcc/10.3.1-2.3.1/.content/arm-none-eabi/include/c++/10.3.1/bits/predefined_ops.h **** // This file is part of the GNU ISO C++ Library.  This library is free
   6:/Users/lawrencestanton/Library/Application Support/Code/User/globalStorage/bmd.stm32-for-vscode/@xpack-dev-tools/arm-none-eabi-gcc/10.3.1-2.3.1/.content/arm-none-eabi/include/c++/10.3.1/bits/predefined_ops.h **** // software; you can redistribute it and/or modify it under the
   7:/Users/lawrencestanton/Library/Application Support/Code/User/globalStorage/bmd.stm32-for-vscode/@xpack-dev-tools/arm-none-eabi-gcc/10.3.1-2.3.1/.content/arm-none-eabi/include/c++/10.3.1/bits/predefined_ops.h **** // terms of the GNU General Public License as published by the
   8:/Users/lawrencestanton/Library/Application Support/Code/User/globalStorage/bmd.stm32-for-vscode/@xpack-dev-tools/arm-none-eabi-gcc/10.3.1-2.3.1/.content/arm-none-eabi/include/c++/10.3.1/bits/predefined_ops.h **** // Free Software Foundation; either version 3, or (at your option)
   9:/Users/lawrencestanton/Library/Application Support/Code/User/globalStorage/bmd.stm32-for-vscode/@xpack-dev-tools/arm-none-eabi-gcc/10.3.1-2.3.1/.content/arm-none-eabi/include/c++/10.3.1/bits/predefined_ops.h **** // any later version.
  10:/Users/lawrencestanton/Library/Application Support/Code/User/globalStorage/bmd.stm32-for-vscode/@xpack-dev-tools/arm-none-eabi-gcc/10.3.1-2.3.1/.content/arm-none-eabi/include/c++/10.3.1/bits/predefined_ops.h **** 
  11:/Users/lawrencestanton/Library/Application Support/Code/User/globalStorage/bmd.stm32-for-vscode/@xpack-dev-tools/arm-none-eabi-gcc/10.3.1-2.3.1/.content/arm-none-eabi/include/c++/10.3.1/bits/predefined_ops.h **** // This library is distributed in the hope that it will be useful,
  12:/Users/lawrencestanton/Library/Application Support/Code/User/globalStorage/bmd.stm32-for-vscode/@xpack-dev-tools/arm-none-eabi-gcc/10.3.1-2.3.1/.content/arm-none-eabi/include/c++/10.3.1/bits/predefined_ops.h **** // but WITHOUT ANY WARRANTY; without even the implied warranty of
  13:/Users/lawrencestanton/Library/Application Support/Code/User/globalStorage/bmd.stm32-for-vscode/@xpack-dev-tools/arm-none-eabi-gcc/10.3.1-2.3.1/.content/arm-none-eabi/include/c++/10.3.1/bits/predefined_ops.h **** // MERCHANTABILITY or FITNESS FOR A PARTICULAR PURPOSE.  See the
  14:/Users/lawrencestanton/Library/Application Support/Code/User/globalStorage/bmd.stm32-for-vscode/@xpack-dev-tools/arm-none-eabi-gcc/10.3.1-2.3.1/.content/arm-none-eabi/include/c++/10.3.1/bits/predefined_ops.h **** // GNU General Public License for more details.
  15:/Users/lawrencestanton/Library/Application Support/Code/User/globalStorage/bmd.stm32-for-vscode/@xpack-dev-tools/arm-none-eabi-gcc/10.3.1-2.3.1/.content/arm-none-eabi/include/c++/10.3.1/bits/predefined_ops.h **** 
  16:/Users/lawrencestanton/Library/Application Support/Code/User/globalStorage/bmd.stm32-for-vscode/@xpack-dev-tools/arm-none-eabi-gcc/10.3.1-2.3.1/.content/arm-none-eabi/include/c++/10.3.1/bits/predefined_ops.h **** // Under Section 7 of GPL version 3, you are granted additional
  17:/Users/lawrencestanton/Library/Application Support/Code/User/globalStorage/bmd.stm32-for-vscode/@xpack-dev-tools/arm-none-eabi-gcc/10.3.1-2.3.1/.content/arm-none-eabi/include/c++/10.3.1/bits/predefined_ops.h **** // permissions described in the GCC Runtime Library Exception, version
  18:/Users/lawrencestanton/Library/Application Support/Code/User/globalStorage/bmd.stm32-for-vscode/@xpack-dev-tools/arm-none-eabi-gcc/10.3.1-2.3.1/.content/arm-none-eabi/include/c++/10.3.1/bits/predefined_ops.h **** // 3.1, as published by the Free Software Foundation.
  19:/Users/lawrencestanton/Library/Application Support/Code/User/globalStorage/bmd.stm32-for-vscode/@xpack-dev-tools/arm-none-eabi-gcc/10.3.1-2.3.1/.content/arm-none-eabi/include/c++/10.3.1/bits/predefined_ops.h **** 
  20:/Users/lawrencestanton/Library/Application Support/Code/User/globalStorage/bmd.stm32-for-vscode/@xpack-dev-tools/arm-none-eabi-gcc/10.3.1-2.3.1/.content/arm-none-eabi/include/c++/10.3.1/bits/predefined_ops.h **** // You should have received a copy of the GNU General Public License and
  21:/Users/lawrencestanton/Library/Application Support/Code/User/globalStorage/bmd.stm32-for-vscode/@xpack-dev-tools/arm-none-eabi-gcc/10.3.1-2.3.1/.content/arm-none-eabi/include/c++/10.3.1/bits/predefined_ops.h **** // a copy of the GCC Runtime Library Exception along with this program;
  22:/Users/lawrencestanton/Library/Application Support/Code/User/globalStorage/bmd.stm32-for-vscode/@xpack-dev-tools/arm-none-eabi-gcc/10.3.1-2.3.1/.content/arm-none-eabi/include/c++/10.3.1/bits/predefined_ops.h **** // see the files COPYING3 and COPYING.RUNTIME respectively.  If not, see
  23:/Users/lawrencestanton/Library/Application Support/Code/User/globalStorage/bmd.stm32-for-vscode/@xpack-dev-tools/arm-none-eabi-gcc/10.3.1-2.3.1/.content/arm-none-eabi/include/c++/10.3.1/bits/predefined_ops.h **** // <http://www.gnu.org/licenses/>.
  24:/Users/lawrencestanton/Library/Application Support/Code/User/globalStorage/bmd.stm32-for-vscode/@xpack-dev-tools/arm-none-eabi-gcc/10.3.1-2.3.1/.content/arm-none-eabi/include/c++/10.3.1/bits/predefined_ops.h **** 
  25:/Users/lawrencestanton/Library/Application Support/Code/User/globalStorage/bmd.stm32-for-vscode/@xpack-dev-tools/arm-none-eabi-gcc/10.3.1-2.3.1/.content/arm-none-eabi/include/c++/10.3.1/bits/predefined_ops.h **** /** @file predefined_ops.h
ARM GAS  /var/folders/bb/dhrb69655gd8t4nf464nxc_00000gn/T//cc50CdYq.s 			page 2


  26:/Users/lawrencestanton/Library/Application Support/Code/User/globalStorage/bmd.stm32-for-vscode/@xpack-dev-tools/arm-none-eabi-gcc/10.3.1-2.3.1/.content/arm-none-eabi/include/c++/10.3.1/bits/predefined_ops.h ****  *  This is an internal header file, included by other library headers.
  27:/Users/lawrencestanton/Library/Application Support/Code/User/globalStorage/bmd.stm32-for-vscode/@xpack-dev-tools/arm-none-eabi-gcc/10.3.1-2.3.1/.content/arm-none-eabi/include/c++/10.3.1/bits/predefined_ops.h ****  *  You should not attempt to use it directly. @headername{algorithm}
  28:/Users/lawrencestanton/Library/Application Support/Code/User/globalStorage/bmd.stm32-for-vscode/@xpack-dev-tools/arm-none-eabi-gcc/10.3.1-2.3.1/.content/arm-none-eabi/include/c++/10.3.1/bits/predefined_ops.h ****  */
  29:/Users/lawrencestanton/Library/Application Support/Code/User/globalStorage/bmd.stm32-for-vscode/@xpack-dev-tools/arm-none-eabi-gcc/10.3.1-2.3.1/.content/arm-none-eabi/include/c++/10.3.1/bits/predefined_ops.h **** 
  30:/Users/lawrencestanton/Library/Application Support/Code/User/globalStorage/bmd.stm32-for-vscode/@xpack-dev-tools/arm-none-eabi-gcc/10.3.1-2.3.1/.content/arm-none-eabi/include/c++/10.3.1/bits/predefined_ops.h **** #ifndef _GLIBCXX_PREDEFINED_OPS_H
  31:/Users/lawrencestanton/Library/Application Support/Code/User/globalStorage/bmd.stm32-for-vscode/@xpack-dev-tools/arm-none-eabi-gcc/10.3.1-2.3.1/.content/arm-none-eabi/include/c++/10.3.1/bits/predefined_ops.h **** #define _GLIBCXX_PREDEFINED_OPS_H	1
  32:/Users/lawrencestanton/Library/Application Support/Code/User/globalStorage/bmd.stm32-for-vscode/@xpack-dev-tools/arm-none-eabi-gcc/10.3.1-2.3.1/.content/arm-none-eabi/include/c++/10.3.1/bits/predefined_ops.h **** 
  33:/Users/lawrencestanton/Library/Application Support/Code/User/globalStorage/bmd.stm32-for-vscode/@xpack-dev-tools/arm-none-eabi-gcc/10.3.1-2.3.1/.content/arm-none-eabi/include/c++/10.3.1/bits/predefined_ops.h **** namespace __gnu_cxx
  34:/Users/lawrencestanton/Library/Application Support/Code/User/globalStorage/bmd.stm32-for-vscode/@xpack-dev-tools/arm-none-eabi-gcc/10.3.1-2.3.1/.content/arm-none-eabi/include/c++/10.3.1/bits/predefined_ops.h **** {
  35:/Users/lawrencestanton/Library/Application Support/Code/User/globalStorage/bmd.stm32-for-vscode/@xpack-dev-tools/arm-none-eabi-gcc/10.3.1-2.3.1/.content/arm-none-eabi/include/c++/10.3.1/bits/predefined_ops.h **** namespace __ops
  36:/Users/lawrencestanton/Library/Application Support/Code/User/globalStorage/bmd.stm32-for-vscode/@xpack-dev-tools/arm-none-eabi-gcc/10.3.1-2.3.1/.content/arm-none-eabi/include/c++/10.3.1/bits/predefined_ops.h **** {
  37:/Users/lawrencestanton/Library/Application Support/Code/User/globalStorage/bmd.stm32-for-vscode/@xpack-dev-tools/arm-none-eabi-gcc/10.3.1-2.3.1/.content/arm-none-eabi/include/c++/10.3.1/bits/predefined_ops.h ****   struct _Iter_less_iter
  38:/Users/lawrencestanton/Library/Application Support/Code/User/globalStorage/bmd.stm32-for-vscode/@xpack-dev-tools/arm-none-eabi-gcc/10.3.1-2.3.1/.content/arm-none-eabi/include/c++/10.3.1/bits/predefined_ops.h ****   {
  39:/Users/lawrencestanton/Library/Application Support/Code/User/globalStorage/bmd.stm32-for-vscode/@xpack-dev-tools/arm-none-eabi-gcc/10.3.1-2.3.1/.content/arm-none-eabi/include/c++/10.3.1/bits/predefined_ops.h ****     template<typename _Iterator1, typename _Iterator2>
  40:/Users/lawrencestanton/Library/Application Support/Code/User/globalStorage/bmd.stm32-for-vscode/@xpack-dev-tools/arm-none-eabi-gcc/10.3.1-2.3.1/.content/arm-none-eabi/include/c++/10.3.1/bits/predefined_ops.h ****       _GLIBCXX14_CONSTEXPR
  41:/Users/lawrencestanton/Library/Application Support/Code/User/globalStorage/bmd.stm32-for-vscode/@xpack-dev-tools/arm-none-eabi-gcc/10.3.1-2.3.1/.content/arm-none-eabi/include/c++/10.3.1/bits/predefined_ops.h ****       bool
  42:/Users/lawrencestanton/Library/Application Support/Code/User/globalStorage/bmd.stm32-for-vscode/@xpack-dev-tools/arm-none-eabi-gcc/10.3.1-2.3.1/.content/arm-none-eabi/include/c++/10.3.1/bits/predefined_ops.h ****       operator()(_Iterator1 __it1, _Iterator2 __it2) const
  43:/Users/lawrencestanton/Library/Application Support/Code/User/globalStorage/bmd.stm32-for-vscode/@xpack-dev-tools/arm-none-eabi-gcc/10.3.1-2.3.1/.content/arm-none-eabi/include/c++/10.3.1/bits/predefined_ops.h ****       { return *__it1 < *__it2; }
  44:/Users/lawrencestanton/Library/Application Support/Code/User/globalStorage/bmd.stm32-for-vscode/@xpack-dev-tools/arm-none-eabi-gcc/10.3.1-2.3.1/.content/arm-none-eabi/include/c++/10.3.1/bits/predefined_ops.h ****   };
  45:/Users/lawrencestanton/Library/Application Support/Code/User/globalStorage/bmd.stm32-for-vscode/@xpack-dev-tools/arm-none-eabi-gcc/10.3.1-2.3.1/.content/arm-none-eabi/include/c++/10.3.1/bits/predefined_ops.h **** 
  46:/Users/lawrencestanton/Library/Application Support/Code/User/globalStorage/bmd.stm32-for-vscode/@xpack-dev-tools/arm-none-eabi-gcc/10.3.1-2.3.1/.content/arm-none-eabi/include/c++/10.3.1/bits/predefined_ops.h ****   _GLIBCXX14_CONSTEXPR
  47:/Users/lawrencestanton/Library/Application Support/Code/User/globalStorage/bmd.stm32-for-vscode/@xpack-dev-tools/arm-none-eabi-gcc/10.3.1-2.3.1/.content/arm-none-eabi/include/c++/10.3.1/bits/predefined_ops.h ****   inline _Iter_less_iter
  48:/Users/lawrencestanton/Library/Application Support/Code/User/globalStorage/bmd.stm32-for-vscode/@xpack-dev-tools/arm-none-eabi-gcc/10.3.1-2.3.1/.content/arm-none-eabi/include/c++/10.3.1/bits/predefined_ops.h ****   __iter_less_iter()
  49:/Users/lawrencestanton/Library/Application Support/Code/User/globalStorage/bmd.stm32-for-vscode/@xpack-dev-tools/arm-none-eabi-gcc/10.3.1-2.3.1/.content/arm-none-eabi/include/c++/10.3.1/bits/predefined_ops.h ****   { return _Iter_less_iter(); }
  50:/Users/lawrencestanton/Library/Application Support/Code/User/globalStorage/bmd.stm32-for-vscode/@xpack-dev-tools/arm-none-eabi-gcc/10.3.1-2.3.1/.content/arm-none-eabi/include/c++/10.3.1/bits/predefined_ops.h **** 
  51:/Users/lawrencestanton/Library/Application Support/Code/User/globalStorage/bmd.stm32-for-vscode/@xpack-dev-tools/arm-none-eabi-gcc/10.3.1-2.3.1/.content/arm-none-eabi/include/c++/10.3.1/bits/predefined_ops.h ****   struct _Iter_less_val
  52:/Users/lawrencestanton/Library/Application Support/Code/User/globalStorage/bmd.stm32-for-vscode/@xpack-dev-tools/arm-none-eabi-gcc/10.3.1-2.3.1/.content/arm-none-eabi/include/c++/10.3.1/bits/predefined_ops.h ****   {
  53:/Users/lawrencestanton/Library/Application Support/Code/User/globalStorage/bmd.stm32-for-vscode/@xpack-dev-tools/arm-none-eabi-gcc/10.3.1-2.3.1/.content/arm-none-eabi/include/c++/10.3.1/bits/predefined_ops.h **** #if __cplusplus >= 201103L
  54:/Users/lawrencestanton/Library/Application Support/Code/User/globalStorage/bmd.stm32-for-vscode/@xpack-dev-tools/arm-none-eabi-gcc/10.3.1-2.3.1/.content/arm-none-eabi/include/c++/10.3.1/bits/predefined_ops.h ****     constexpr _Iter_less_val() = default;
  55:/Users/lawrencestanton/Library/Application Support/Code/User/globalStorage/bmd.stm32-for-vscode/@xpack-dev-tools/arm-none-eabi-gcc/10.3.1-2.3.1/.content/arm-none-eabi/include/c++/10.3.1/bits/predefined_ops.h **** #else
  56:/Users/lawrencestanton/Library/Application Support/Code/User/globalStorage/bmd.stm32-for-vscode/@xpack-dev-tools/arm-none-eabi-gcc/10.3.1-2.3.1/.content/arm-none-eabi/include/c++/10.3.1/bits/predefined_ops.h ****     _Iter_less_val() { }
  57:/Users/lawrencestanton/Library/Application Support/Code/User/globalStorage/bmd.stm32-for-vscode/@xpack-dev-tools/arm-none-eabi-gcc/10.3.1-2.3.1/.content/arm-none-eabi/include/c++/10.3.1/bits/predefined_ops.h **** #endif
  58:/Users/lawrencestanton/Library/Application Support/Code/User/globalStorage/bmd.stm32-for-vscode/@xpack-dev-tools/arm-none-eabi-gcc/10.3.1-2.3.1/.content/arm-none-eabi/include/c++/10.3.1/bits/predefined_ops.h **** 
  59:/Users/lawrencestanton/Library/Application Support/Code/User/globalStorage/bmd.stm32-for-vscode/@xpack-dev-tools/arm-none-eabi-gcc/10.3.1-2.3.1/.content/arm-none-eabi/include/c++/10.3.1/bits/predefined_ops.h ****     _GLIBCXX20_CONSTEXPR
  60:/Users/lawrencestanton/Library/Application Support/Code/User/globalStorage/bmd.stm32-for-vscode/@xpack-dev-tools/arm-none-eabi-gcc/10.3.1-2.3.1/.content/arm-none-eabi/include/c++/10.3.1/bits/predefined_ops.h ****     explicit
  61:/Users/lawrencestanton/Library/Application Support/Code/User/globalStorage/bmd.stm32-for-vscode/@xpack-dev-tools/arm-none-eabi-gcc/10.3.1-2.3.1/.content/arm-none-eabi/include/c++/10.3.1/bits/predefined_ops.h ****     _Iter_less_val(_Iter_less_iter) { }
  62:/Users/lawrencestanton/Library/Application Support/Code/User/globalStorage/bmd.stm32-for-vscode/@xpack-dev-tools/arm-none-eabi-gcc/10.3.1-2.3.1/.content/arm-none-eabi/include/c++/10.3.1/bits/predefined_ops.h **** 
  63:/Users/lawrencestanton/Library/Application Support/Code/User/globalStorage/bmd.stm32-for-vscode/@xpack-dev-tools/arm-none-eabi-gcc/10.3.1-2.3.1/.content/arm-none-eabi/include/c++/10.3.1/bits/predefined_ops.h ****     template<typename _Iterator, typename _Value>
  64:/Users/lawrencestanton/Library/Application Support/Code/User/globalStorage/bmd.stm32-for-vscode/@xpack-dev-tools/arm-none-eabi-gcc/10.3.1-2.3.1/.content/arm-none-eabi/include/c++/10.3.1/bits/predefined_ops.h ****       _GLIBCXX20_CONSTEXPR
  65:/Users/lawrencestanton/Library/Application Support/Code/User/globalStorage/bmd.stm32-for-vscode/@xpack-dev-tools/arm-none-eabi-gcc/10.3.1-2.3.1/.content/arm-none-eabi/include/c++/10.3.1/bits/predefined_ops.h ****       bool
  66:/Users/lawrencestanton/Library/Application Support/Code/User/globalStorage/bmd.stm32-for-vscode/@xpack-dev-tools/arm-none-eabi-gcc/10.3.1-2.3.1/.content/arm-none-eabi/include/c++/10.3.1/bits/predefined_ops.h ****       operator()(_Iterator __it, _Value& __val) const
  67:/Users/lawrencestanton/Library/Application Support/Code/User/globalStorage/bmd.stm32-for-vscode/@xpack-dev-tools/arm-none-eabi-gcc/10.3.1-2.3.1/.content/arm-none-eabi/include/c++/10.3.1/bits/predefined_ops.h ****       { return *__it < __val; }
  68:/Users/lawrencestanton/Library/Application Support/Code/User/globalStorage/bmd.stm32-for-vscode/@xpack-dev-tools/arm-none-eabi-gcc/10.3.1-2.3.1/.content/arm-none-eabi/include/c++/10.3.1/bits/predefined_ops.h ****   };
  69:/Users/lawrencestanton/Library/Application Support/Code/User/globalStorage/bmd.stm32-for-vscode/@xpack-dev-tools/arm-none-eabi-gcc/10.3.1-2.3.1/.content/arm-none-eabi/include/c++/10.3.1/bits/predefined_ops.h **** 
  70:/Users/lawrencestanton/Library/Application Support/Code/User/globalStorage/bmd.stm32-for-vscode/@xpack-dev-tools/arm-none-eabi-gcc/10.3.1-2.3.1/.content/arm-none-eabi/include/c++/10.3.1/bits/predefined_ops.h ****   _GLIBCXX20_CONSTEXPR
  71:/Users/lawrencestanton/Library/Application Support/Code/User/globalStorage/bmd.stm32-for-vscode/@xpack-dev-tools/arm-none-eabi-gcc/10.3.1-2.3.1/.content/arm-none-eabi/include/c++/10.3.1/bits/predefined_ops.h ****   inline _Iter_less_val
  72:/Users/lawrencestanton/Library/Application Support/Code/User/globalStorage/bmd.stm32-for-vscode/@xpack-dev-tools/arm-none-eabi-gcc/10.3.1-2.3.1/.content/arm-none-eabi/include/c++/10.3.1/bits/predefined_ops.h ****   __iter_less_val()
  73:/Users/lawrencestanton/Library/Application Support/Code/User/globalStorage/bmd.stm32-for-vscode/@xpack-dev-tools/arm-none-eabi-gcc/10.3.1-2.3.1/.content/arm-none-eabi/include/c++/10.3.1/bits/predefined_ops.h ****   { return _Iter_less_val(); }
  74:/Users/lawrencestanton/Library/Application Support/Code/User/globalStorage/bmd.stm32-for-vscode/@xpack-dev-tools/arm-none-eabi-gcc/10.3.1-2.3.1/.content/arm-none-eabi/include/c++/10.3.1/bits/predefined_ops.h **** 
  75:/Users/lawrencestanton/Library/Application Support/Code/User/globalStorage/bmd.stm32-for-vscode/@xpack-dev-tools/arm-none-eabi-gcc/10.3.1-2.3.1/.content/arm-none-eabi/include/c++/10.3.1/bits/predefined_ops.h ****   _GLIBCXX20_CONSTEXPR
  76:/Users/lawrencestanton/Library/Application Support/Code/User/globalStorage/bmd.stm32-for-vscode/@xpack-dev-tools/arm-none-eabi-gcc/10.3.1-2.3.1/.content/arm-none-eabi/include/c++/10.3.1/bits/predefined_ops.h ****   inline _Iter_less_val
  77:/Users/lawrencestanton/Library/Application Support/Code/User/globalStorage/bmd.stm32-for-vscode/@xpack-dev-tools/arm-none-eabi-gcc/10.3.1-2.3.1/.content/arm-none-eabi/include/c++/10.3.1/bits/predefined_ops.h ****   __iter_comp_val(_Iter_less_iter)
  78:/Users/lawrencestanton/Library/Application Support/Code/User/globalStorage/bmd.stm32-for-vscode/@xpack-dev-tools/arm-none-eabi-gcc/10.3.1-2.3.1/.content/arm-none-eabi/include/c++/10.3.1/bits/predefined_ops.h ****   { return _Iter_less_val(); }
  79:/Users/lawrencestanton/Library/Application Support/Code/User/globalStorage/bmd.stm32-for-vscode/@xpack-dev-tools/arm-none-eabi-gcc/10.3.1-2.3.1/.content/arm-none-eabi/include/c++/10.3.1/bits/predefined_ops.h **** 
  80:/Users/lawrencestanton/Library/Application Support/Code/User/globalStorage/bmd.stm32-for-vscode/@xpack-dev-tools/arm-none-eabi-gcc/10.3.1-2.3.1/.content/arm-none-eabi/include/c++/10.3.1/bits/predefined_ops.h ****   struct _Val_less_iter
  81:/Users/lawrencestanton/Library/Application Support/Code/User/globalStorage/bmd.stm32-for-vscode/@xpack-dev-tools/arm-none-eabi-gcc/10.3.1-2.3.1/.content/arm-none-eabi/include/c++/10.3.1/bits/predefined_ops.h ****   {
  82:/Users/lawrencestanton/Library/Application Support/Code/User/globalStorage/bmd.stm32-for-vscode/@xpack-dev-tools/arm-none-eabi-gcc/10.3.1-2.3.1/.content/arm-none-eabi/include/c++/10.3.1/bits/predefined_ops.h **** #if __cplusplus >= 201103L
ARM GAS  /var/folders/bb/dhrb69655gd8t4nf464nxc_00000gn/T//cc50CdYq.s 			page 3


  83:/Users/lawrencestanton/Library/Application Support/Code/User/globalStorage/bmd.stm32-for-vscode/@xpack-dev-tools/arm-none-eabi-gcc/10.3.1-2.3.1/.content/arm-none-eabi/include/c++/10.3.1/bits/predefined_ops.h ****     constexpr _Val_less_iter() = default;
  84:/Users/lawrencestanton/Library/Application Support/Code/User/globalStorage/bmd.stm32-for-vscode/@xpack-dev-tools/arm-none-eabi-gcc/10.3.1-2.3.1/.content/arm-none-eabi/include/c++/10.3.1/bits/predefined_ops.h **** #else
  85:/Users/lawrencestanton/Library/Application Support/Code/User/globalStorage/bmd.stm32-for-vscode/@xpack-dev-tools/arm-none-eabi-gcc/10.3.1-2.3.1/.content/arm-none-eabi/include/c++/10.3.1/bits/predefined_ops.h ****     _Val_less_iter() { }
  86:/Users/lawrencestanton/Library/Application Support/Code/User/globalStorage/bmd.stm32-for-vscode/@xpack-dev-tools/arm-none-eabi-gcc/10.3.1-2.3.1/.content/arm-none-eabi/include/c++/10.3.1/bits/predefined_ops.h **** #endif
  87:/Users/lawrencestanton/Library/Application Support/Code/User/globalStorage/bmd.stm32-for-vscode/@xpack-dev-tools/arm-none-eabi-gcc/10.3.1-2.3.1/.content/arm-none-eabi/include/c++/10.3.1/bits/predefined_ops.h **** 
  88:/Users/lawrencestanton/Library/Application Support/Code/User/globalStorage/bmd.stm32-for-vscode/@xpack-dev-tools/arm-none-eabi-gcc/10.3.1-2.3.1/.content/arm-none-eabi/include/c++/10.3.1/bits/predefined_ops.h ****     _GLIBCXX20_CONSTEXPR
  89:/Users/lawrencestanton/Library/Application Support/Code/User/globalStorage/bmd.stm32-for-vscode/@xpack-dev-tools/arm-none-eabi-gcc/10.3.1-2.3.1/.content/arm-none-eabi/include/c++/10.3.1/bits/predefined_ops.h ****     explicit
  90:/Users/lawrencestanton/Library/Application Support/Code/User/globalStorage/bmd.stm32-for-vscode/@xpack-dev-tools/arm-none-eabi-gcc/10.3.1-2.3.1/.content/arm-none-eabi/include/c++/10.3.1/bits/predefined_ops.h ****     _Val_less_iter(_Iter_less_iter) { }
  91:/Users/lawrencestanton/Library/Application Support/Code/User/globalStorage/bmd.stm32-for-vscode/@xpack-dev-tools/arm-none-eabi-gcc/10.3.1-2.3.1/.content/arm-none-eabi/include/c++/10.3.1/bits/predefined_ops.h **** 
  92:/Users/lawrencestanton/Library/Application Support/Code/User/globalStorage/bmd.stm32-for-vscode/@xpack-dev-tools/arm-none-eabi-gcc/10.3.1-2.3.1/.content/arm-none-eabi/include/c++/10.3.1/bits/predefined_ops.h ****     template<typename _Value, typename _Iterator>
  93:/Users/lawrencestanton/Library/Application Support/Code/User/globalStorage/bmd.stm32-for-vscode/@xpack-dev-tools/arm-none-eabi-gcc/10.3.1-2.3.1/.content/arm-none-eabi/include/c++/10.3.1/bits/predefined_ops.h ****       _GLIBCXX20_CONSTEXPR
  94:/Users/lawrencestanton/Library/Application Support/Code/User/globalStorage/bmd.stm32-for-vscode/@xpack-dev-tools/arm-none-eabi-gcc/10.3.1-2.3.1/.content/arm-none-eabi/include/c++/10.3.1/bits/predefined_ops.h ****       bool
  95:/Users/lawrencestanton/Library/Application Support/Code/User/globalStorage/bmd.stm32-for-vscode/@xpack-dev-tools/arm-none-eabi-gcc/10.3.1-2.3.1/.content/arm-none-eabi/include/c++/10.3.1/bits/predefined_ops.h ****       operator()(_Value& __val, _Iterator __it) const
  96:/Users/lawrencestanton/Library/Application Support/Code/User/globalStorage/bmd.stm32-for-vscode/@xpack-dev-tools/arm-none-eabi-gcc/10.3.1-2.3.1/.content/arm-none-eabi/include/c++/10.3.1/bits/predefined_ops.h ****       { return __val < *__it; }
  97:/Users/lawrencestanton/Library/Application Support/Code/User/globalStorage/bmd.stm32-for-vscode/@xpack-dev-tools/arm-none-eabi-gcc/10.3.1-2.3.1/.content/arm-none-eabi/include/c++/10.3.1/bits/predefined_ops.h ****   };
  98:/Users/lawrencestanton/Library/Application Support/Code/User/globalStorage/bmd.stm32-for-vscode/@xpack-dev-tools/arm-none-eabi-gcc/10.3.1-2.3.1/.content/arm-none-eabi/include/c++/10.3.1/bits/predefined_ops.h **** 
  99:/Users/lawrencestanton/Library/Application Support/Code/User/globalStorage/bmd.stm32-for-vscode/@xpack-dev-tools/arm-none-eabi-gcc/10.3.1-2.3.1/.content/arm-none-eabi/include/c++/10.3.1/bits/predefined_ops.h ****   _GLIBCXX20_CONSTEXPR
 100:/Users/lawrencestanton/Library/Application Support/Code/User/globalStorage/bmd.stm32-for-vscode/@xpack-dev-tools/arm-none-eabi-gcc/10.3.1-2.3.1/.content/arm-none-eabi/include/c++/10.3.1/bits/predefined_ops.h ****   inline _Val_less_iter
 101:/Users/lawrencestanton/Library/Application Support/Code/User/globalStorage/bmd.stm32-for-vscode/@xpack-dev-tools/arm-none-eabi-gcc/10.3.1-2.3.1/.content/arm-none-eabi/include/c++/10.3.1/bits/predefined_ops.h ****   __val_less_iter()
 102:/Users/lawrencestanton/Library/Application Support/Code/User/globalStorage/bmd.stm32-for-vscode/@xpack-dev-tools/arm-none-eabi-gcc/10.3.1-2.3.1/.content/arm-none-eabi/include/c++/10.3.1/bits/predefined_ops.h ****   { return _Val_less_iter(); }
 103:/Users/lawrencestanton/Library/Application Support/Code/User/globalStorage/bmd.stm32-for-vscode/@xpack-dev-tools/arm-none-eabi-gcc/10.3.1-2.3.1/.content/arm-none-eabi/include/c++/10.3.1/bits/predefined_ops.h **** 
 104:/Users/lawrencestanton/Library/Application Support/Code/User/globalStorage/bmd.stm32-for-vscode/@xpack-dev-tools/arm-none-eabi-gcc/10.3.1-2.3.1/.content/arm-none-eabi/include/c++/10.3.1/bits/predefined_ops.h ****   _GLIBCXX20_CONSTEXPR
 105:/Users/lawrencestanton/Library/Application Support/Code/User/globalStorage/bmd.stm32-for-vscode/@xpack-dev-tools/arm-none-eabi-gcc/10.3.1-2.3.1/.content/arm-none-eabi/include/c++/10.3.1/bits/predefined_ops.h ****   inline _Val_less_iter
 106:/Users/lawrencestanton/Library/Application Support/Code/User/globalStorage/bmd.stm32-for-vscode/@xpack-dev-tools/arm-none-eabi-gcc/10.3.1-2.3.1/.content/arm-none-eabi/include/c++/10.3.1/bits/predefined_ops.h ****   __val_comp_iter(_Iter_less_iter)
 107:/Users/lawrencestanton/Library/Application Support/Code/User/globalStorage/bmd.stm32-for-vscode/@xpack-dev-tools/arm-none-eabi-gcc/10.3.1-2.3.1/.content/arm-none-eabi/include/c++/10.3.1/bits/predefined_ops.h ****   { return _Val_less_iter(); }
 108:/Users/lawrencestanton/Library/Application Support/Code/User/globalStorage/bmd.stm32-for-vscode/@xpack-dev-tools/arm-none-eabi-gcc/10.3.1-2.3.1/.content/arm-none-eabi/include/c++/10.3.1/bits/predefined_ops.h **** 
 109:/Users/lawrencestanton/Library/Application Support/Code/User/globalStorage/bmd.stm32-for-vscode/@xpack-dev-tools/arm-none-eabi-gcc/10.3.1-2.3.1/.content/arm-none-eabi/include/c++/10.3.1/bits/predefined_ops.h ****   struct _Iter_equal_to_iter
 110:/Users/lawrencestanton/Library/Application Support/Code/User/globalStorage/bmd.stm32-for-vscode/@xpack-dev-tools/arm-none-eabi-gcc/10.3.1-2.3.1/.content/arm-none-eabi/include/c++/10.3.1/bits/predefined_ops.h ****   {
 111:/Users/lawrencestanton/Library/Application Support/Code/User/globalStorage/bmd.stm32-for-vscode/@xpack-dev-tools/arm-none-eabi-gcc/10.3.1-2.3.1/.content/arm-none-eabi/include/c++/10.3.1/bits/predefined_ops.h ****     template<typename _Iterator1, typename _Iterator2>
 112:/Users/lawrencestanton/Library/Application Support/Code/User/globalStorage/bmd.stm32-for-vscode/@xpack-dev-tools/arm-none-eabi-gcc/10.3.1-2.3.1/.content/arm-none-eabi/include/c++/10.3.1/bits/predefined_ops.h ****       _GLIBCXX20_CONSTEXPR
 113:/Users/lawrencestanton/Library/Application Support/Code/User/globalStorage/bmd.stm32-for-vscode/@xpack-dev-tools/arm-none-eabi-gcc/10.3.1-2.3.1/.content/arm-none-eabi/include/c++/10.3.1/bits/predefined_ops.h ****       bool
 114:/Users/lawrencestanton/Library/Application Support/Code/User/globalStorage/bmd.stm32-for-vscode/@xpack-dev-tools/arm-none-eabi-gcc/10.3.1-2.3.1/.content/arm-none-eabi/include/c++/10.3.1/bits/predefined_ops.h ****       operator()(_Iterator1 __it1, _Iterator2 __it2) const
 115:/Users/lawrencestanton/Library/Application Support/Code/User/globalStorage/bmd.stm32-for-vscode/@xpack-dev-tools/arm-none-eabi-gcc/10.3.1-2.3.1/.content/arm-none-eabi/include/c++/10.3.1/bits/predefined_ops.h ****       { return *__it1 == *__it2; }
 116:/Users/lawrencestanton/Library/Application Support/Code/User/globalStorage/bmd.stm32-for-vscode/@xpack-dev-tools/arm-none-eabi-gcc/10.3.1-2.3.1/.content/arm-none-eabi/include/c++/10.3.1/bits/predefined_ops.h ****   };
 117:/Users/lawrencestanton/Library/Application Support/Code/User/globalStorage/bmd.stm32-for-vscode/@xpack-dev-tools/arm-none-eabi-gcc/10.3.1-2.3.1/.content/arm-none-eabi/include/c++/10.3.1/bits/predefined_ops.h **** 
 118:/Users/lawrencestanton/Library/Application Support/Code/User/globalStorage/bmd.stm32-for-vscode/@xpack-dev-tools/arm-none-eabi-gcc/10.3.1-2.3.1/.content/arm-none-eabi/include/c++/10.3.1/bits/predefined_ops.h ****   _GLIBCXX20_CONSTEXPR
 119:/Users/lawrencestanton/Library/Application Support/Code/User/globalStorage/bmd.stm32-for-vscode/@xpack-dev-tools/arm-none-eabi-gcc/10.3.1-2.3.1/.content/arm-none-eabi/include/c++/10.3.1/bits/predefined_ops.h ****   inline _Iter_equal_to_iter
 120:/Users/lawrencestanton/Library/Application Support/Code/User/globalStorage/bmd.stm32-for-vscode/@xpack-dev-tools/arm-none-eabi-gcc/10.3.1-2.3.1/.content/arm-none-eabi/include/c++/10.3.1/bits/predefined_ops.h ****   __iter_equal_to_iter()
 121:/Users/lawrencestanton/Library/Application Support/Code/User/globalStorage/bmd.stm32-for-vscode/@xpack-dev-tools/arm-none-eabi-gcc/10.3.1-2.3.1/.content/arm-none-eabi/include/c++/10.3.1/bits/predefined_ops.h ****   { return _Iter_equal_to_iter(); }
  36              		.loc 1 121 3
  37              		.cfi_startproc
  38              		@ args = 0, pretend = 0, frame = 0
  39              		@ frame_needed = 1, uses_anonymous_args = 0
  40              		@ link register save eliminated.
  41 0000 80B4     		push	{r7}
  42              		.cfi_def_cfa_offset 4
  43              		.cfi_offset 7, -4
  44 0002 00AF     		add	r7, sp, #0
  45              		.cfi_def_cfa_register 7
  46              		.loc 1 121 32
  47 0004 00BF     		nop
  48              		.loc 1 121 35
  49 0006 1846     		mov	r0, r3
  50 0008 BD46     		mov	sp, r7
  51              		.cfi_def_cfa_register 13
  52              		@ sp needed
  53 000a 5DF8047B 		ldr	r7, [sp], #4
ARM GAS  /var/folders/bb/dhrb69655gd8t4nf464nxc_00000gn/T//cc50CdYq.s 			page 4


  54              		.cfi_restore 7
  55              		.cfi_def_cfa_offset 0
  56 000e 7047     		bx	lr
  57              		.cfi_endproc
  58              	.LFE245:
  59              		.cantunwind
  60              		.fnend
  62              		.section	.text._ZNK12StaticString5beginEv,"axG",%progbits,_ZNK12StaticString5beginEv,comdat
  63              		.align	1
  64              		.weak	_ZNK12StaticString5beginEv
  65              		.syntax unified
  66              		.thumb
  67              		.thumb_func
  69              	_ZNK12StaticString5beginEv:
  70              		.fnstart
  71              	.LFB858:
  72              		.file 2 "Core/Inc/StaticString.hpp"
   1:Core/Inc/StaticString.hpp **** /**
   2:Core/Inc/StaticString.hpp ****   ******************************************************************************
   3:Core/Inc/StaticString.hpp ****   * @file			: StaticString.hpp
   4:Core/Inc/StaticString.hpp ****   * @brief			: Structure for Stack-Based Static String with Helper Functions
   5:Core/Inc/StaticString.hpp ****   * @author			: Lawrence Stanton
   6:Core/Inc/StaticString.hpp ****   ******************************************************************************
   7:Core/Inc/StaticString.hpp ****   * @attention
   8:Core/Inc/StaticString.hpp ****   *
   9:Core/Inc/StaticString.hpp ****   * © LD Stanton 2022
  10:Core/Inc/StaticString.hpp ****   * 
  11:Core/Inc/StaticString.hpp ****   * This file and its content are the copyright property of the author. All 
  12:Core/Inc/StaticString.hpp ****   * rights are reserved. No warranty is given. No liability is assumed.
  13:Core/Inc/StaticString.hpp ****   * Confidential unless licensed otherwise. If licensed, refer to the 
  14:Core/Inc/StaticString.hpp ****   * accompanying file "LICENCE" for license details.
  15:Core/Inc/StaticString.hpp ****   * 
  16:Core/Inc/StaticString.hpp ****   ******************************************************************************
  17:Core/Inc/StaticString.hpp ****   */
  18:Core/Inc/StaticString.hpp **** 
  19:Core/Inc/StaticString.hpp **** #pragma once
  20:Core/Inc/StaticString.hpp **** 
  21:Core/Inc/StaticString.hpp **** #include <stdint.h>
  22:Core/Inc/StaticString.hpp **** #include <string.h>
  23:Core/Inc/StaticString.hpp **** 
  24:Core/Inc/StaticString.hpp **** #include <algorithm>
  25:Core/Inc/StaticString.hpp **** 
  26:Core/Inc/StaticString.hpp **** class StaticString{
  27:Core/Inc/StaticString.hpp **** private:
  28:Core/Inc/StaticString.hpp **** 	const char * s;
  29:Core/Inc/StaticString.hpp **** 	size_t l;
  30:Core/Inc/StaticString.hpp **** 
  31:Core/Inc/StaticString.hpp **** 
  32:Core/Inc/StaticString.hpp **** public:
  33:Core/Inc/StaticString.hpp **** 	StaticString() : s(nullptr), l(0u){}
  34:Core/Inc/StaticString.hpp **** 
  35:Core/Inc/StaticString.hpp **** 	template<typename C>
  36:Core/Inc/StaticString.hpp **** 	StaticString(C * c_str, size_t len) : s(c_str), l(len){}
  37:Core/Inc/StaticString.hpp **** 
  38:Core/Inc/StaticString.hpp **** 	template<typename C>
  39:Core/Inc/StaticString.hpp **** 	StaticString(C * begin, C * end) : s((char *)begin), l(end-begin){}
  40:Core/Inc/StaticString.hpp **** 
ARM GAS  /var/folders/bb/dhrb69655gd8t4nf464nxc_00000gn/T//cc50CdYq.s 			page 5


  41:Core/Inc/StaticString.hpp **** 	StaticString(const char * c_str) : s(c_str), l(strlen(c_str)){}
  42:Core/Inc/StaticString.hpp **** 	StaticString(const StaticString &) = default;
  43:Core/Inc/StaticString.hpp **** 	
  44:Core/Inc/StaticString.hpp **** 	inline size_t size() const { return l; }
  45:Core/Inc/StaticString.hpp **** 	inline size_t length() const { return size(); }
  46:Core/Inc/StaticString.hpp **** 	inline const char * begin() const { return s; }
  73              		.loc 2 46 22
  74              		.cfi_startproc
  75              		@ args = 0, pretend = 0, frame = 8
  76              		@ frame_needed = 1, uses_anonymous_args = 0
  77              		@ link register save eliminated.
  78 0000 80B4     		push	{r7}
  79              		.cfi_def_cfa_offset 4
  80              		.cfi_offset 7, -4
  81 0002 83B0     		sub	sp, sp, #12
  82              		.cfi_def_cfa_offset 16
  83 0004 00AF     		add	r7, sp, #0
  84              		.cfi_def_cfa_register 7
  85 0006 7860     		str	r0, [r7, #4]
  86              		.loc 2 46 45
  87 0008 7B68     		ldr	r3, [r7, #4]
  88 000a 1B68     		ldr	r3, [r3]
  89              		.loc 2 46 48
  90 000c 1846     		mov	r0, r3
  91 000e 0C37     		adds	r7, r7, #12
  92              		.cfi_def_cfa_offset 4
  93 0010 BD46     		mov	sp, r7
  94              		.cfi_def_cfa_register 13
  95              		@ sp needed
  96 0012 5DF8047B 		ldr	r7, [sp], #4
  97              		.cfi_restore 7
  98              		.cfi_def_cfa_offset 0
  99 0016 7047     		bx	lr
 100              		.cfi_endproc
 101              	.LFE858:
 102              		.cantunwind
 103              		.fnend
 105              		.section	.text._ZNK12StaticString3endEv,"axG",%progbits,_ZNK12StaticString3endEv,comdat
 106              		.align	1
 107              		.weak	_ZNK12StaticString3endEv
 108              		.syntax unified
 109              		.thumb
 110              		.thumb_func
 112              	_ZNK12StaticString3endEv:
 113              		.fnstart
 114              	.LFB859:
  47:Core/Inc/StaticString.hpp **** 	inline const char * end() const { return s + l; }
 115              		.loc 2 47 22
 116              		.cfi_startproc
 117              		@ args = 0, pretend = 0, frame = 8
 118              		@ frame_needed = 1, uses_anonymous_args = 0
 119              		@ link register save eliminated.
 120 0000 80B4     		push	{r7}
 121              		.cfi_def_cfa_offset 4
 122              		.cfi_offset 7, -4
 123 0002 83B0     		sub	sp, sp, #12
 124              		.cfi_def_cfa_offset 16
ARM GAS  /var/folders/bb/dhrb69655gd8t4nf464nxc_00000gn/T//cc50CdYq.s 			page 6


 125 0004 00AF     		add	r7, sp, #0
 126              		.cfi_def_cfa_register 7
 127 0006 7860     		str	r0, [r7, #4]
 128              		.loc 2 47 43
 129 0008 7B68     		ldr	r3, [r7, #4]
 130 000a 1A68     		ldr	r2, [r3]
 131              		.loc 2 47 47
 132 000c 7B68     		ldr	r3, [r7, #4]
 133 000e 5B68     		ldr	r3, [r3, #4]
 134 0010 1344     		add	r3, r3, r2
 135              		.loc 2 47 50
 136 0012 1846     		mov	r0, r3
 137 0014 0C37     		adds	r7, r7, #12
 138              		.cfi_def_cfa_offset 4
 139 0016 BD46     		mov	sp, r7
 140              		.cfi_def_cfa_register 13
 141              		@ sp needed
 142 0018 5DF8047B 		ldr	r7, [sp], #4
 143              		.cfi_restore 7
 144              		.cfi_def_cfa_offset 0
 145 001c 7047     		bx	lr
 146              		.cfi_endproc
 147              	.LFE859:
 148              		.cantunwind
 149              		.fnend
 151              		.section	.text._ZNK12StaticString4findEc,"ax",%progbits
 152              		.align	1
 153              		.global	_ZNK12StaticString4findEc
 154              		.syntax unified
 155              		.thumb
 156              		.thumb_func
 158              	_ZNK12StaticString4findEc:
 159              		.fnstart
 160              	.LFB866:
 161              		.file 3 "Core/Src/StaticString.cpp"
   1:Core/Src/StaticString.cpp **** /**
   2:Core/Src/StaticString.cpp ****   ******************************************************************************
   3:Core/Src/StaticString.cpp ****   * @file			: StaticString.cpp
   4:Core/Src/StaticString.cpp ****   * @brief			: Source for StaticString.hpp
   5:Core/Src/StaticString.cpp ****   * @author			: Lawrence Stanton
   6:Core/Src/StaticString.cpp ****   ******************************************************************************
   7:Core/Src/StaticString.cpp ****   * @attention
   8:Core/Src/StaticString.cpp ****   *
   9:Core/Src/StaticString.cpp ****   * © LD Stanton 2022
  10:Core/Src/StaticString.cpp ****   * 
  11:Core/Src/StaticString.cpp ****   * This file and its content are the copyright property of the author. All 
  12:Core/Src/StaticString.cpp ****   * rights are reserved. No warranty is given. No liability is assumed.
  13:Core/Src/StaticString.cpp ****   * Confidential unless licensed otherwise. If licensed, refer to the 
  14:Core/Src/StaticString.cpp ****   * accompanying file "LICENCE" for license details.
  15:Core/Src/StaticString.cpp ****   * 
  16:Core/Src/StaticString.cpp ****   ******************************************************************************
  17:Core/Src/StaticString.cpp ****   */
  18:Core/Src/StaticString.cpp **** 
  19:Core/Src/StaticString.cpp **** #include "StaticString.hpp"
  20:Core/Src/StaticString.cpp **** 
  21:Core/Src/StaticString.cpp **** size_t StaticString::find(char c) const{
 162              		.loc 3 21 40
ARM GAS  /var/folders/bb/dhrb69655gd8t4nf464nxc_00000gn/T//cc50CdYq.s 			page 7


 163              		.cfi_startproc
 164              		@ args = 0, pretend = 0, frame = 16
 165              		@ frame_needed = 1, uses_anonymous_args = 0
 166 0000 90B5     		push	{r4, r7, lr}
 167              		.save {r4, r7, lr}
 168              		.cfi_def_cfa_offset 12
 169              		.cfi_offset 4, -12
 170              		.cfi_offset 7, -8
 171              		.cfi_offset 14, -4
 172              		.pad #20
 173 0002 85B0     		sub	sp, sp, #20
 174              		.cfi_def_cfa_offset 32
 175              		.setfp r7, sp, #0
 176 0004 00AF     		add	r7, sp, #0
 177              		.cfi_def_cfa_register 7
 178 0006 7860     		str	r0, [r7, #4]
 179 0008 0B46     		mov	r3, r1
 180 000a FB70     		strb	r3, [r7, #3]
  22:Core/Src/StaticString.cpp **** 	auto i = std::find(begin(), end(), c);
 181              		.loc 3 22 20
 182 000c 7868     		ldr	r0, [r7, #4]
 183 000e FFF7FEFF 		bl	_ZNK12StaticString5beginEv
 184 0012 0446     		mov	r4, r0
 185 0014 7868     		ldr	r0, [r7, #4]
 186 0016 FFF7FEFF 		bl	_ZNK12StaticString3endEv
 187 001a 0146     		mov	r1, r0
 188 001c FB1C     		adds	r3, r7, #3
 189 001e 1A46     		mov	r2, r3
 190 0020 2046     		mov	r0, r4
 191 0022 FFF7FEFF 		bl	_ZSt4findIPKccET_S2_S2_RKT0_
 192 0026 0346     		mov	r3, r0
 193 0028 FB60     		str	r3, [r7, #12]
  23:Core/Src/StaticString.cpp **** 	return (i == end()) ? npos : i - begin();
 194              		.loc 3 23 18
 195 002a 7868     		ldr	r0, [r7, #4]
 196 002c FFF7FEFF 		bl	_ZNK12StaticString3endEv
 197 0030 0246     		mov	r2, r0
 198              		.loc 3 23 22
 199 0032 FB68     		ldr	r3, [r7, #12]
 200 0034 9342     		cmp	r3, r2
 201 0036 06D0     		beq	.L8
 202              		.loc 3 23 40 discriminator 1
 203 0038 7868     		ldr	r0, [r7, #4]
 204 003a FFF7FEFF 		bl	_ZNK12StaticString5beginEv
 205 003e 0246     		mov	r2, r0
 206              		.loc 3 23 33 discriminator 1
 207 0040 FB68     		ldr	r3, [r7, #12]
 208 0042 9B1A     		subs	r3, r3, r2
 209              		.loc 3 23 41 discriminator 1
 210 0044 01E0     		b	.L10
 211              	.L8:
 212              		.loc 3 23 22 discriminator 2
 213 0046 4FF0FF33 		mov	r3, #-1
 214              	.L10:
  24:Core/Src/StaticString.cpp **** }
 215              		.loc 3 24 1 discriminator 5
 216 004a 1846     		mov	r0, r3
ARM GAS  /var/folders/bb/dhrb69655gd8t4nf464nxc_00000gn/T//cc50CdYq.s 			page 8


 217 004c 1437     		adds	r7, r7, #20
 218              		.cfi_def_cfa_offset 12
 219 004e BD46     		mov	sp, r7
 220              		.cfi_def_cfa_register 13
 221              		@ sp needed
 222 0050 90BD     		pop	{r4, r7, pc}
 223              		.cfi_endproc
 224              	.LFE866:
 225              		.fnend
 227              		.section	.text._ZNK12StaticString12find_last_ofEc,"ax",%progbits
 228              		.align	1
 229              		.global	_ZNK12StaticString12find_last_ofEc
 230              		.syntax unified
 231              		.thumb
 232              		.thumb_func
 234              	_ZNK12StaticString12find_last_ofEc:
 235              		.fnstart
 236              	.LFB867:
  25:Core/Src/StaticString.cpp **** 
  26:Core/Src/StaticString.cpp **** size_t StaticString::find_last_of(char c) const{
 237              		.loc 3 26 48
 238              		.cfi_startproc
 239              		@ args = 0, pretend = 0, frame = 16
 240              		@ frame_needed = 1, uses_anonymous_args = 0
 241 0000 90B5     		push	{r4, r7, lr}
 242              		.save {r4, r7, lr}
 243              		.cfi_def_cfa_offset 12
 244              		.cfi_offset 4, -12
 245              		.cfi_offset 7, -8
 246              		.cfi_offset 14, -4
 247              		.pad #20
 248 0002 85B0     		sub	sp, sp, #20
 249              		.cfi_def_cfa_offset 32
 250              		.setfp r7, sp, #0
 251 0004 00AF     		add	r7, sp, #0
 252              		.cfi_def_cfa_register 7
 253 0006 7860     		str	r0, [r7, #4]
 254 0008 0B46     		mov	r3, r1
 255 000a FB70     		strb	r3, [r7, #3]
  27:Core/Src/StaticString.cpp **** 	auto i = std::find_end(begin(), end(), &c, &c);
 256              		.loc 3 27 24
 257 000c 7868     		ldr	r0, [r7, #4]
 258 000e FFF7FEFF 		bl	_ZNK12StaticString5beginEv
 259 0012 0446     		mov	r4, r0
 260 0014 7868     		ldr	r0, [r7, #4]
 261 0016 FFF7FEFF 		bl	_ZNK12StaticString3endEv
 262 001a 0146     		mov	r1, r0
 263 001c FB1C     		adds	r3, r7, #3
 264 001e FA1C     		adds	r2, r7, #3
 265 0020 2046     		mov	r0, r4
 266 0022 FFF7FEFF 		bl	_ZSt8find_endIPKcPcET_S3_S3_T0_S4_
 267 0026 0346     		mov	r3, r0
 268 0028 FB60     		str	r3, [r7, #12]
  28:Core/Src/StaticString.cpp **** 	return (i == end()) ? npos : i - begin();
 269              		.loc 3 28 18
 270 002a 7868     		ldr	r0, [r7, #4]
 271 002c FFF7FEFF 		bl	_ZNK12StaticString3endEv
ARM GAS  /var/folders/bb/dhrb69655gd8t4nf464nxc_00000gn/T//cc50CdYq.s 			page 9


 272 0030 0246     		mov	r2, r0
 273              		.loc 3 28 22
 274 0032 FB68     		ldr	r3, [r7, #12]
 275 0034 9342     		cmp	r3, r2
 276 0036 06D0     		beq	.L12
 277              		.loc 3 28 40 discriminator 1
 278 0038 7868     		ldr	r0, [r7, #4]
 279 003a FFF7FEFF 		bl	_ZNK12StaticString5beginEv
 280 003e 0246     		mov	r2, r0
 281              		.loc 3 28 33 discriminator 1
 282 0040 FB68     		ldr	r3, [r7, #12]
 283 0042 9B1A     		subs	r3, r3, r2
 284              		.loc 3 28 41 discriminator 1
 285 0044 01E0     		b	.L14
 286              	.L12:
 287              		.loc 3 28 22 discriminator 2
 288 0046 4FF0FF33 		mov	r3, #-1
 289              	.L14:
  29:Core/Src/StaticString.cpp **** }
 290              		.loc 3 29 1 discriminator 5
 291 004a 1846     		mov	r0, r3
 292 004c 1437     		adds	r7, r7, #20
 293              		.cfi_def_cfa_offset 12
 294 004e BD46     		mov	sp, r7
 295              		.cfi_def_cfa_register 13
 296              		@ sp needed
 297 0050 90BD     		pop	{r4, r7, pc}
 298              		.cfi_endproc
 299              	.LFE867:
 300              		.fnend
 302              		.section	.text._ZSt4findIPKccET_S2_S2_RKT0_,"axG",%progbits,_ZSt4findIPKccET_S2_S2_RKT0_,comdat
 303              		.align	1
 304              		.weak	_ZSt4findIPKccET_S2_S2_RKT0_
 305              		.syntax unified
 306              		.thumb
 307              		.thumb_func
 309              	_ZSt4findIPKccET_S2_S2_RKT0_:
 310              		.fnstart
 311              	.LFB871:
 312              		.file 4 "/Users/lawrencestanton/Library/Application Support/Code/User/globalStorage/bmd.stm32-for-
   1:/Users/lawrencestanton/Library/Application Support/Code/User/globalStorage/bmd.stm32-for-vscode/@xpack-dev-tools/arm-none-eabi-gcc/10.3.1-2.3.1/.content/arm-none-eabi/include/c++/10.3.1/bits/stl_algo.h **** // Algorithm implementation -*- C++ -*-
   2:/Users/lawrencestanton/Library/Application Support/Code/User/globalStorage/bmd.stm32-for-vscode/@xpack-dev-tools/arm-none-eabi-gcc/10.3.1-2.3.1/.content/arm-none-eabi/include/c++/10.3.1/bits/stl_algo.h **** 
   3:/Users/lawrencestanton/Library/Application Support/Code/User/globalStorage/bmd.stm32-for-vscode/@xpack-dev-tools/arm-none-eabi-gcc/10.3.1-2.3.1/.content/arm-none-eabi/include/c++/10.3.1/bits/stl_algo.h **** // Copyright (C) 2001-2020 Free Software Foundation, Inc.
   4:/Users/lawrencestanton/Library/Application Support/Code/User/globalStorage/bmd.stm32-for-vscode/@xpack-dev-tools/arm-none-eabi-gcc/10.3.1-2.3.1/.content/arm-none-eabi/include/c++/10.3.1/bits/stl_algo.h **** //
   5:/Users/lawrencestanton/Library/Application Support/Code/User/globalStorage/bmd.stm32-for-vscode/@xpack-dev-tools/arm-none-eabi-gcc/10.3.1-2.3.1/.content/arm-none-eabi/include/c++/10.3.1/bits/stl_algo.h **** // This file is part of the GNU ISO C++ Library.  This library is free
   6:/Users/lawrencestanton/Library/Application Support/Code/User/globalStorage/bmd.stm32-for-vscode/@xpack-dev-tools/arm-none-eabi-gcc/10.3.1-2.3.1/.content/arm-none-eabi/include/c++/10.3.1/bits/stl_algo.h **** // software; you can redistribute it and/or modify it under the
   7:/Users/lawrencestanton/Library/Application Support/Code/User/globalStorage/bmd.stm32-for-vscode/@xpack-dev-tools/arm-none-eabi-gcc/10.3.1-2.3.1/.content/arm-none-eabi/include/c++/10.3.1/bits/stl_algo.h **** // terms of the GNU General Public License as published by the
   8:/Users/lawrencestanton/Library/Application Support/Code/User/globalStorage/bmd.stm32-for-vscode/@xpack-dev-tools/arm-none-eabi-gcc/10.3.1-2.3.1/.content/arm-none-eabi/include/c++/10.3.1/bits/stl_algo.h **** // Free Software Foundation; either version 3, or (at your option)
   9:/Users/lawrencestanton/Library/Application Support/Code/User/globalStorage/bmd.stm32-for-vscode/@xpack-dev-tools/arm-none-eabi-gcc/10.3.1-2.3.1/.content/arm-none-eabi/include/c++/10.3.1/bits/stl_algo.h **** // any later version.
  10:/Users/lawrencestanton/Library/Application Support/Code/User/globalStorage/bmd.stm32-for-vscode/@xpack-dev-tools/arm-none-eabi-gcc/10.3.1-2.3.1/.content/arm-none-eabi/include/c++/10.3.1/bits/stl_algo.h **** 
  11:/Users/lawrencestanton/Library/Application Support/Code/User/globalStorage/bmd.stm32-for-vscode/@xpack-dev-tools/arm-none-eabi-gcc/10.3.1-2.3.1/.content/arm-none-eabi/include/c++/10.3.1/bits/stl_algo.h **** // This library is distributed in the hope that it will be useful,
  12:/Users/lawrencestanton/Library/Application Support/Code/User/globalStorage/bmd.stm32-for-vscode/@xpack-dev-tools/arm-none-eabi-gcc/10.3.1-2.3.1/.content/arm-none-eabi/include/c++/10.3.1/bits/stl_algo.h **** // but WITHOUT ANY WARRANTY; without even the implied warranty of
  13:/Users/lawrencestanton/Library/Application Support/Code/User/globalStorage/bmd.stm32-for-vscode/@xpack-dev-tools/arm-none-eabi-gcc/10.3.1-2.3.1/.content/arm-none-eabi/include/c++/10.3.1/bits/stl_algo.h **** // MERCHANTABILITY or FITNESS FOR A PARTICULAR PURPOSE.  See the
  14:/Users/lawrencestanton/Library/Application Support/Code/User/globalStorage/bmd.stm32-for-vscode/@xpack-dev-tools/arm-none-eabi-gcc/10.3.1-2.3.1/.content/arm-none-eabi/include/c++/10.3.1/bits/stl_algo.h **** // GNU General Public License for more details.
  15:/Users/lawrencestanton/Library/Application Support/Code/User/globalStorage/bmd.stm32-for-vscode/@xpack-dev-tools/arm-none-eabi-gcc/10.3.1-2.3.1/.content/arm-none-eabi/include/c++/10.3.1/bits/stl_algo.h **** 
  16:/Users/lawrencestanton/Library/Application Support/Code/User/globalStorage/bmd.stm32-for-vscode/@xpack-dev-tools/arm-none-eabi-gcc/10.3.1-2.3.1/.content/arm-none-eabi/include/c++/10.3.1/bits/stl_algo.h **** // Under Section 7 of GPL version 3, you are granted additional
  17:/Users/lawrencestanton/Library/Application Support/Code/User/globalStorage/bmd.stm32-for-vscode/@xpack-dev-tools/arm-none-eabi-gcc/10.3.1-2.3.1/.content/arm-none-eabi/include/c++/10.3.1/bits/stl_algo.h **** // permissions described in the GCC Runtime Library Exception, version
ARM GAS  /var/folders/bb/dhrb69655gd8t4nf464nxc_00000gn/T//cc50CdYq.s 			page 10


  18:/Users/lawrencestanton/Library/Application Support/Code/User/globalStorage/bmd.stm32-for-vscode/@xpack-dev-tools/arm-none-eabi-gcc/10.3.1-2.3.1/.content/arm-none-eabi/include/c++/10.3.1/bits/stl_algo.h **** // 3.1, as published by the Free Software Foundation.
  19:/Users/lawrencestanton/Library/Application Support/Code/User/globalStorage/bmd.stm32-for-vscode/@xpack-dev-tools/arm-none-eabi-gcc/10.3.1-2.3.1/.content/arm-none-eabi/include/c++/10.3.1/bits/stl_algo.h **** 
  20:/Users/lawrencestanton/Library/Application Support/Code/User/globalStorage/bmd.stm32-for-vscode/@xpack-dev-tools/arm-none-eabi-gcc/10.3.1-2.3.1/.content/arm-none-eabi/include/c++/10.3.1/bits/stl_algo.h **** // You should have received a copy of the GNU General Public License and
  21:/Users/lawrencestanton/Library/Application Support/Code/User/globalStorage/bmd.stm32-for-vscode/@xpack-dev-tools/arm-none-eabi-gcc/10.3.1-2.3.1/.content/arm-none-eabi/include/c++/10.3.1/bits/stl_algo.h **** // a copy of the GCC Runtime Library Exception along with this program;
  22:/Users/lawrencestanton/Library/Application Support/Code/User/globalStorage/bmd.stm32-for-vscode/@xpack-dev-tools/arm-none-eabi-gcc/10.3.1-2.3.1/.content/arm-none-eabi/include/c++/10.3.1/bits/stl_algo.h **** // see the files COPYING3 and COPYING.RUNTIME respectively.  If not, see
  23:/Users/lawrencestanton/Library/Application Support/Code/User/globalStorage/bmd.stm32-for-vscode/@xpack-dev-tools/arm-none-eabi-gcc/10.3.1-2.3.1/.content/arm-none-eabi/include/c++/10.3.1/bits/stl_algo.h **** // <http://www.gnu.org/licenses/>.
  24:/Users/lawrencestanton/Library/Application Support/Code/User/globalStorage/bmd.stm32-for-vscode/@xpack-dev-tools/arm-none-eabi-gcc/10.3.1-2.3.1/.content/arm-none-eabi/include/c++/10.3.1/bits/stl_algo.h **** 
  25:/Users/lawrencestanton/Library/Application Support/Code/User/globalStorage/bmd.stm32-for-vscode/@xpack-dev-tools/arm-none-eabi-gcc/10.3.1-2.3.1/.content/arm-none-eabi/include/c++/10.3.1/bits/stl_algo.h **** /*
  26:/Users/lawrencestanton/Library/Application Support/Code/User/globalStorage/bmd.stm32-for-vscode/@xpack-dev-tools/arm-none-eabi-gcc/10.3.1-2.3.1/.content/arm-none-eabi/include/c++/10.3.1/bits/stl_algo.h ****  *
  27:/Users/lawrencestanton/Library/Application Support/Code/User/globalStorage/bmd.stm32-for-vscode/@xpack-dev-tools/arm-none-eabi-gcc/10.3.1-2.3.1/.content/arm-none-eabi/include/c++/10.3.1/bits/stl_algo.h ****  * Copyright (c) 1994
  28:/Users/lawrencestanton/Library/Application Support/Code/User/globalStorage/bmd.stm32-for-vscode/@xpack-dev-tools/arm-none-eabi-gcc/10.3.1-2.3.1/.content/arm-none-eabi/include/c++/10.3.1/bits/stl_algo.h ****  * Hewlett-Packard Company
  29:/Users/lawrencestanton/Library/Application Support/Code/User/globalStorage/bmd.stm32-for-vscode/@xpack-dev-tools/arm-none-eabi-gcc/10.3.1-2.3.1/.content/arm-none-eabi/include/c++/10.3.1/bits/stl_algo.h ****  *
  30:/Users/lawrencestanton/Library/Application Support/Code/User/globalStorage/bmd.stm32-for-vscode/@xpack-dev-tools/arm-none-eabi-gcc/10.3.1-2.3.1/.content/arm-none-eabi/include/c++/10.3.1/bits/stl_algo.h ****  * Permission to use, copy, modify, distribute and sell this software
  31:/Users/lawrencestanton/Library/Application Support/Code/User/globalStorage/bmd.stm32-for-vscode/@xpack-dev-tools/arm-none-eabi-gcc/10.3.1-2.3.1/.content/arm-none-eabi/include/c++/10.3.1/bits/stl_algo.h ****  * and its documentation for any purpose is hereby granted without fee,
  32:/Users/lawrencestanton/Library/Application Support/Code/User/globalStorage/bmd.stm32-for-vscode/@xpack-dev-tools/arm-none-eabi-gcc/10.3.1-2.3.1/.content/arm-none-eabi/include/c++/10.3.1/bits/stl_algo.h ****  * provided that the above copyright notice appear in all copies and
  33:/Users/lawrencestanton/Library/Application Support/Code/User/globalStorage/bmd.stm32-for-vscode/@xpack-dev-tools/arm-none-eabi-gcc/10.3.1-2.3.1/.content/arm-none-eabi/include/c++/10.3.1/bits/stl_algo.h ****  * that both that copyright notice and this permission notice appear
  34:/Users/lawrencestanton/Library/Application Support/Code/User/globalStorage/bmd.stm32-for-vscode/@xpack-dev-tools/arm-none-eabi-gcc/10.3.1-2.3.1/.content/arm-none-eabi/include/c++/10.3.1/bits/stl_algo.h ****  * in supporting documentation.  Hewlett-Packard Company makes no
  35:/Users/lawrencestanton/Library/Application Support/Code/User/globalStorage/bmd.stm32-for-vscode/@xpack-dev-tools/arm-none-eabi-gcc/10.3.1-2.3.1/.content/arm-none-eabi/include/c++/10.3.1/bits/stl_algo.h ****  * representations about the suitability of this software for any
  36:/Users/lawrencestanton/Library/Application Support/Code/User/globalStorage/bmd.stm32-for-vscode/@xpack-dev-tools/arm-none-eabi-gcc/10.3.1-2.3.1/.content/arm-none-eabi/include/c++/10.3.1/bits/stl_algo.h ****  * purpose.  It is provided "as is" without express or implied warranty.
  37:/Users/lawrencestanton/Library/Application Support/Code/User/globalStorage/bmd.stm32-for-vscode/@xpack-dev-tools/arm-none-eabi-gcc/10.3.1-2.3.1/.content/arm-none-eabi/include/c++/10.3.1/bits/stl_algo.h ****  *
  38:/Users/lawrencestanton/Library/Application Support/Code/User/globalStorage/bmd.stm32-for-vscode/@xpack-dev-tools/arm-none-eabi-gcc/10.3.1-2.3.1/.content/arm-none-eabi/include/c++/10.3.1/bits/stl_algo.h ****  *
  39:/Users/lawrencestanton/Library/Application Support/Code/User/globalStorage/bmd.stm32-for-vscode/@xpack-dev-tools/arm-none-eabi-gcc/10.3.1-2.3.1/.content/arm-none-eabi/include/c++/10.3.1/bits/stl_algo.h ****  * Copyright (c) 1996
  40:/Users/lawrencestanton/Library/Application Support/Code/User/globalStorage/bmd.stm32-for-vscode/@xpack-dev-tools/arm-none-eabi-gcc/10.3.1-2.3.1/.content/arm-none-eabi/include/c++/10.3.1/bits/stl_algo.h ****  * Silicon Graphics Computer Systems, Inc.
  41:/Users/lawrencestanton/Library/Application Support/Code/User/globalStorage/bmd.stm32-for-vscode/@xpack-dev-tools/arm-none-eabi-gcc/10.3.1-2.3.1/.content/arm-none-eabi/include/c++/10.3.1/bits/stl_algo.h ****  *
  42:/Users/lawrencestanton/Library/Application Support/Code/User/globalStorage/bmd.stm32-for-vscode/@xpack-dev-tools/arm-none-eabi-gcc/10.3.1-2.3.1/.content/arm-none-eabi/include/c++/10.3.1/bits/stl_algo.h ****  * Permission to use, copy, modify, distribute and sell this software
  43:/Users/lawrencestanton/Library/Application Support/Code/User/globalStorage/bmd.stm32-for-vscode/@xpack-dev-tools/arm-none-eabi-gcc/10.3.1-2.3.1/.content/arm-none-eabi/include/c++/10.3.1/bits/stl_algo.h ****  * and its documentation for any purpose is hereby granted without fee,
  44:/Users/lawrencestanton/Library/Application Support/Code/User/globalStorage/bmd.stm32-for-vscode/@xpack-dev-tools/arm-none-eabi-gcc/10.3.1-2.3.1/.content/arm-none-eabi/include/c++/10.3.1/bits/stl_algo.h ****  * provided that the above copyright notice appear in all copies and
  45:/Users/lawrencestanton/Library/Application Support/Code/User/globalStorage/bmd.stm32-for-vscode/@xpack-dev-tools/arm-none-eabi-gcc/10.3.1-2.3.1/.content/arm-none-eabi/include/c++/10.3.1/bits/stl_algo.h ****  * that both that copyright notice and this permission notice appear
  46:/Users/lawrencestanton/Library/Application Support/Code/User/globalStorage/bmd.stm32-for-vscode/@xpack-dev-tools/arm-none-eabi-gcc/10.3.1-2.3.1/.content/arm-none-eabi/include/c++/10.3.1/bits/stl_algo.h ****  * in supporting documentation.  Silicon Graphics makes no
  47:/Users/lawrencestanton/Library/Application Support/Code/User/globalStorage/bmd.stm32-for-vscode/@xpack-dev-tools/arm-none-eabi-gcc/10.3.1-2.3.1/.content/arm-none-eabi/include/c++/10.3.1/bits/stl_algo.h ****  * representations about the suitability of this software for any
  48:/Users/lawrencestanton/Library/Application Support/Code/User/globalStorage/bmd.stm32-for-vscode/@xpack-dev-tools/arm-none-eabi-gcc/10.3.1-2.3.1/.content/arm-none-eabi/include/c++/10.3.1/bits/stl_algo.h ****  * purpose.  It is provided "as is" without express or implied warranty.
  49:/Users/lawrencestanton/Library/Application Support/Code/User/globalStorage/bmd.stm32-for-vscode/@xpack-dev-tools/arm-none-eabi-gcc/10.3.1-2.3.1/.content/arm-none-eabi/include/c++/10.3.1/bits/stl_algo.h ****  */
  50:/Users/lawrencestanton/Library/Application Support/Code/User/globalStorage/bmd.stm32-for-vscode/@xpack-dev-tools/arm-none-eabi-gcc/10.3.1-2.3.1/.content/arm-none-eabi/include/c++/10.3.1/bits/stl_algo.h **** 
  51:/Users/lawrencestanton/Library/Application Support/Code/User/globalStorage/bmd.stm32-for-vscode/@xpack-dev-tools/arm-none-eabi-gcc/10.3.1-2.3.1/.content/arm-none-eabi/include/c++/10.3.1/bits/stl_algo.h **** /** @file bits/stl_algo.h
  52:/Users/lawrencestanton/Library/Application Support/Code/User/globalStorage/bmd.stm32-for-vscode/@xpack-dev-tools/arm-none-eabi-gcc/10.3.1-2.3.1/.content/arm-none-eabi/include/c++/10.3.1/bits/stl_algo.h ****  *  This is an internal header file, included by other library headers.
  53:/Users/lawrencestanton/Library/Application Support/Code/User/globalStorage/bmd.stm32-for-vscode/@xpack-dev-tools/arm-none-eabi-gcc/10.3.1-2.3.1/.content/arm-none-eabi/include/c++/10.3.1/bits/stl_algo.h ****  *  Do not attempt to use it directly. @headername{algorithm}
  54:/Users/lawrencestanton/Library/Application Support/Code/User/globalStorage/bmd.stm32-for-vscode/@xpack-dev-tools/arm-none-eabi-gcc/10.3.1-2.3.1/.content/arm-none-eabi/include/c++/10.3.1/bits/stl_algo.h ****  */
  55:/Users/lawrencestanton/Library/Application Support/Code/User/globalStorage/bmd.stm32-for-vscode/@xpack-dev-tools/arm-none-eabi-gcc/10.3.1-2.3.1/.content/arm-none-eabi/include/c++/10.3.1/bits/stl_algo.h **** 
  56:/Users/lawrencestanton/Library/Application Support/Code/User/globalStorage/bmd.stm32-for-vscode/@xpack-dev-tools/arm-none-eabi-gcc/10.3.1-2.3.1/.content/arm-none-eabi/include/c++/10.3.1/bits/stl_algo.h **** #ifndef _STL_ALGO_H
  57:/Users/lawrencestanton/Library/Application Support/Code/User/globalStorage/bmd.stm32-for-vscode/@xpack-dev-tools/arm-none-eabi-gcc/10.3.1-2.3.1/.content/arm-none-eabi/include/c++/10.3.1/bits/stl_algo.h **** #define _STL_ALGO_H 1
  58:/Users/lawrencestanton/Library/Application Support/Code/User/globalStorage/bmd.stm32-for-vscode/@xpack-dev-tools/arm-none-eabi-gcc/10.3.1-2.3.1/.content/arm-none-eabi/include/c++/10.3.1/bits/stl_algo.h **** 
  59:/Users/lawrencestanton/Library/Application Support/Code/User/globalStorage/bmd.stm32-for-vscode/@xpack-dev-tools/arm-none-eabi-gcc/10.3.1-2.3.1/.content/arm-none-eabi/include/c++/10.3.1/bits/stl_algo.h **** #include <cstdlib>	     // for rand
  60:/Users/lawrencestanton/Library/Application Support/Code/User/globalStorage/bmd.stm32-for-vscode/@xpack-dev-tools/arm-none-eabi-gcc/10.3.1-2.3.1/.content/arm-none-eabi/include/c++/10.3.1/bits/stl_algo.h **** #include <bits/algorithmfwd.h>
  61:/Users/lawrencestanton/Library/Application Support/Code/User/globalStorage/bmd.stm32-for-vscode/@xpack-dev-tools/arm-none-eabi-gcc/10.3.1-2.3.1/.content/arm-none-eabi/include/c++/10.3.1/bits/stl_algo.h **** #include <bits/stl_heap.h>
  62:/Users/lawrencestanton/Library/Application Support/Code/User/globalStorage/bmd.stm32-for-vscode/@xpack-dev-tools/arm-none-eabi-gcc/10.3.1-2.3.1/.content/arm-none-eabi/include/c++/10.3.1/bits/stl_algo.h **** #include <bits/stl_tempbuf.h>  // for _Temporary_buffer
  63:/Users/lawrencestanton/Library/Application Support/Code/User/globalStorage/bmd.stm32-for-vscode/@xpack-dev-tools/arm-none-eabi-gcc/10.3.1-2.3.1/.content/arm-none-eabi/include/c++/10.3.1/bits/stl_algo.h **** #include <bits/predefined_ops.h>
  64:/Users/lawrencestanton/Library/Application Support/Code/User/globalStorage/bmd.stm32-for-vscode/@xpack-dev-tools/arm-none-eabi-gcc/10.3.1-2.3.1/.content/arm-none-eabi/include/c++/10.3.1/bits/stl_algo.h **** 
  65:/Users/lawrencestanton/Library/Application Support/Code/User/globalStorage/bmd.stm32-for-vscode/@xpack-dev-tools/arm-none-eabi-gcc/10.3.1-2.3.1/.content/arm-none-eabi/include/c++/10.3.1/bits/stl_algo.h **** #if __cplusplus >= 201103L
  66:/Users/lawrencestanton/Library/Application Support/Code/User/globalStorage/bmd.stm32-for-vscode/@xpack-dev-tools/arm-none-eabi-gcc/10.3.1-2.3.1/.content/arm-none-eabi/include/c++/10.3.1/bits/stl_algo.h **** #include <bits/uniform_int_dist.h>
  67:/Users/lawrencestanton/Library/Application Support/Code/User/globalStorage/bmd.stm32-for-vscode/@xpack-dev-tools/arm-none-eabi-gcc/10.3.1-2.3.1/.content/arm-none-eabi/include/c++/10.3.1/bits/stl_algo.h **** #endif
  68:/Users/lawrencestanton/Library/Application Support/Code/User/globalStorage/bmd.stm32-for-vscode/@xpack-dev-tools/arm-none-eabi-gcc/10.3.1-2.3.1/.content/arm-none-eabi/include/c++/10.3.1/bits/stl_algo.h **** 
  69:/Users/lawrencestanton/Library/Application Support/Code/User/globalStorage/bmd.stm32-for-vscode/@xpack-dev-tools/arm-none-eabi-gcc/10.3.1-2.3.1/.content/arm-none-eabi/include/c++/10.3.1/bits/stl_algo.h **** // See concept_check.h for the __glibcxx_*_requires macros.
  70:/Users/lawrencestanton/Library/Application Support/Code/User/globalStorage/bmd.stm32-for-vscode/@xpack-dev-tools/arm-none-eabi-gcc/10.3.1-2.3.1/.content/arm-none-eabi/include/c++/10.3.1/bits/stl_algo.h **** 
  71:/Users/lawrencestanton/Library/Application Support/Code/User/globalStorage/bmd.stm32-for-vscode/@xpack-dev-tools/arm-none-eabi-gcc/10.3.1-2.3.1/.content/arm-none-eabi/include/c++/10.3.1/bits/stl_algo.h **** namespace std _GLIBCXX_VISIBILITY(default)
  72:/Users/lawrencestanton/Library/Application Support/Code/User/globalStorage/bmd.stm32-for-vscode/@xpack-dev-tools/arm-none-eabi-gcc/10.3.1-2.3.1/.content/arm-none-eabi/include/c++/10.3.1/bits/stl_algo.h **** {
  73:/Users/lawrencestanton/Library/Application Support/Code/User/globalStorage/bmd.stm32-for-vscode/@xpack-dev-tools/arm-none-eabi-gcc/10.3.1-2.3.1/.content/arm-none-eabi/include/c++/10.3.1/bits/stl_algo.h **** _GLIBCXX_BEGIN_NAMESPACE_VERSION
  74:/Users/lawrencestanton/Library/Application Support/Code/User/globalStorage/bmd.stm32-for-vscode/@xpack-dev-tools/arm-none-eabi-gcc/10.3.1-2.3.1/.content/arm-none-eabi/include/c++/10.3.1/bits/stl_algo.h **** 
ARM GAS  /var/folders/bb/dhrb69655gd8t4nf464nxc_00000gn/T//cc50CdYq.s 			page 11


  75:/Users/lawrencestanton/Library/Application Support/Code/User/globalStorage/bmd.stm32-for-vscode/@xpack-dev-tools/arm-none-eabi-gcc/10.3.1-2.3.1/.content/arm-none-eabi/include/c++/10.3.1/bits/stl_algo.h ****   /// Swaps the median value of *__a, *__b and *__c under __comp to *__result
  76:/Users/lawrencestanton/Library/Application Support/Code/User/globalStorage/bmd.stm32-for-vscode/@xpack-dev-tools/arm-none-eabi-gcc/10.3.1-2.3.1/.content/arm-none-eabi/include/c++/10.3.1/bits/stl_algo.h ****   template<typename _Iterator, typename _Compare>
  77:/Users/lawrencestanton/Library/Application Support/Code/User/globalStorage/bmd.stm32-for-vscode/@xpack-dev-tools/arm-none-eabi-gcc/10.3.1-2.3.1/.content/arm-none-eabi/include/c++/10.3.1/bits/stl_algo.h ****     _GLIBCXX20_CONSTEXPR
  78:/Users/lawrencestanton/Library/Application Support/Code/User/globalStorage/bmd.stm32-for-vscode/@xpack-dev-tools/arm-none-eabi-gcc/10.3.1-2.3.1/.content/arm-none-eabi/include/c++/10.3.1/bits/stl_algo.h ****     void
  79:/Users/lawrencestanton/Library/Application Support/Code/User/globalStorage/bmd.stm32-for-vscode/@xpack-dev-tools/arm-none-eabi-gcc/10.3.1-2.3.1/.content/arm-none-eabi/include/c++/10.3.1/bits/stl_algo.h ****     __move_median_to_first(_Iterator __result,_Iterator __a, _Iterator __b,
  80:/Users/lawrencestanton/Library/Application Support/Code/User/globalStorage/bmd.stm32-for-vscode/@xpack-dev-tools/arm-none-eabi-gcc/10.3.1-2.3.1/.content/arm-none-eabi/include/c++/10.3.1/bits/stl_algo.h **** 			   _Iterator __c, _Compare __comp)
  81:/Users/lawrencestanton/Library/Application Support/Code/User/globalStorage/bmd.stm32-for-vscode/@xpack-dev-tools/arm-none-eabi-gcc/10.3.1-2.3.1/.content/arm-none-eabi/include/c++/10.3.1/bits/stl_algo.h ****     {
  82:/Users/lawrencestanton/Library/Application Support/Code/User/globalStorage/bmd.stm32-for-vscode/@xpack-dev-tools/arm-none-eabi-gcc/10.3.1-2.3.1/.content/arm-none-eabi/include/c++/10.3.1/bits/stl_algo.h ****       if (__comp(__a, __b))
  83:/Users/lawrencestanton/Library/Application Support/Code/User/globalStorage/bmd.stm32-for-vscode/@xpack-dev-tools/arm-none-eabi-gcc/10.3.1-2.3.1/.content/arm-none-eabi/include/c++/10.3.1/bits/stl_algo.h **** 	{
  84:/Users/lawrencestanton/Library/Application Support/Code/User/globalStorage/bmd.stm32-for-vscode/@xpack-dev-tools/arm-none-eabi-gcc/10.3.1-2.3.1/.content/arm-none-eabi/include/c++/10.3.1/bits/stl_algo.h **** 	  if (__comp(__b, __c))
  85:/Users/lawrencestanton/Library/Application Support/Code/User/globalStorage/bmd.stm32-for-vscode/@xpack-dev-tools/arm-none-eabi-gcc/10.3.1-2.3.1/.content/arm-none-eabi/include/c++/10.3.1/bits/stl_algo.h **** 	    std::iter_swap(__result, __b);
  86:/Users/lawrencestanton/Library/Application Support/Code/User/globalStorage/bmd.stm32-for-vscode/@xpack-dev-tools/arm-none-eabi-gcc/10.3.1-2.3.1/.content/arm-none-eabi/include/c++/10.3.1/bits/stl_algo.h **** 	  else if (__comp(__a, __c))
  87:/Users/lawrencestanton/Library/Application Support/Code/User/globalStorage/bmd.stm32-for-vscode/@xpack-dev-tools/arm-none-eabi-gcc/10.3.1-2.3.1/.content/arm-none-eabi/include/c++/10.3.1/bits/stl_algo.h **** 	    std::iter_swap(__result, __c);
  88:/Users/lawrencestanton/Library/Application Support/Code/User/globalStorage/bmd.stm32-for-vscode/@xpack-dev-tools/arm-none-eabi-gcc/10.3.1-2.3.1/.content/arm-none-eabi/include/c++/10.3.1/bits/stl_algo.h **** 	  else
  89:/Users/lawrencestanton/Library/Application Support/Code/User/globalStorage/bmd.stm32-for-vscode/@xpack-dev-tools/arm-none-eabi-gcc/10.3.1-2.3.1/.content/arm-none-eabi/include/c++/10.3.1/bits/stl_algo.h **** 	    std::iter_swap(__result, __a);
  90:/Users/lawrencestanton/Library/Application Support/Code/User/globalStorage/bmd.stm32-for-vscode/@xpack-dev-tools/arm-none-eabi-gcc/10.3.1-2.3.1/.content/arm-none-eabi/include/c++/10.3.1/bits/stl_algo.h **** 	}
  91:/Users/lawrencestanton/Library/Application Support/Code/User/globalStorage/bmd.stm32-for-vscode/@xpack-dev-tools/arm-none-eabi-gcc/10.3.1-2.3.1/.content/arm-none-eabi/include/c++/10.3.1/bits/stl_algo.h ****       else if (__comp(__a, __c))
  92:/Users/lawrencestanton/Library/Application Support/Code/User/globalStorage/bmd.stm32-for-vscode/@xpack-dev-tools/arm-none-eabi-gcc/10.3.1-2.3.1/.content/arm-none-eabi/include/c++/10.3.1/bits/stl_algo.h **** 	std::iter_swap(__result, __a);
  93:/Users/lawrencestanton/Library/Application Support/Code/User/globalStorage/bmd.stm32-for-vscode/@xpack-dev-tools/arm-none-eabi-gcc/10.3.1-2.3.1/.content/arm-none-eabi/include/c++/10.3.1/bits/stl_algo.h ****       else if (__comp(__b, __c))
  94:/Users/lawrencestanton/Library/Application Support/Code/User/globalStorage/bmd.stm32-for-vscode/@xpack-dev-tools/arm-none-eabi-gcc/10.3.1-2.3.1/.content/arm-none-eabi/include/c++/10.3.1/bits/stl_algo.h **** 	std::iter_swap(__result, __c);
  95:/Users/lawrencestanton/Library/Application Support/Code/User/globalStorage/bmd.stm32-for-vscode/@xpack-dev-tools/arm-none-eabi-gcc/10.3.1-2.3.1/.content/arm-none-eabi/include/c++/10.3.1/bits/stl_algo.h ****       else
  96:/Users/lawrencestanton/Library/Application Support/Code/User/globalStorage/bmd.stm32-for-vscode/@xpack-dev-tools/arm-none-eabi-gcc/10.3.1-2.3.1/.content/arm-none-eabi/include/c++/10.3.1/bits/stl_algo.h **** 	std::iter_swap(__result, __b);
  97:/Users/lawrencestanton/Library/Application Support/Code/User/globalStorage/bmd.stm32-for-vscode/@xpack-dev-tools/arm-none-eabi-gcc/10.3.1-2.3.1/.content/arm-none-eabi/include/c++/10.3.1/bits/stl_algo.h ****     }
  98:/Users/lawrencestanton/Library/Application Support/Code/User/globalStorage/bmd.stm32-for-vscode/@xpack-dev-tools/arm-none-eabi-gcc/10.3.1-2.3.1/.content/arm-none-eabi/include/c++/10.3.1/bits/stl_algo.h **** 
  99:/Users/lawrencestanton/Library/Application Support/Code/User/globalStorage/bmd.stm32-for-vscode/@xpack-dev-tools/arm-none-eabi-gcc/10.3.1-2.3.1/.content/arm-none-eabi/include/c++/10.3.1/bits/stl_algo.h ****   /// Provided for stable_partition to use.
 100:/Users/lawrencestanton/Library/Application Support/Code/User/globalStorage/bmd.stm32-for-vscode/@xpack-dev-tools/arm-none-eabi-gcc/10.3.1-2.3.1/.content/arm-none-eabi/include/c++/10.3.1/bits/stl_algo.h ****   template<typename _InputIterator, typename _Predicate>
 101:/Users/lawrencestanton/Library/Application Support/Code/User/globalStorage/bmd.stm32-for-vscode/@xpack-dev-tools/arm-none-eabi-gcc/10.3.1-2.3.1/.content/arm-none-eabi/include/c++/10.3.1/bits/stl_algo.h ****     _GLIBCXX20_CONSTEXPR
 102:/Users/lawrencestanton/Library/Application Support/Code/User/globalStorage/bmd.stm32-for-vscode/@xpack-dev-tools/arm-none-eabi-gcc/10.3.1-2.3.1/.content/arm-none-eabi/include/c++/10.3.1/bits/stl_algo.h ****     inline _InputIterator
 103:/Users/lawrencestanton/Library/Application Support/Code/User/globalStorage/bmd.stm32-for-vscode/@xpack-dev-tools/arm-none-eabi-gcc/10.3.1-2.3.1/.content/arm-none-eabi/include/c++/10.3.1/bits/stl_algo.h ****     __find_if_not(_InputIterator __first, _InputIterator __last,
 104:/Users/lawrencestanton/Library/Application Support/Code/User/globalStorage/bmd.stm32-for-vscode/@xpack-dev-tools/arm-none-eabi-gcc/10.3.1-2.3.1/.content/arm-none-eabi/include/c++/10.3.1/bits/stl_algo.h **** 		  _Predicate __pred)
 105:/Users/lawrencestanton/Library/Application Support/Code/User/globalStorage/bmd.stm32-for-vscode/@xpack-dev-tools/arm-none-eabi-gcc/10.3.1-2.3.1/.content/arm-none-eabi/include/c++/10.3.1/bits/stl_algo.h ****     {
 106:/Users/lawrencestanton/Library/Application Support/Code/User/globalStorage/bmd.stm32-for-vscode/@xpack-dev-tools/arm-none-eabi-gcc/10.3.1-2.3.1/.content/arm-none-eabi/include/c++/10.3.1/bits/stl_algo.h ****       return std::__find_if(__first, __last,
 107:/Users/lawrencestanton/Library/Application Support/Code/User/globalStorage/bmd.stm32-for-vscode/@xpack-dev-tools/arm-none-eabi-gcc/10.3.1-2.3.1/.content/arm-none-eabi/include/c++/10.3.1/bits/stl_algo.h **** 			    __gnu_cxx::__ops::__negate(__pred),
 108:/Users/lawrencestanton/Library/Application Support/Code/User/globalStorage/bmd.stm32-for-vscode/@xpack-dev-tools/arm-none-eabi-gcc/10.3.1-2.3.1/.content/arm-none-eabi/include/c++/10.3.1/bits/stl_algo.h **** 			    std::__iterator_category(__first));
 109:/Users/lawrencestanton/Library/Application Support/Code/User/globalStorage/bmd.stm32-for-vscode/@xpack-dev-tools/arm-none-eabi-gcc/10.3.1-2.3.1/.content/arm-none-eabi/include/c++/10.3.1/bits/stl_algo.h ****     }
 110:/Users/lawrencestanton/Library/Application Support/Code/User/globalStorage/bmd.stm32-for-vscode/@xpack-dev-tools/arm-none-eabi-gcc/10.3.1-2.3.1/.content/arm-none-eabi/include/c++/10.3.1/bits/stl_algo.h **** 
 111:/Users/lawrencestanton/Library/Application Support/Code/User/globalStorage/bmd.stm32-for-vscode/@xpack-dev-tools/arm-none-eabi-gcc/10.3.1-2.3.1/.content/arm-none-eabi/include/c++/10.3.1/bits/stl_algo.h ****   /// Like find_if_not(), but uses and updates a count of the
 112:/Users/lawrencestanton/Library/Application Support/Code/User/globalStorage/bmd.stm32-for-vscode/@xpack-dev-tools/arm-none-eabi-gcc/10.3.1-2.3.1/.content/arm-none-eabi/include/c++/10.3.1/bits/stl_algo.h ****   /// remaining range length instead of comparing against an end
 113:/Users/lawrencestanton/Library/Application Support/Code/User/globalStorage/bmd.stm32-for-vscode/@xpack-dev-tools/arm-none-eabi-gcc/10.3.1-2.3.1/.content/arm-none-eabi/include/c++/10.3.1/bits/stl_algo.h ****   /// iterator.
 114:/Users/lawrencestanton/Library/Application Support/Code/User/globalStorage/bmd.stm32-for-vscode/@xpack-dev-tools/arm-none-eabi-gcc/10.3.1-2.3.1/.content/arm-none-eabi/include/c++/10.3.1/bits/stl_algo.h ****   template<typename _InputIterator, typename _Predicate, typename _Distance>
 115:/Users/lawrencestanton/Library/Application Support/Code/User/globalStorage/bmd.stm32-for-vscode/@xpack-dev-tools/arm-none-eabi-gcc/10.3.1-2.3.1/.content/arm-none-eabi/include/c++/10.3.1/bits/stl_algo.h ****     _GLIBCXX20_CONSTEXPR
 116:/Users/lawrencestanton/Library/Application Support/Code/User/globalStorage/bmd.stm32-for-vscode/@xpack-dev-tools/arm-none-eabi-gcc/10.3.1-2.3.1/.content/arm-none-eabi/include/c++/10.3.1/bits/stl_algo.h ****     _InputIterator
 117:/Users/lawrencestanton/Library/Application Support/Code/User/globalStorage/bmd.stm32-for-vscode/@xpack-dev-tools/arm-none-eabi-gcc/10.3.1-2.3.1/.content/arm-none-eabi/include/c++/10.3.1/bits/stl_algo.h ****     __find_if_not_n(_InputIterator __first, _Distance& __len, _Predicate __pred)
 118:/Users/lawrencestanton/Library/Application Support/Code/User/globalStorage/bmd.stm32-for-vscode/@xpack-dev-tools/arm-none-eabi-gcc/10.3.1-2.3.1/.content/arm-none-eabi/include/c++/10.3.1/bits/stl_algo.h ****     {
 119:/Users/lawrencestanton/Library/Application Support/Code/User/globalStorage/bmd.stm32-for-vscode/@xpack-dev-tools/arm-none-eabi-gcc/10.3.1-2.3.1/.content/arm-none-eabi/include/c++/10.3.1/bits/stl_algo.h ****       for (; __len; --__len,  (void) ++__first)
 120:/Users/lawrencestanton/Library/Application Support/Code/User/globalStorage/bmd.stm32-for-vscode/@xpack-dev-tools/arm-none-eabi-gcc/10.3.1-2.3.1/.content/arm-none-eabi/include/c++/10.3.1/bits/stl_algo.h **** 	if (!__pred(__first))
 121:/Users/lawrencestanton/Library/Application Support/Code/User/globalStorage/bmd.stm32-for-vscode/@xpack-dev-tools/arm-none-eabi-gcc/10.3.1-2.3.1/.content/arm-none-eabi/include/c++/10.3.1/bits/stl_algo.h **** 	  break;
 122:/Users/lawrencestanton/Library/Application Support/Code/User/globalStorage/bmd.stm32-for-vscode/@xpack-dev-tools/arm-none-eabi-gcc/10.3.1-2.3.1/.content/arm-none-eabi/include/c++/10.3.1/bits/stl_algo.h ****       return __first;
 123:/Users/lawrencestanton/Library/Application Support/Code/User/globalStorage/bmd.stm32-for-vscode/@xpack-dev-tools/arm-none-eabi-gcc/10.3.1-2.3.1/.content/arm-none-eabi/include/c++/10.3.1/bits/stl_algo.h ****     }
 124:/Users/lawrencestanton/Library/Application Support/Code/User/globalStorage/bmd.stm32-for-vscode/@xpack-dev-tools/arm-none-eabi-gcc/10.3.1-2.3.1/.content/arm-none-eabi/include/c++/10.3.1/bits/stl_algo.h **** 
 125:/Users/lawrencestanton/Library/Application Support/Code/User/globalStorage/bmd.stm32-for-vscode/@xpack-dev-tools/arm-none-eabi-gcc/10.3.1-2.3.1/.content/arm-none-eabi/include/c++/10.3.1/bits/stl_algo.h ****   // set_difference
 126:/Users/lawrencestanton/Library/Application Support/Code/User/globalStorage/bmd.stm32-for-vscode/@xpack-dev-tools/arm-none-eabi-gcc/10.3.1-2.3.1/.content/arm-none-eabi/include/c++/10.3.1/bits/stl_algo.h ****   // set_intersection
 127:/Users/lawrencestanton/Library/Application Support/Code/User/globalStorage/bmd.stm32-for-vscode/@xpack-dev-tools/arm-none-eabi-gcc/10.3.1-2.3.1/.content/arm-none-eabi/include/c++/10.3.1/bits/stl_algo.h ****   // set_symmetric_difference
 128:/Users/lawrencestanton/Library/Application Support/Code/User/globalStorage/bmd.stm32-for-vscode/@xpack-dev-tools/arm-none-eabi-gcc/10.3.1-2.3.1/.content/arm-none-eabi/include/c++/10.3.1/bits/stl_algo.h ****   // set_union
 129:/Users/lawrencestanton/Library/Application Support/Code/User/globalStorage/bmd.stm32-for-vscode/@xpack-dev-tools/arm-none-eabi-gcc/10.3.1-2.3.1/.content/arm-none-eabi/include/c++/10.3.1/bits/stl_algo.h ****   // for_each
 130:/Users/lawrencestanton/Library/Application Support/Code/User/globalStorage/bmd.stm32-for-vscode/@xpack-dev-tools/arm-none-eabi-gcc/10.3.1-2.3.1/.content/arm-none-eabi/include/c++/10.3.1/bits/stl_algo.h ****   // find
 131:/Users/lawrencestanton/Library/Application Support/Code/User/globalStorage/bmd.stm32-for-vscode/@xpack-dev-tools/arm-none-eabi-gcc/10.3.1-2.3.1/.content/arm-none-eabi/include/c++/10.3.1/bits/stl_algo.h ****   // find_if
ARM GAS  /var/folders/bb/dhrb69655gd8t4nf464nxc_00000gn/T//cc50CdYq.s 			page 12


 132:/Users/lawrencestanton/Library/Application Support/Code/User/globalStorage/bmd.stm32-for-vscode/@xpack-dev-tools/arm-none-eabi-gcc/10.3.1-2.3.1/.content/arm-none-eabi/include/c++/10.3.1/bits/stl_algo.h ****   // find_first_of
 133:/Users/lawrencestanton/Library/Application Support/Code/User/globalStorage/bmd.stm32-for-vscode/@xpack-dev-tools/arm-none-eabi-gcc/10.3.1-2.3.1/.content/arm-none-eabi/include/c++/10.3.1/bits/stl_algo.h ****   // adjacent_find
 134:/Users/lawrencestanton/Library/Application Support/Code/User/globalStorage/bmd.stm32-for-vscode/@xpack-dev-tools/arm-none-eabi-gcc/10.3.1-2.3.1/.content/arm-none-eabi/include/c++/10.3.1/bits/stl_algo.h ****   // count
 135:/Users/lawrencestanton/Library/Application Support/Code/User/globalStorage/bmd.stm32-for-vscode/@xpack-dev-tools/arm-none-eabi-gcc/10.3.1-2.3.1/.content/arm-none-eabi/include/c++/10.3.1/bits/stl_algo.h ****   // count_if
 136:/Users/lawrencestanton/Library/Application Support/Code/User/globalStorage/bmd.stm32-for-vscode/@xpack-dev-tools/arm-none-eabi-gcc/10.3.1-2.3.1/.content/arm-none-eabi/include/c++/10.3.1/bits/stl_algo.h ****   // search
 137:/Users/lawrencestanton/Library/Application Support/Code/User/globalStorage/bmd.stm32-for-vscode/@xpack-dev-tools/arm-none-eabi-gcc/10.3.1-2.3.1/.content/arm-none-eabi/include/c++/10.3.1/bits/stl_algo.h **** 
 138:/Users/lawrencestanton/Library/Application Support/Code/User/globalStorage/bmd.stm32-for-vscode/@xpack-dev-tools/arm-none-eabi-gcc/10.3.1-2.3.1/.content/arm-none-eabi/include/c++/10.3.1/bits/stl_algo.h ****   template<typename _ForwardIterator1, typename _ForwardIterator2,
 139:/Users/lawrencestanton/Library/Application Support/Code/User/globalStorage/bmd.stm32-for-vscode/@xpack-dev-tools/arm-none-eabi-gcc/10.3.1-2.3.1/.content/arm-none-eabi/include/c++/10.3.1/bits/stl_algo.h **** 	   typename _BinaryPredicate>
 140:/Users/lawrencestanton/Library/Application Support/Code/User/globalStorage/bmd.stm32-for-vscode/@xpack-dev-tools/arm-none-eabi-gcc/10.3.1-2.3.1/.content/arm-none-eabi/include/c++/10.3.1/bits/stl_algo.h ****     _GLIBCXX20_CONSTEXPR
 141:/Users/lawrencestanton/Library/Application Support/Code/User/globalStorage/bmd.stm32-for-vscode/@xpack-dev-tools/arm-none-eabi-gcc/10.3.1-2.3.1/.content/arm-none-eabi/include/c++/10.3.1/bits/stl_algo.h ****     _ForwardIterator1
 142:/Users/lawrencestanton/Library/Application Support/Code/User/globalStorage/bmd.stm32-for-vscode/@xpack-dev-tools/arm-none-eabi-gcc/10.3.1-2.3.1/.content/arm-none-eabi/include/c++/10.3.1/bits/stl_algo.h ****     __search(_ForwardIterator1 __first1, _ForwardIterator1 __last1,
 143:/Users/lawrencestanton/Library/Application Support/Code/User/globalStorage/bmd.stm32-for-vscode/@xpack-dev-tools/arm-none-eabi-gcc/10.3.1-2.3.1/.content/arm-none-eabi/include/c++/10.3.1/bits/stl_algo.h **** 	     _ForwardIterator2 __first2, _ForwardIterator2 __last2,
 144:/Users/lawrencestanton/Library/Application Support/Code/User/globalStorage/bmd.stm32-for-vscode/@xpack-dev-tools/arm-none-eabi-gcc/10.3.1-2.3.1/.content/arm-none-eabi/include/c++/10.3.1/bits/stl_algo.h **** 	     _BinaryPredicate  __predicate)
 145:/Users/lawrencestanton/Library/Application Support/Code/User/globalStorage/bmd.stm32-for-vscode/@xpack-dev-tools/arm-none-eabi-gcc/10.3.1-2.3.1/.content/arm-none-eabi/include/c++/10.3.1/bits/stl_algo.h ****     {
 146:/Users/lawrencestanton/Library/Application Support/Code/User/globalStorage/bmd.stm32-for-vscode/@xpack-dev-tools/arm-none-eabi-gcc/10.3.1-2.3.1/.content/arm-none-eabi/include/c++/10.3.1/bits/stl_algo.h ****       // Test for empty ranges
 147:/Users/lawrencestanton/Library/Application Support/Code/User/globalStorage/bmd.stm32-for-vscode/@xpack-dev-tools/arm-none-eabi-gcc/10.3.1-2.3.1/.content/arm-none-eabi/include/c++/10.3.1/bits/stl_algo.h ****       if (__first1 == __last1 || __first2 == __last2)
 148:/Users/lawrencestanton/Library/Application Support/Code/User/globalStorage/bmd.stm32-for-vscode/@xpack-dev-tools/arm-none-eabi-gcc/10.3.1-2.3.1/.content/arm-none-eabi/include/c++/10.3.1/bits/stl_algo.h **** 	return __first1;
 149:/Users/lawrencestanton/Library/Application Support/Code/User/globalStorage/bmd.stm32-for-vscode/@xpack-dev-tools/arm-none-eabi-gcc/10.3.1-2.3.1/.content/arm-none-eabi/include/c++/10.3.1/bits/stl_algo.h **** 
 150:/Users/lawrencestanton/Library/Application Support/Code/User/globalStorage/bmd.stm32-for-vscode/@xpack-dev-tools/arm-none-eabi-gcc/10.3.1-2.3.1/.content/arm-none-eabi/include/c++/10.3.1/bits/stl_algo.h ****       // Test for a pattern of length 1.
 151:/Users/lawrencestanton/Library/Application Support/Code/User/globalStorage/bmd.stm32-for-vscode/@xpack-dev-tools/arm-none-eabi-gcc/10.3.1-2.3.1/.content/arm-none-eabi/include/c++/10.3.1/bits/stl_algo.h ****       _ForwardIterator2 __p1(__first2);
 152:/Users/lawrencestanton/Library/Application Support/Code/User/globalStorage/bmd.stm32-for-vscode/@xpack-dev-tools/arm-none-eabi-gcc/10.3.1-2.3.1/.content/arm-none-eabi/include/c++/10.3.1/bits/stl_algo.h ****       if (++__p1 == __last2)
 153:/Users/lawrencestanton/Library/Application Support/Code/User/globalStorage/bmd.stm32-for-vscode/@xpack-dev-tools/arm-none-eabi-gcc/10.3.1-2.3.1/.content/arm-none-eabi/include/c++/10.3.1/bits/stl_algo.h **** 	return std::__find_if(__first1, __last1,
 154:/Users/lawrencestanton/Library/Application Support/Code/User/globalStorage/bmd.stm32-for-vscode/@xpack-dev-tools/arm-none-eabi-gcc/10.3.1-2.3.1/.content/arm-none-eabi/include/c++/10.3.1/bits/stl_algo.h **** 		__gnu_cxx::__ops::__iter_comp_iter(__predicate, __first2));
 155:/Users/lawrencestanton/Library/Application Support/Code/User/globalStorage/bmd.stm32-for-vscode/@xpack-dev-tools/arm-none-eabi-gcc/10.3.1-2.3.1/.content/arm-none-eabi/include/c++/10.3.1/bits/stl_algo.h **** 
 156:/Users/lawrencestanton/Library/Application Support/Code/User/globalStorage/bmd.stm32-for-vscode/@xpack-dev-tools/arm-none-eabi-gcc/10.3.1-2.3.1/.content/arm-none-eabi/include/c++/10.3.1/bits/stl_algo.h ****       // General case.
 157:/Users/lawrencestanton/Library/Application Support/Code/User/globalStorage/bmd.stm32-for-vscode/@xpack-dev-tools/arm-none-eabi-gcc/10.3.1-2.3.1/.content/arm-none-eabi/include/c++/10.3.1/bits/stl_algo.h ****       _ForwardIterator1 __current = __first1;
 158:/Users/lawrencestanton/Library/Application Support/Code/User/globalStorage/bmd.stm32-for-vscode/@xpack-dev-tools/arm-none-eabi-gcc/10.3.1-2.3.1/.content/arm-none-eabi/include/c++/10.3.1/bits/stl_algo.h **** 
 159:/Users/lawrencestanton/Library/Application Support/Code/User/globalStorage/bmd.stm32-for-vscode/@xpack-dev-tools/arm-none-eabi-gcc/10.3.1-2.3.1/.content/arm-none-eabi/include/c++/10.3.1/bits/stl_algo.h ****       for (;;)
 160:/Users/lawrencestanton/Library/Application Support/Code/User/globalStorage/bmd.stm32-for-vscode/@xpack-dev-tools/arm-none-eabi-gcc/10.3.1-2.3.1/.content/arm-none-eabi/include/c++/10.3.1/bits/stl_algo.h **** 	{
 161:/Users/lawrencestanton/Library/Application Support/Code/User/globalStorage/bmd.stm32-for-vscode/@xpack-dev-tools/arm-none-eabi-gcc/10.3.1-2.3.1/.content/arm-none-eabi/include/c++/10.3.1/bits/stl_algo.h **** 	  __first1 =
 162:/Users/lawrencestanton/Library/Application Support/Code/User/globalStorage/bmd.stm32-for-vscode/@xpack-dev-tools/arm-none-eabi-gcc/10.3.1-2.3.1/.content/arm-none-eabi/include/c++/10.3.1/bits/stl_algo.h **** 	    std::__find_if(__first1, __last1,
 163:/Users/lawrencestanton/Library/Application Support/Code/User/globalStorage/bmd.stm32-for-vscode/@xpack-dev-tools/arm-none-eabi-gcc/10.3.1-2.3.1/.content/arm-none-eabi/include/c++/10.3.1/bits/stl_algo.h **** 		__gnu_cxx::__ops::__iter_comp_iter(__predicate, __first2));
 164:/Users/lawrencestanton/Library/Application Support/Code/User/globalStorage/bmd.stm32-for-vscode/@xpack-dev-tools/arm-none-eabi-gcc/10.3.1-2.3.1/.content/arm-none-eabi/include/c++/10.3.1/bits/stl_algo.h **** 
 165:/Users/lawrencestanton/Library/Application Support/Code/User/globalStorage/bmd.stm32-for-vscode/@xpack-dev-tools/arm-none-eabi-gcc/10.3.1-2.3.1/.content/arm-none-eabi/include/c++/10.3.1/bits/stl_algo.h **** 	  if (__first1 == __last1)
 166:/Users/lawrencestanton/Library/Application Support/Code/User/globalStorage/bmd.stm32-for-vscode/@xpack-dev-tools/arm-none-eabi-gcc/10.3.1-2.3.1/.content/arm-none-eabi/include/c++/10.3.1/bits/stl_algo.h **** 	    return __last1;
 167:/Users/lawrencestanton/Library/Application Support/Code/User/globalStorage/bmd.stm32-for-vscode/@xpack-dev-tools/arm-none-eabi-gcc/10.3.1-2.3.1/.content/arm-none-eabi/include/c++/10.3.1/bits/stl_algo.h **** 
 168:/Users/lawrencestanton/Library/Application Support/Code/User/globalStorage/bmd.stm32-for-vscode/@xpack-dev-tools/arm-none-eabi-gcc/10.3.1-2.3.1/.content/arm-none-eabi/include/c++/10.3.1/bits/stl_algo.h **** 	  _ForwardIterator2 __p = __p1;
 169:/Users/lawrencestanton/Library/Application Support/Code/User/globalStorage/bmd.stm32-for-vscode/@xpack-dev-tools/arm-none-eabi-gcc/10.3.1-2.3.1/.content/arm-none-eabi/include/c++/10.3.1/bits/stl_algo.h **** 	  __current = __first1;
 170:/Users/lawrencestanton/Library/Application Support/Code/User/globalStorage/bmd.stm32-for-vscode/@xpack-dev-tools/arm-none-eabi-gcc/10.3.1-2.3.1/.content/arm-none-eabi/include/c++/10.3.1/bits/stl_algo.h **** 	  if (++__current == __last1)
 171:/Users/lawrencestanton/Library/Application Support/Code/User/globalStorage/bmd.stm32-for-vscode/@xpack-dev-tools/arm-none-eabi-gcc/10.3.1-2.3.1/.content/arm-none-eabi/include/c++/10.3.1/bits/stl_algo.h **** 	    return __last1;
 172:/Users/lawrencestanton/Library/Application Support/Code/User/globalStorage/bmd.stm32-for-vscode/@xpack-dev-tools/arm-none-eabi-gcc/10.3.1-2.3.1/.content/arm-none-eabi/include/c++/10.3.1/bits/stl_algo.h **** 
 173:/Users/lawrencestanton/Library/Application Support/Code/User/globalStorage/bmd.stm32-for-vscode/@xpack-dev-tools/arm-none-eabi-gcc/10.3.1-2.3.1/.content/arm-none-eabi/include/c++/10.3.1/bits/stl_algo.h **** 	  while (__predicate(__current, __p))
 174:/Users/lawrencestanton/Library/Application Support/Code/User/globalStorage/bmd.stm32-for-vscode/@xpack-dev-tools/arm-none-eabi-gcc/10.3.1-2.3.1/.content/arm-none-eabi/include/c++/10.3.1/bits/stl_algo.h **** 	    {
 175:/Users/lawrencestanton/Library/Application Support/Code/User/globalStorage/bmd.stm32-for-vscode/@xpack-dev-tools/arm-none-eabi-gcc/10.3.1-2.3.1/.content/arm-none-eabi/include/c++/10.3.1/bits/stl_algo.h **** 	      if (++__p == __last2)
 176:/Users/lawrencestanton/Library/Application Support/Code/User/globalStorage/bmd.stm32-for-vscode/@xpack-dev-tools/arm-none-eabi-gcc/10.3.1-2.3.1/.content/arm-none-eabi/include/c++/10.3.1/bits/stl_algo.h **** 		return __first1;
 177:/Users/lawrencestanton/Library/Application Support/Code/User/globalStorage/bmd.stm32-for-vscode/@xpack-dev-tools/arm-none-eabi-gcc/10.3.1-2.3.1/.content/arm-none-eabi/include/c++/10.3.1/bits/stl_algo.h **** 	      if (++__current == __last1)
 178:/Users/lawrencestanton/Library/Application Support/Code/User/globalStorage/bmd.stm32-for-vscode/@xpack-dev-tools/arm-none-eabi-gcc/10.3.1-2.3.1/.content/arm-none-eabi/include/c++/10.3.1/bits/stl_algo.h **** 		return __last1;
 179:/Users/lawrencestanton/Library/Application Support/Code/User/globalStorage/bmd.stm32-for-vscode/@xpack-dev-tools/arm-none-eabi-gcc/10.3.1-2.3.1/.content/arm-none-eabi/include/c++/10.3.1/bits/stl_algo.h **** 	    }
 180:/Users/lawrencestanton/Library/Application Support/Code/User/globalStorage/bmd.stm32-for-vscode/@xpack-dev-tools/arm-none-eabi-gcc/10.3.1-2.3.1/.content/arm-none-eabi/include/c++/10.3.1/bits/stl_algo.h **** 	  ++__first1;
 181:/Users/lawrencestanton/Library/Application Support/Code/User/globalStorage/bmd.stm32-for-vscode/@xpack-dev-tools/arm-none-eabi-gcc/10.3.1-2.3.1/.content/arm-none-eabi/include/c++/10.3.1/bits/stl_algo.h **** 	}
 182:/Users/lawrencestanton/Library/Application Support/Code/User/globalStorage/bmd.stm32-for-vscode/@xpack-dev-tools/arm-none-eabi-gcc/10.3.1-2.3.1/.content/arm-none-eabi/include/c++/10.3.1/bits/stl_algo.h ****       return __first1;
 183:/Users/lawrencestanton/Library/Application Support/Code/User/globalStorage/bmd.stm32-for-vscode/@xpack-dev-tools/arm-none-eabi-gcc/10.3.1-2.3.1/.content/arm-none-eabi/include/c++/10.3.1/bits/stl_algo.h ****     }
 184:/Users/lawrencestanton/Library/Application Support/Code/User/globalStorage/bmd.stm32-for-vscode/@xpack-dev-tools/arm-none-eabi-gcc/10.3.1-2.3.1/.content/arm-none-eabi/include/c++/10.3.1/bits/stl_algo.h **** 
 185:/Users/lawrencestanton/Library/Application Support/Code/User/globalStorage/bmd.stm32-for-vscode/@xpack-dev-tools/arm-none-eabi-gcc/10.3.1-2.3.1/.content/arm-none-eabi/include/c++/10.3.1/bits/stl_algo.h ****   // search_n
 186:/Users/lawrencestanton/Library/Application Support/Code/User/globalStorage/bmd.stm32-for-vscode/@xpack-dev-tools/arm-none-eabi-gcc/10.3.1-2.3.1/.content/arm-none-eabi/include/c++/10.3.1/bits/stl_algo.h **** 
 187:/Users/lawrencestanton/Library/Application Support/Code/User/globalStorage/bmd.stm32-for-vscode/@xpack-dev-tools/arm-none-eabi-gcc/10.3.1-2.3.1/.content/arm-none-eabi/include/c++/10.3.1/bits/stl_algo.h ****   /**
 188:/Users/lawrencestanton/Library/Application Support/Code/User/globalStorage/bmd.stm32-for-vscode/@xpack-dev-tools/arm-none-eabi-gcc/10.3.1-2.3.1/.content/arm-none-eabi/include/c++/10.3.1/bits/stl_algo.h ****    *  This is an helper function for search_n overloaded for forward iterators.
ARM GAS  /var/folders/bb/dhrb69655gd8t4nf464nxc_00000gn/T//cc50CdYq.s 			page 13


 189:/Users/lawrencestanton/Library/Application Support/Code/User/globalStorage/bmd.stm32-for-vscode/@xpack-dev-tools/arm-none-eabi-gcc/10.3.1-2.3.1/.content/arm-none-eabi/include/c++/10.3.1/bits/stl_algo.h ****   */
 190:/Users/lawrencestanton/Library/Application Support/Code/User/globalStorage/bmd.stm32-for-vscode/@xpack-dev-tools/arm-none-eabi-gcc/10.3.1-2.3.1/.content/arm-none-eabi/include/c++/10.3.1/bits/stl_algo.h ****   template<typename _ForwardIterator, typename _Integer,
 191:/Users/lawrencestanton/Library/Application Support/Code/User/globalStorage/bmd.stm32-for-vscode/@xpack-dev-tools/arm-none-eabi-gcc/10.3.1-2.3.1/.content/arm-none-eabi/include/c++/10.3.1/bits/stl_algo.h **** 	   typename _UnaryPredicate>
 192:/Users/lawrencestanton/Library/Application Support/Code/User/globalStorage/bmd.stm32-for-vscode/@xpack-dev-tools/arm-none-eabi-gcc/10.3.1-2.3.1/.content/arm-none-eabi/include/c++/10.3.1/bits/stl_algo.h ****     _GLIBCXX20_CONSTEXPR
 193:/Users/lawrencestanton/Library/Application Support/Code/User/globalStorage/bmd.stm32-for-vscode/@xpack-dev-tools/arm-none-eabi-gcc/10.3.1-2.3.1/.content/arm-none-eabi/include/c++/10.3.1/bits/stl_algo.h ****     _ForwardIterator
 194:/Users/lawrencestanton/Library/Application Support/Code/User/globalStorage/bmd.stm32-for-vscode/@xpack-dev-tools/arm-none-eabi-gcc/10.3.1-2.3.1/.content/arm-none-eabi/include/c++/10.3.1/bits/stl_algo.h ****     __search_n_aux(_ForwardIterator __first, _ForwardIterator __last,
 195:/Users/lawrencestanton/Library/Application Support/Code/User/globalStorage/bmd.stm32-for-vscode/@xpack-dev-tools/arm-none-eabi-gcc/10.3.1-2.3.1/.content/arm-none-eabi/include/c++/10.3.1/bits/stl_algo.h **** 		   _Integer __count, _UnaryPredicate __unary_pred,
 196:/Users/lawrencestanton/Library/Application Support/Code/User/globalStorage/bmd.stm32-for-vscode/@xpack-dev-tools/arm-none-eabi-gcc/10.3.1-2.3.1/.content/arm-none-eabi/include/c++/10.3.1/bits/stl_algo.h **** 		   std::forward_iterator_tag)
 197:/Users/lawrencestanton/Library/Application Support/Code/User/globalStorage/bmd.stm32-for-vscode/@xpack-dev-tools/arm-none-eabi-gcc/10.3.1-2.3.1/.content/arm-none-eabi/include/c++/10.3.1/bits/stl_algo.h ****     {
 198:/Users/lawrencestanton/Library/Application Support/Code/User/globalStorage/bmd.stm32-for-vscode/@xpack-dev-tools/arm-none-eabi-gcc/10.3.1-2.3.1/.content/arm-none-eabi/include/c++/10.3.1/bits/stl_algo.h ****       __first = std::__find_if(__first, __last, __unary_pred);
 199:/Users/lawrencestanton/Library/Application Support/Code/User/globalStorage/bmd.stm32-for-vscode/@xpack-dev-tools/arm-none-eabi-gcc/10.3.1-2.3.1/.content/arm-none-eabi/include/c++/10.3.1/bits/stl_algo.h ****       while (__first != __last)
 200:/Users/lawrencestanton/Library/Application Support/Code/User/globalStorage/bmd.stm32-for-vscode/@xpack-dev-tools/arm-none-eabi-gcc/10.3.1-2.3.1/.content/arm-none-eabi/include/c++/10.3.1/bits/stl_algo.h **** 	{
 201:/Users/lawrencestanton/Library/Application Support/Code/User/globalStorage/bmd.stm32-for-vscode/@xpack-dev-tools/arm-none-eabi-gcc/10.3.1-2.3.1/.content/arm-none-eabi/include/c++/10.3.1/bits/stl_algo.h **** 	  typename iterator_traits<_ForwardIterator>::difference_type
 202:/Users/lawrencestanton/Library/Application Support/Code/User/globalStorage/bmd.stm32-for-vscode/@xpack-dev-tools/arm-none-eabi-gcc/10.3.1-2.3.1/.content/arm-none-eabi/include/c++/10.3.1/bits/stl_algo.h **** 	    __n = __count;
 203:/Users/lawrencestanton/Library/Application Support/Code/User/globalStorage/bmd.stm32-for-vscode/@xpack-dev-tools/arm-none-eabi-gcc/10.3.1-2.3.1/.content/arm-none-eabi/include/c++/10.3.1/bits/stl_algo.h **** 	  _ForwardIterator __i = __first;
 204:/Users/lawrencestanton/Library/Application Support/Code/User/globalStorage/bmd.stm32-for-vscode/@xpack-dev-tools/arm-none-eabi-gcc/10.3.1-2.3.1/.content/arm-none-eabi/include/c++/10.3.1/bits/stl_algo.h **** 	  ++__i;
 205:/Users/lawrencestanton/Library/Application Support/Code/User/globalStorage/bmd.stm32-for-vscode/@xpack-dev-tools/arm-none-eabi-gcc/10.3.1-2.3.1/.content/arm-none-eabi/include/c++/10.3.1/bits/stl_algo.h **** 	  while (__i != __last && __n != 1 && __unary_pred(__i))
 206:/Users/lawrencestanton/Library/Application Support/Code/User/globalStorage/bmd.stm32-for-vscode/@xpack-dev-tools/arm-none-eabi-gcc/10.3.1-2.3.1/.content/arm-none-eabi/include/c++/10.3.1/bits/stl_algo.h **** 	    {
 207:/Users/lawrencestanton/Library/Application Support/Code/User/globalStorage/bmd.stm32-for-vscode/@xpack-dev-tools/arm-none-eabi-gcc/10.3.1-2.3.1/.content/arm-none-eabi/include/c++/10.3.1/bits/stl_algo.h **** 	      ++__i;
 208:/Users/lawrencestanton/Library/Application Support/Code/User/globalStorage/bmd.stm32-for-vscode/@xpack-dev-tools/arm-none-eabi-gcc/10.3.1-2.3.1/.content/arm-none-eabi/include/c++/10.3.1/bits/stl_algo.h **** 	      --__n;
 209:/Users/lawrencestanton/Library/Application Support/Code/User/globalStorage/bmd.stm32-for-vscode/@xpack-dev-tools/arm-none-eabi-gcc/10.3.1-2.3.1/.content/arm-none-eabi/include/c++/10.3.1/bits/stl_algo.h **** 	    }
 210:/Users/lawrencestanton/Library/Application Support/Code/User/globalStorage/bmd.stm32-for-vscode/@xpack-dev-tools/arm-none-eabi-gcc/10.3.1-2.3.1/.content/arm-none-eabi/include/c++/10.3.1/bits/stl_algo.h **** 	  if (__n == 1)
 211:/Users/lawrencestanton/Library/Application Support/Code/User/globalStorage/bmd.stm32-for-vscode/@xpack-dev-tools/arm-none-eabi-gcc/10.3.1-2.3.1/.content/arm-none-eabi/include/c++/10.3.1/bits/stl_algo.h **** 	    return __first;
 212:/Users/lawrencestanton/Library/Application Support/Code/User/globalStorage/bmd.stm32-for-vscode/@xpack-dev-tools/arm-none-eabi-gcc/10.3.1-2.3.1/.content/arm-none-eabi/include/c++/10.3.1/bits/stl_algo.h **** 	  if (__i == __last)
 213:/Users/lawrencestanton/Library/Application Support/Code/User/globalStorage/bmd.stm32-for-vscode/@xpack-dev-tools/arm-none-eabi-gcc/10.3.1-2.3.1/.content/arm-none-eabi/include/c++/10.3.1/bits/stl_algo.h **** 	    return __last;
 214:/Users/lawrencestanton/Library/Application Support/Code/User/globalStorage/bmd.stm32-for-vscode/@xpack-dev-tools/arm-none-eabi-gcc/10.3.1-2.3.1/.content/arm-none-eabi/include/c++/10.3.1/bits/stl_algo.h **** 	  __first = std::__find_if(++__i, __last, __unary_pred);
 215:/Users/lawrencestanton/Library/Application Support/Code/User/globalStorage/bmd.stm32-for-vscode/@xpack-dev-tools/arm-none-eabi-gcc/10.3.1-2.3.1/.content/arm-none-eabi/include/c++/10.3.1/bits/stl_algo.h **** 	}
 216:/Users/lawrencestanton/Library/Application Support/Code/User/globalStorage/bmd.stm32-for-vscode/@xpack-dev-tools/arm-none-eabi-gcc/10.3.1-2.3.1/.content/arm-none-eabi/include/c++/10.3.1/bits/stl_algo.h ****       return __last;
 217:/Users/lawrencestanton/Library/Application Support/Code/User/globalStorage/bmd.stm32-for-vscode/@xpack-dev-tools/arm-none-eabi-gcc/10.3.1-2.3.1/.content/arm-none-eabi/include/c++/10.3.1/bits/stl_algo.h ****     }
 218:/Users/lawrencestanton/Library/Application Support/Code/User/globalStorage/bmd.stm32-for-vscode/@xpack-dev-tools/arm-none-eabi-gcc/10.3.1-2.3.1/.content/arm-none-eabi/include/c++/10.3.1/bits/stl_algo.h **** 
 219:/Users/lawrencestanton/Library/Application Support/Code/User/globalStorage/bmd.stm32-for-vscode/@xpack-dev-tools/arm-none-eabi-gcc/10.3.1-2.3.1/.content/arm-none-eabi/include/c++/10.3.1/bits/stl_algo.h ****   /**
 220:/Users/lawrencestanton/Library/Application Support/Code/User/globalStorage/bmd.stm32-for-vscode/@xpack-dev-tools/arm-none-eabi-gcc/10.3.1-2.3.1/.content/arm-none-eabi/include/c++/10.3.1/bits/stl_algo.h ****    *  This is an helper function for search_n overloaded for random access
 221:/Users/lawrencestanton/Library/Application Support/Code/User/globalStorage/bmd.stm32-for-vscode/@xpack-dev-tools/arm-none-eabi-gcc/10.3.1-2.3.1/.content/arm-none-eabi/include/c++/10.3.1/bits/stl_algo.h ****    *  iterators.
 222:/Users/lawrencestanton/Library/Application Support/Code/User/globalStorage/bmd.stm32-for-vscode/@xpack-dev-tools/arm-none-eabi-gcc/10.3.1-2.3.1/.content/arm-none-eabi/include/c++/10.3.1/bits/stl_algo.h ****   */
 223:/Users/lawrencestanton/Library/Application Support/Code/User/globalStorage/bmd.stm32-for-vscode/@xpack-dev-tools/arm-none-eabi-gcc/10.3.1-2.3.1/.content/arm-none-eabi/include/c++/10.3.1/bits/stl_algo.h ****   template<typename _RandomAccessIter, typename _Integer,
 224:/Users/lawrencestanton/Library/Application Support/Code/User/globalStorage/bmd.stm32-for-vscode/@xpack-dev-tools/arm-none-eabi-gcc/10.3.1-2.3.1/.content/arm-none-eabi/include/c++/10.3.1/bits/stl_algo.h **** 	   typename _UnaryPredicate>
 225:/Users/lawrencestanton/Library/Application Support/Code/User/globalStorage/bmd.stm32-for-vscode/@xpack-dev-tools/arm-none-eabi-gcc/10.3.1-2.3.1/.content/arm-none-eabi/include/c++/10.3.1/bits/stl_algo.h ****     _GLIBCXX20_CONSTEXPR
 226:/Users/lawrencestanton/Library/Application Support/Code/User/globalStorage/bmd.stm32-for-vscode/@xpack-dev-tools/arm-none-eabi-gcc/10.3.1-2.3.1/.content/arm-none-eabi/include/c++/10.3.1/bits/stl_algo.h ****     _RandomAccessIter
 227:/Users/lawrencestanton/Library/Application Support/Code/User/globalStorage/bmd.stm32-for-vscode/@xpack-dev-tools/arm-none-eabi-gcc/10.3.1-2.3.1/.content/arm-none-eabi/include/c++/10.3.1/bits/stl_algo.h ****     __search_n_aux(_RandomAccessIter __first, _RandomAccessIter __last,
 228:/Users/lawrencestanton/Library/Application Support/Code/User/globalStorage/bmd.stm32-for-vscode/@xpack-dev-tools/arm-none-eabi-gcc/10.3.1-2.3.1/.content/arm-none-eabi/include/c++/10.3.1/bits/stl_algo.h **** 		   _Integer __count, _UnaryPredicate __unary_pred,
 229:/Users/lawrencestanton/Library/Application Support/Code/User/globalStorage/bmd.stm32-for-vscode/@xpack-dev-tools/arm-none-eabi-gcc/10.3.1-2.3.1/.content/arm-none-eabi/include/c++/10.3.1/bits/stl_algo.h **** 		   std::random_access_iterator_tag)
 230:/Users/lawrencestanton/Library/Application Support/Code/User/globalStorage/bmd.stm32-for-vscode/@xpack-dev-tools/arm-none-eabi-gcc/10.3.1-2.3.1/.content/arm-none-eabi/include/c++/10.3.1/bits/stl_algo.h ****     {
 231:/Users/lawrencestanton/Library/Application Support/Code/User/globalStorage/bmd.stm32-for-vscode/@xpack-dev-tools/arm-none-eabi-gcc/10.3.1-2.3.1/.content/arm-none-eabi/include/c++/10.3.1/bits/stl_algo.h ****       typedef typename std::iterator_traits<_RandomAccessIter>::difference_type
 232:/Users/lawrencestanton/Library/Application Support/Code/User/globalStorage/bmd.stm32-for-vscode/@xpack-dev-tools/arm-none-eabi-gcc/10.3.1-2.3.1/.content/arm-none-eabi/include/c++/10.3.1/bits/stl_algo.h **** 	_DistanceType;
 233:/Users/lawrencestanton/Library/Application Support/Code/User/globalStorage/bmd.stm32-for-vscode/@xpack-dev-tools/arm-none-eabi-gcc/10.3.1-2.3.1/.content/arm-none-eabi/include/c++/10.3.1/bits/stl_algo.h **** 
 234:/Users/lawrencestanton/Library/Application Support/Code/User/globalStorage/bmd.stm32-for-vscode/@xpack-dev-tools/arm-none-eabi-gcc/10.3.1-2.3.1/.content/arm-none-eabi/include/c++/10.3.1/bits/stl_algo.h ****       _DistanceType __tailSize = __last - __first;
 235:/Users/lawrencestanton/Library/Application Support/Code/User/globalStorage/bmd.stm32-for-vscode/@xpack-dev-tools/arm-none-eabi-gcc/10.3.1-2.3.1/.content/arm-none-eabi/include/c++/10.3.1/bits/stl_algo.h ****       _DistanceType __remainder = __count;
 236:/Users/lawrencestanton/Library/Application Support/Code/User/globalStorage/bmd.stm32-for-vscode/@xpack-dev-tools/arm-none-eabi-gcc/10.3.1-2.3.1/.content/arm-none-eabi/include/c++/10.3.1/bits/stl_algo.h **** 
 237:/Users/lawrencestanton/Library/Application Support/Code/User/globalStorage/bmd.stm32-for-vscode/@xpack-dev-tools/arm-none-eabi-gcc/10.3.1-2.3.1/.content/arm-none-eabi/include/c++/10.3.1/bits/stl_algo.h ****       while (__remainder <= __tailSize) // the main loop...
 238:/Users/lawrencestanton/Library/Application Support/Code/User/globalStorage/bmd.stm32-for-vscode/@xpack-dev-tools/arm-none-eabi-gcc/10.3.1-2.3.1/.content/arm-none-eabi/include/c++/10.3.1/bits/stl_algo.h **** 	{
 239:/Users/lawrencestanton/Library/Application Support/Code/User/globalStorage/bmd.stm32-for-vscode/@xpack-dev-tools/arm-none-eabi-gcc/10.3.1-2.3.1/.content/arm-none-eabi/include/c++/10.3.1/bits/stl_algo.h **** 	  __first += __remainder;
 240:/Users/lawrencestanton/Library/Application Support/Code/User/globalStorage/bmd.stm32-for-vscode/@xpack-dev-tools/arm-none-eabi-gcc/10.3.1-2.3.1/.content/arm-none-eabi/include/c++/10.3.1/bits/stl_algo.h **** 	  __tailSize -= __remainder;
 241:/Users/lawrencestanton/Library/Application Support/Code/User/globalStorage/bmd.stm32-for-vscode/@xpack-dev-tools/arm-none-eabi-gcc/10.3.1-2.3.1/.content/arm-none-eabi/include/c++/10.3.1/bits/stl_algo.h **** 	  // __first here is always pointing to one past the last element of
 242:/Users/lawrencestanton/Library/Application Support/Code/User/globalStorage/bmd.stm32-for-vscode/@xpack-dev-tools/arm-none-eabi-gcc/10.3.1-2.3.1/.content/arm-none-eabi/include/c++/10.3.1/bits/stl_algo.h **** 	  // next possible match.
 243:/Users/lawrencestanton/Library/Application Support/Code/User/globalStorage/bmd.stm32-for-vscode/@xpack-dev-tools/arm-none-eabi-gcc/10.3.1-2.3.1/.content/arm-none-eabi/include/c++/10.3.1/bits/stl_algo.h **** 	  _RandomAccessIter __backTrack = __first; 
 244:/Users/lawrencestanton/Library/Application Support/Code/User/globalStorage/bmd.stm32-for-vscode/@xpack-dev-tools/arm-none-eabi-gcc/10.3.1-2.3.1/.content/arm-none-eabi/include/c++/10.3.1/bits/stl_algo.h **** 	  while (__unary_pred(--__backTrack))
 245:/Users/lawrencestanton/Library/Application Support/Code/User/globalStorage/bmd.stm32-for-vscode/@xpack-dev-tools/arm-none-eabi-gcc/10.3.1-2.3.1/.content/arm-none-eabi/include/c++/10.3.1/bits/stl_algo.h **** 	    {
ARM GAS  /var/folders/bb/dhrb69655gd8t4nf464nxc_00000gn/T//cc50CdYq.s 			page 14


 246:/Users/lawrencestanton/Library/Application Support/Code/User/globalStorage/bmd.stm32-for-vscode/@xpack-dev-tools/arm-none-eabi-gcc/10.3.1-2.3.1/.content/arm-none-eabi/include/c++/10.3.1/bits/stl_algo.h **** 	      if (--__remainder == 0)
 247:/Users/lawrencestanton/Library/Application Support/Code/User/globalStorage/bmd.stm32-for-vscode/@xpack-dev-tools/arm-none-eabi-gcc/10.3.1-2.3.1/.content/arm-none-eabi/include/c++/10.3.1/bits/stl_algo.h **** 		return (__first - __count); // Success
 248:/Users/lawrencestanton/Library/Application Support/Code/User/globalStorage/bmd.stm32-for-vscode/@xpack-dev-tools/arm-none-eabi-gcc/10.3.1-2.3.1/.content/arm-none-eabi/include/c++/10.3.1/bits/stl_algo.h **** 	    }
 249:/Users/lawrencestanton/Library/Application Support/Code/User/globalStorage/bmd.stm32-for-vscode/@xpack-dev-tools/arm-none-eabi-gcc/10.3.1-2.3.1/.content/arm-none-eabi/include/c++/10.3.1/bits/stl_algo.h **** 	  __remainder = __count + 1 - (__first - __backTrack);
 250:/Users/lawrencestanton/Library/Application Support/Code/User/globalStorage/bmd.stm32-for-vscode/@xpack-dev-tools/arm-none-eabi-gcc/10.3.1-2.3.1/.content/arm-none-eabi/include/c++/10.3.1/bits/stl_algo.h **** 	}
 251:/Users/lawrencestanton/Library/Application Support/Code/User/globalStorage/bmd.stm32-for-vscode/@xpack-dev-tools/arm-none-eabi-gcc/10.3.1-2.3.1/.content/arm-none-eabi/include/c++/10.3.1/bits/stl_algo.h ****       return __last; // Failure
 252:/Users/lawrencestanton/Library/Application Support/Code/User/globalStorage/bmd.stm32-for-vscode/@xpack-dev-tools/arm-none-eabi-gcc/10.3.1-2.3.1/.content/arm-none-eabi/include/c++/10.3.1/bits/stl_algo.h ****     }
 253:/Users/lawrencestanton/Library/Application Support/Code/User/globalStorage/bmd.stm32-for-vscode/@xpack-dev-tools/arm-none-eabi-gcc/10.3.1-2.3.1/.content/arm-none-eabi/include/c++/10.3.1/bits/stl_algo.h **** 
 254:/Users/lawrencestanton/Library/Application Support/Code/User/globalStorage/bmd.stm32-for-vscode/@xpack-dev-tools/arm-none-eabi-gcc/10.3.1-2.3.1/.content/arm-none-eabi/include/c++/10.3.1/bits/stl_algo.h ****   template<typename _ForwardIterator, typename _Integer,
 255:/Users/lawrencestanton/Library/Application Support/Code/User/globalStorage/bmd.stm32-for-vscode/@xpack-dev-tools/arm-none-eabi-gcc/10.3.1-2.3.1/.content/arm-none-eabi/include/c++/10.3.1/bits/stl_algo.h **** 	   typename _UnaryPredicate>
 256:/Users/lawrencestanton/Library/Application Support/Code/User/globalStorage/bmd.stm32-for-vscode/@xpack-dev-tools/arm-none-eabi-gcc/10.3.1-2.3.1/.content/arm-none-eabi/include/c++/10.3.1/bits/stl_algo.h ****     _GLIBCXX20_CONSTEXPR
 257:/Users/lawrencestanton/Library/Application Support/Code/User/globalStorage/bmd.stm32-for-vscode/@xpack-dev-tools/arm-none-eabi-gcc/10.3.1-2.3.1/.content/arm-none-eabi/include/c++/10.3.1/bits/stl_algo.h ****     _ForwardIterator
 258:/Users/lawrencestanton/Library/Application Support/Code/User/globalStorage/bmd.stm32-for-vscode/@xpack-dev-tools/arm-none-eabi-gcc/10.3.1-2.3.1/.content/arm-none-eabi/include/c++/10.3.1/bits/stl_algo.h ****     __search_n(_ForwardIterator __first, _ForwardIterator __last,
 259:/Users/lawrencestanton/Library/Application Support/Code/User/globalStorage/bmd.stm32-for-vscode/@xpack-dev-tools/arm-none-eabi-gcc/10.3.1-2.3.1/.content/arm-none-eabi/include/c++/10.3.1/bits/stl_algo.h **** 	       _Integer __count,
 260:/Users/lawrencestanton/Library/Application Support/Code/User/globalStorage/bmd.stm32-for-vscode/@xpack-dev-tools/arm-none-eabi-gcc/10.3.1-2.3.1/.content/arm-none-eabi/include/c++/10.3.1/bits/stl_algo.h **** 	       _UnaryPredicate __unary_pred)
 261:/Users/lawrencestanton/Library/Application Support/Code/User/globalStorage/bmd.stm32-for-vscode/@xpack-dev-tools/arm-none-eabi-gcc/10.3.1-2.3.1/.content/arm-none-eabi/include/c++/10.3.1/bits/stl_algo.h ****     {
 262:/Users/lawrencestanton/Library/Application Support/Code/User/globalStorage/bmd.stm32-for-vscode/@xpack-dev-tools/arm-none-eabi-gcc/10.3.1-2.3.1/.content/arm-none-eabi/include/c++/10.3.1/bits/stl_algo.h ****       if (__count <= 0)
 263:/Users/lawrencestanton/Library/Application Support/Code/User/globalStorage/bmd.stm32-for-vscode/@xpack-dev-tools/arm-none-eabi-gcc/10.3.1-2.3.1/.content/arm-none-eabi/include/c++/10.3.1/bits/stl_algo.h **** 	return __first;
 264:/Users/lawrencestanton/Library/Application Support/Code/User/globalStorage/bmd.stm32-for-vscode/@xpack-dev-tools/arm-none-eabi-gcc/10.3.1-2.3.1/.content/arm-none-eabi/include/c++/10.3.1/bits/stl_algo.h **** 
 265:/Users/lawrencestanton/Library/Application Support/Code/User/globalStorage/bmd.stm32-for-vscode/@xpack-dev-tools/arm-none-eabi-gcc/10.3.1-2.3.1/.content/arm-none-eabi/include/c++/10.3.1/bits/stl_algo.h ****       if (__count == 1)
 266:/Users/lawrencestanton/Library/Application Support/Code/User/globalStorage/bmd.stm32-for-vscode/@xpack-dev-tools/arm-none-eabi-gcc/10.3.1-2.3.1/.content/arm-none-eabi/include/c++/10.3.1/bits/stl_algo.h **** 	return std::__find_if(__first, __last, __unary_pred);
 267:/Users/lawrencestanton/Library/Application Support/Code/User/globalStorage/bmd.stm32-for-vscode/@xpack-dev-tools/arm-none-eabi-gcc/10.3.1-2.3.1/.content/arm-none-eabi/include/c++/10.3.1/bits/stl_algo.h **** 
 268:/Users/lawrencestanton/Library/Application Support/Code/User/globalStorage/bmd.stm32-for-vscode/@xpack-dev-tools/arm-none-eabi-gcc/10.3.1-2.3.1/.content/arm-none-eabi/include/c++/10.3.1/bits/stl_algo.h ****       return std::__search_n_aux(__first, __last, __count, __unary_pred,
 269:/Users/lawrencestanton/Library/Application Support/Code/User/globalStorage/bmd.stm32-for-vscode/@xpack-dev-tools/arm-none-eabi-gcc/10.3.1-2.3.1/.content/arm-none-eabi/include/c++/10.3.1/bits/stl_algo.h **** 				 std::__iterator_category(__first));
 270:/Users/lawrencestanton/Library/Application Support/Code/User/globalStorage/bmd.stm32-for-vscode/@xpack-dev-tools/arm-none-eabi-gcc/10.3.1-2.3.1/.content/arm-none-eabi/include/c++/10.3.1/bits/stl_algo.h ****     }
 271:/Users/lawrencestanton/Library/Application Support/Code/User/globalStorage/bmd.stm32-for-vscode/@xpack-dev-tools/arm-none-eabi-gcc/10.3.1-2.3.1/.content/arm-none-eabi/include/c++/10.3.1/bits/stl_algo.h **** 
 272:/Users/lawrencestanton/Library/Application Support/Code/User/globalStorage/bmd.stm32-for-vscode/@xpack-dev-tools/arm-none-eabi-gcc/10.3.1-2.3.1/.content/arm-none-eabi/include/c++/10.3.1/bits/stl_algo.h ****   // find_end for forward iterators.
 273:/Users/lawrencestanton/Library/Application Support/Code/User/globalStorage/bmd.stm32-for-vscode/@xpack-dev-tools/arm-none-eabi-gcc/10.3.1-2.3.1/.content/arm-none-eabi/include/c++/10.3.1/bits/stl_algo.h ****   template<typename _ForwardIterator1, typename _ForwardIterator2,
 274:/Users/lawrencestanton/Library/Application Support/Code/User/globalStorage/bmd.stm32-for-vscode/@xpack-dev-tools/arm-none-eabi-gcc/10.3.1-2.3.1/.content/arm-none-eabi/include/c++/10.3.1/bits/stl_algo.h **** 	   typename _BinaryPredicate>
 275:/Users/lawrencestanton/Library/Application Support/Code/User/globalStorage/bmd.stm32-for-vscode/@xpack-dev-tools/arm-none-eabi-gcc/10.3.1-2.3.1/.content/arm-none-eabi/include/c++/10.3.1/bits/stl_algo.h ****     _GLIBCXX20_CONSTEXPR
 276:/Users/lawrencestanton/Library/Application Support/Code/User/globalStorage/bmd.stm32-for-vscode/@xpack-dev-tools/arm-none-eabi-gcc/10.3.1-2.3.1/.content/arm-none-eabi/include/c++/10.3.1/bits/stl_algo.h ****     _ForwardIterator1
 277:/Users/lawrencestanton/Library/Application Support/Code/User/globalStorage/bmd.stm32-for-vscode/@xpack-dev-tools/arm-none-eabi-gcc/10.3.1-2.3.1/.content/arm-none-eabi/include/c++/10.3.1/bits/stl_algo.h ****     __find_end(_ForwardIterator1 __first1, _ForwardIterator1 __last1,
 278:/Users/lawrencestanton/Library/Application Support/Code/User/globalStorage/bmd.stm32-for-vscode/@xpack-dev-tools/arm-none-eabi-gcc/10.3.1-2.3.1/.content/arm-none-eabi/include/c++/10.3.1/bits/stl_algo.h **** 	       _ForwardIterator2 __first2, _ForwardIterator2 __last2,
 279:/Users/lawrencestanton/Library/Application Support/Code/User/globalStorage/bmd.stm32-for-vscode/@xpack-dev-tools/arm-none-eabi-gcc/10.3.1-2.3.1/.content/arm-none-eabi/include/c++/10.3.1/bits/stl_algo.h **** 	       forward_iterator_tag, forward_iterator_tag,
 280:/Users/lawrencestanton/Library/Application Support/Code/User/globalStorage/bmd.stm32-for-vscode/@xpack-dev-tools/arm-none-eabi-gcc/10.3.1-2.3.1/.content/arm-none-eabi/include/c++/10.3.1/bits/stl_algo.h **** 	       _BinaryPredicate __comp)
 281:/Users/lawrencestanton/Library/Application Support/Code/User/globalStorage/bmd.stm32-for-vscode/@xpack-dev-tools/arm-none-eabi-gcc/10.3.1-2.3.1/.content/arm-none-eabi/include/c++/10.3.1/bits/stl_algo.h ****     {
 282:/Users/lawrencestanton/Library/Application Support/Code/User/globalStorage/bmd.stm32-for-vscode/@xpack-dev-tools/arm-none-eabi-gcc/10.3.1-2.3.1/.content/arm-none-eabi/include/c++/10.3.1/bits/stl_algo.h ****       if (__first2 == __last2)
 283:/Users/lawrencestanton/Library/Application Support/Code/User/globalStorage/bmd.stm32-for-vscode/@xpack-dev-tools/arm-none-eabi-gcc/10.3.1-2.3.1/.content/arm-none-eabi/include/c++/10.3.1/bits/stl_algo.h **** 	return __last1;
 284:/Users/lawrencestanton/Library/Application Support/Code/User/globalStorage/bmd.stm32-for-vscode/@xpack-dev-tools/arm-none-eabi-gcc/10.3.1-2.3.1/.content/arm-none-eabi/include/c++/10.3.1/bits/stl_algo.h **** 
 285:/Users/lawrencestanton/Library/Application Support/Code/User/globalStorage/bmd.stm32-for-vscode/@xpack-dev-tools/arm-none-eabi-gcc/10.3.1-2.3.1/.content/arm-none-eabi/include/c++/10.3.1/bits/stl_algo.h ****       _ForwardIterator1 __result = __last1;
 286:/Users/lawrencestanton/Library/Application Support/Code/User/globalStorage/bmd.stm32-for-vscode/@xpack-dev-tools/arm-none-eabi-gcc/10.3.1-2.3.1/.content/arm-none-eabi/include/c++/10.3.1/bits/stl_algo.h ****       while (1)
 287:/Users/lawrencestanton/Library/Application Support/Code/User/globalStorage/bmd.stm32-for-vscode/@xpack-dev-tools/arm-none-eabi-gcc/10.3.1-2.3.1/.content/arm-none-eabi/include/c++/10.3.1/bits/stl_algo.h **** 	{
 288:/Users/lawrencestanton/Library/Application Support/Code/User/globalStorage/bmd.stm32-for-vscode/@xpack-dev-tools/arm-none-eabi-gcc/10.3.1-2.3.1/.content/arm-none-eabi/include/c++/10.3.1/bits/stl_algo.h **** 	  _ForwardIterator1 __new_result
 289:/Users/lawrencestanton/Library/Application Support/Code/User/globalStorage/bmd.stm32-for-vscode/@xpack-dev-tools/arm-none-eabi-gcc/10.3.1-2.3.1/.content/arm-none-eabi/include/c++/10.3.1/bits/stl_algo.h **** 	    = std::__search(__first1, __last1, __first2, __last2, __comp);
 290:/Users/lawrencestanton/Library/Application Support/Code/User/globalStorage/bmd.stm32-for-vscode/@xpack-dev-tools/arm-none-eabi-gcc/10.3.1-2.3.1/.content/arm-none-eabi/include/c++/10.3.1/bits/stl_algo.h **** 	  if (__new_result == __last1)
 291:/Users/lawrencestanton/Library/Application Support/Code/User/globalStorage/bmd.stm32-for-vscode/@xpack-dev-tools/arm-none-eabi-gcc/10.3.1-2.3.1/.content/arm-none-eabi/include/c++/10.3.1/bits/stl_algo.h **** 	    return __result;
 292:/Users/lawrencestanton/Library/Application Support/Code/User/globalStorage/bmd.stm32-for-vscode/@xpack-dev-tools/arm-none-eabi-gcc/10.3.1-2.3.1/.content/arm-none-eabi/include/c++/10.3.1/bits/stl_algo.h **** 	  else
 293:/Users/lawrencestanton/Library/Application Support/Code/User/globalStorage/bmd.stm32-for-vscode/@xpack-dev-tools/arm-none-eabi-gcc/10.3.1-2.3.1/.content/arm-none-eabi/include/c++/10.3.1/bits/stl_algo.h **** 	    {
 294:/Users/lawrencestanton/Library/Application Support/Code/User/globalStorage/bmd.stm32-for-vscode/@xpack-dev-tools/arm-none-eabi-gcc/10.3.1-2.3.1/.content/arm-none-eabi/include/c++/10.3.1/bits/stl_algo.h **** 	      __result = __new_result;
 295:/Users/lawrencestanton/Library/Application Support/Code/User/globalStorage/bmd.stm32-for-vscode/@xpack-dev-tools/arm-none-eabi-gcc/10.3.1-2.3.1/.content/arm-none-eabi/include/c++/10.3.1/bits/stl_algo.h **** 	      __first1 = __new_result;
 296:/Users/lawrencestanton/Library/Application Support/Code/User/globalStorage/bmd.stm32-for-vscode/@xpack-dev-tools/arm-none-eabi-gcc/10.3.1-2.3.1/.content/arm-none-eabi/include/c++/10.3.1/bits/stl_algo.h **** 	      ++__first1;
 297:/Users/lawrencestanton/Library/Application Support/Code/User/globalStorage/bmd.stm32-for-vscode/@xpack-dev-tools/arm-none-eabi-gcc/10.3.1-2.3.1/.content/arm-none-eabi/include/c++/10.3.1/bits/stl_algo.h **** 	    }
 298:/Users/lawrencestanton/Library/Application Support/Code/User/globalStorage/bmd.stm32-for-vscode/@xpack-dev-tools/arm-none-eabi-gcc/10.3.1-2.3.1/.content/arm-none-eabi/include/c++/10.3.1/bits/stl_algo.h **** 	}
 299:/Users/lawrencestanton/Library/Application Support/Code/User/globalStorage/bmd.stm32-for-vscode/@xpack-dev-tools/arm-none-eabi-gcc/10.3.1-2.3.1/.content/arm-none-eabi/include/c++/10.3.1/bits/stl_algo.h ****     }
 300:/Users/lawrencestanton/Library/Application Support/Code/User/globalStorage/bmd.stm32-for-vscode/@xpack-dev-tools/arm-none-eabi-gcc/10.3.1-2.3.1/.content/arm-none-eabi/include/c++/10.3.1/bits/stl_algo.h **** 
 301:/Users/lawrencestanton/Library/Application Support/Code/User/globalStorage/bmd.stm32-for-vscode/@xpack-dev-tools/arm-none-eabi-gcc/10.3.1-2.3.1/.content/arm-none-eabi/include/c++/10.3.1/bits/stl_algo.h ****   // find_end for bidirectional iterators (much faster).
 302:/Users/lawrencestanton/Library/Application Support/Code/User/globalStorage/bmd.stm32-for-vscode/@xpack-dev-tools/arm-none-eabi-gcc/10.3.1-2.3.1/.content/arm-none-eabi/include/c++/10.3.1/bits/stl_algo.h ****   template<typename _BidirectionalIterator1, typename _BidirectionalIterator2,
ARM GAS  /var/folders/bb/dhrb69655gd8t4nf464nxc_00000gn/T//cc50CdYq.s 			page 15


 303:/Users/lawrencestanton/Library/Application Support/Code/User/globalStorage/bmd.stm32-for-vscode/@xpack-dev-tools/arm-none-eabi-gcc/10.3.1-2.3.1/.content/arm-none-eabi/include/c++/10.3.1/bits/stl_algo.h **** 	   typename _BinaryPredicate>
 304:/Users/lawrencestanton/Library/Application Support/Code/User/globalStorage/bmd.stm32-for-vscode/@xpack-dev-tools/arm-none-eabi-gcc/10.3.1-2.3.1/.content/arm-none-eabi/include/c++/10.3.1/bits/stl_algo.h ****     _GLIBCXX20_CONSTEXPR
 305:/Users/lawrencestanton/Library/Application Support/Code/User/globalStorage/bmd.stm32-for-vscode/@xpack-dev-tools/arm-none-eabi-gcc/10.3.1-2.3.1/.content/arm-none-eabi/include/c++/10.3.1/bits/stl_algo.h ****     _BidirectionalIterator1
 306:/Users/lawrencestanton/Library/Application Support/Code/User/globalStorage/bmd.stm32-for-vscode/@xpack-dev-tools/arm-none-eabi-gcc/10.3.1-2.3.1/.content/arm-none-eabi/include/c++/10.3.1/bits/stl_algo.h ****     __find_end(_BidirectionalIterator1 __first1,
 307:/Users/lawrencestanton/Library/Application Support/Code/User/globalStorage/bmd.stm32-for-vscode/@xpack-dev-tools/arm-none-eabi-gcc/10.3.1-2.3.1/.content/arm-none-eabi/include/c++/10.3.1/bits/stl_algo.h **** 	       _BidirectionalIterator1 __last1,
 308:/Users/lawrencestanton/Library/Application Support/Code/User/globalStorage/bmd.stm32-for-vscode/@xpack-dev-tools/arm-none-eabi-gcc/10.3.1-2.3.1/.content/arm-none-eabi/include/c++/10.3.1/bits/stl_algo.h **** 	       _BidirectionalIterator2 __first2,
 309:/Users/lawrencestanton/Library/Application Support/Code/User/globalStorage/bmd.stm32-for-vscode/@xpack-dev-tools/arm-none-eabi-gcc/10.3.1-2.3.1/.content/arm-none-eabi/include/c++/10.3.1/bits/stl_algo.h **** 	       _BidirectionalIterator2 __last2,
 310:/Users/lawrencestanton/Library/Application Support/Code/User/globalStorage/bmd.stm32-for-vscode/@xpack-dev-tools/arm-none-eabi-gcc/10.3.1-2.3.1/.content/arm-none-eabi/include/c++/10.3.1/bits/stl_algo.h **** 	       bidirectional_iterator_tag, bidirectional_iterator_tag,
 311:/Users/lawrencestanton/Library/Application Support/Code/User/globalStorage/bmd.stm32-for-vscode/@xpack-dev-tools/arm-none-eabi-gcc/10.3.1-2.3.1/.content/arm-none-eabi/include/c++/10.3.1/bits/stl_algo.h **** 	       _BinaryPredicate __comp)
 312:/Users/lawrencestanton/Library/Application Support/Code/User/globalStorage/bmd.stm32-for-vscode/@xpack-dev-tools/arm-none-eabi-gcc/10.3.1-2.3.1/.content/arm-none-eabi/include/c++/10.3.1/bits/stl_algo.h ****     {
 313:/Users/lawrencestanton/Library/Application Support/Code/User/globalStorage/bmd.stm32-for-vscode/@xpack-dev-tools/arm-none-eabi-gcc/10.3.1-2.3.1/.content/arm-none-eabi/include/c++/10.3.1/bits/stl_algo.h ****       // concept requirements
 314:/Users/lawrencestanton/Library/Application Support/Code/User/globalStorage/bmd.stm32-for-vscode/@xpack-dev-tools/arm-none-eabi-gcc/10.3.1-2.3.1/.content/arm-none-eabi/include/c++/10.3.1/bits/stl_algo.h ****       __glibcxx_function_requires(_BidirectionalIteratorConcept<
 315:/Users/lawrencestanton/Library/Application Support/Code/User/globalStorage/bmd.stm32-for-vscode/@xpack-dev-tools/arm-none-eabi-gcc/10.3.1-2.3.1/.content/arm-none-eabi/include/c++/10.3.1/bits/stl_algo.h **** 				  _BidirectionalIterator1>)
 316:/Users/lawrencestanton/Library/Application Support/Code/User/globalStorage/bmd.stm32-for-vscode/@xpack-dev-tools/arm-none-eabi-gcc/10.3.1-2.3.1/.content/arm-none-eabi/include/c++/10.3.1/bits/stl_algo.h ****       __glibcxx_function_requires(_BidirectionalIteratorConcept<
 317:/Users/lawrencestanton/Library/Application Support/Code/User/globalStorage/bmd.stm32-for-vscode/@xpack-dev-tools/arm-none-eabi-gcc/10.3.1-2.3.1/.content/arm-none-eabi/include/c++/10.3.1/bits/stl_algo.h **** 				  _BidirectionalIterator2>)
 318:/Users/lawrencestanton/Library/Application Support/Code/User/globalStorage/bmd.stm32-for-vscode/@xpack-dev-tools/arm-none-eabi-gcc/10.3.1-2.3.1/.content/arm-none-eabi/include/c++/10.3.1/bits/stl_algo.h **** 
 319:/Users/lawrencestanton/Library/Application Support/Code/User/globalStorage/bmd.stm32-for-vscode/@xpack-dev-tools/arm-none-eabi-gcc/10.3.1-2.3.1/.content/arm-none-eabi/include/c++/10.3.1/bits/stl_algo.h ****       typedef reverse_iterator<_BidirectionalIterator1> _RevIterator1;
 320:/Users/lawrencestanton/Library/Application Support/Code/User/globalStorage/bmd.stm32-for-vscode/@xpack-dev-tools/arm-none-eabi-gcc/10.3.1-2.3.1/.content/arm-none-eabi/include/c++/10.3.1/bits/stl_algo.h ****       typedef reverse_iterator<_BidirectionalIterator2> _RevIterator2;
 321:/Users/lawrencestanton/Library/Application Support/Code/User/globalStorage/bmd.stm32-for-vscode/@xpack-dev-tools/arm-none-eabi-gcc/10.3.1-2.3.1/.content/arm-none-eabi/include/c++/10.3.1/bits/stl_algo.h **** 
 322:/Users/lawrencestanton/Library/Application Support/Code/User/globalStorage/bmd.stm32-for-vscode/@xpack-dev-tools/arm-none-eabi-gcc/10.3.1-2.3.1/.content/arm-none-eabi/include/c++/10.3.1/bits/stl_algo.h ****       _RevIterator1 __rlast1(__first1);
 323:/Users/lawrencestanton/Library/Application Support/Code/User/globalStorage/bmd.stm32-for-vscode/@xpack-dev-tools/arm-none-eabi-gcc/10.3.1-2.3.1/.content/arm-none-eabi/include/c++/10.3.1/bits/stl_algo.h ****       _RevIterator2 __rlast2(__first2);
 324:/Users/lawrencestanton/Library/Application Support/Code/User/globalStorage/bmd.stm32-for-vscode/@xpack-dev-tools/arm-none-eabi-gcc/10.3.1-2.3.1/.content/arm-none-eabi/include/c++/10.3.1/bits/stl_algo.h ****       _RevIterator1 __rresult = std::__search(_RevIterator1(__last1), __rlast1,
 325:/Users/lawrencestanton/Library/Application Support/Code/User/globalStorage/bmd.stm32-for-vscode/@xpack-dev-tools/arm-none-eabi-gcc/10.3.1-2.3.1/.content/arm-none-eabi/include/c++/10.3.1/bits/stl_algo.h **** 					      _RevIterator2(__last2), __rlast2,
 326:/Users/lawrencestanton/Library/Application Support/Code/User/globalStorage/bmd.stm32-for-vscode/@xpack-dev-tools/arm-none-eabi-gcc/10.3.1-2.3.1/.content/arm-none-eabi/include/c++/10.3.1/bits/stl_algo.h **** 					      __comp);
 327:/Users/lawrencestanton/Library/Application Support/Code/User/globalStorage/bmd.stm32-for-vscode/@xpack-dev-tools/arm-none-eabi-gcc/10.3.1-2.3.1/.content/arm-none-eabi/include/c++/10.3.1/bits/stl_algo.h **** 
 328:/Users/lawrencestanton/Library/Application Support/Code/User/globalStorage/bmd.stm32-for-vscode/@xpack-dev-tools/arm-none-eabi-gcc/10.3.1-2.3.1/.content/arm-none-eabi/include/c++/10.3.1/bits/stl_algo.h ****       if (__rresult == __rlast1)
 329:/Users/lawrencestanton/Library/Application Support/Code/User/globalStorage/bmd.stm32-for-vscode/@xpack-dev-tools/arm-none-eabi-gcc/10.3.1-2.3.1/.content/arm-none-eabi/include/c++/10.3.1/bits/stl_algo.h **** 	return __last1;
 330:/Users/lawrencestanton/Library/Application Support/Code/User/globalStorage/bmd.stm32-for-vscode/@xpack-dev-tools/arm-none-eabi-gcc/10.3.1-2.3.1/.content/arm-none-eabi/include/c++/10.3.1/bits/stl_algo.h ****       else
 331:/Users/lawrencestanton/Library/Application Support/Code/User/globalStorage/bmd.stm32-for-vscode/@xpack-dev-tools/arm-none-eabi-gcc/10.3.1-2.3.1/.content/arm-none-eabi/include/c++/10.3.1/bits/stl_algo.h **** 	{
 332:/Users/lawrencestanton/Library/Application Support/Code/User/globalStorage/bmd.stm32-for-vscode/@xpack-dev-tools/arm-none-eabi-gcc/10.3.1-2.3.1/.content/arm-none-eabi/include/c++/10.3.1/bits/stl_algo.h **** 	  _BidirectionalIterator1 __result = __rresult.base();
 333:/Users/lawrencestanton/Library/Application Support/Code/User/globalStorage/bmd.stm32-for-vscode/@xpack-dev-tools/arm-none-eabi-gcc/10.3.1-2.3.1/.content/arm-none-eabi/include/c++/10.3.1/bits/stl_algo.h **** 	  std::advance(__result, -std::distance(__first2, __last2));
 334:/Users/lawrencestanton/Library/Application Support/Code/User/globalStorage/bmd.stm32-for-vscode/@xpack-dev-tools/arm-none-eabi-gcc/10.3.1-2.3.1/.content/arm-none-eabi/include/c++/10.3.1/bits/stl_algo.h **** 	  return __result;
 335:/Users/lawrencestanton/Library/Application Support/Code/User/globalStorage/bmd.stm32-for-vscode/@xpack-dev-tools/arm-none-eabi-gcc/10.3.1-2.3.1/.content/arm-none-eabi/include/c++/10.3.1/bits/stl_algo.h **** 	}
 336:/Users/lawrencestanton/Library/Application Support/Code/User/globalStorage/bmd.stm32-for-vscode/@xpack-dev-tools/arm-none-eabi-gcc/10.3.1-2.3.1/.content/arm-none-eabi/include/c++/10.3.1/bits/stl_algo.h ****     }
 337:/Users/lawrencestanton/Library/Application Support/Code/User/globalStorage/bmd.stm32-for-vscode/@xpack-dev-tools/arm-none-eabi-gcc/10.3.1-2.3.1/.content/arm-none-eabi/include/c++/10.3.1/bits/stl_algo.h **** 
 338:/Users/lawrencestanton/Library/Application Support/Code/User/globalStorage/bmd.stm32-for-vscode/@xpack-dev-tools/arm-none-eabi-gcc/10.3.1-2.3.1/.content/arm-none-eabi/include/c++/10.3.1/bits/stl_algo.h ****   /**
 339:/Users/lawrencestanton/Library/Application Support/Code/User/globalStorage/bmd.stm32-for-vscode/@xpack-dev-tools/arm-none-eabi-gcc/10.3.1-2.3.1/.content/arm-none-eabi/include/c++/10.3.1/bits/stl_algo.h ****    *  @brief  Find last matching subsequence in a sequence.
 340:/Users/lawrencestanton/Library/Application Support/Code/User/globalStorage/bmd.stm32-for-vscode/@xpack-dev-tools/arm-none-eabi-gcc/10.3.1-2.3.1/.content/arm-none-eabi/include/c++/10.3.1/bits/stl_algo.h ****    *  @ingroup non_mutating_algorithms
 341:/Users/lawrencestanton/Library/Application Support/Code/User/globalStorage/bmd.stm32-for-vscode/@xpack-dev-tools/arm-none-eabi-gcc/10.3.1-2.3.1/.content/arm-none-eabi/include/c++/10.3.1/bits/stl_algo.h ****    *  @param  __first1  Start of range to search.
 342:/Users/lawrencestanton/Library/Application Support/Code/User/globalStorage/bmd.stm32-for-vscode/@xpack-dev-tools/arm-none-eabi-gcc/10.3.1-2.3.1/.content/arm-none-eabi/include/c++/10.3.1/bits/stl_algo.h ****    *  @param  __last1   End of range to search.
 343:/Users/lawrencestanton/Library/Application Support/Code/User/globalStorage/bmd.stm32-for-vscode/@xpack-dev-tools/arm-none-eabi-gcc/10.3.1-2.3.1/.content/arm-none-eabi/include/c++/10.3.1/bits/stl_algo.h ****    *  @param  __first2  Start of sequence to match.
 344:/Users/lawrencestanton/Library/Application Support/Code/User/globalStorage/bmd.stm32-for-vscode/@xpack-dev-tools/arm-none-eabi-gcc/10.3.1-2.3.1/.content/arm-none-eabi/include/c++/10.3.1/bits/stl_algo.h ****    *  @param  __last2   End of sequence to match.
 345:/Users/lawrencestanton/Library/Application Support/Code/User/globalStorage/bmd.stm32-for-vscode/@xpack-dev-tools/arm-none-eabi-gcc/10.3.1-2.3.1/.content/arm-none-eabi/include/c++/10.3.1/bits/stl_algo.h ****    *  @return   The last iterator @c i in the range
 346:/Users/lawrencestanton/Library/Application Support/Code/User/globalStorage/bmd.stm32-for-vscode/@xpack-dev-tools/arm-none-eabi-gcc/10.3.1-2.3.1/.content/arm-none-eabi/include/c++/10.3.1/bits/stl_algo.h ****    *  @p [__first1,__last1-(__last2-__first2)) such that @c *(i+N) ==
 347:/Users/lawrencestanton/Library/Application Support/Code/User/globalStorage/bmd.stm32-for-vscode/@xpack-dev-tools/arm-none-eabi-gcc/10.3.1-2.3.1/.content/arm-none-eabi/include/c++/10.3.1/bits/stl_algo.h ****    *  @p *(__first2+N) for each @c N in the range @p
 348:/Users/lawrencestanton/Library/Application Support/Code/User/globalStorage/bmd.stm32-for-vscode/@xpack-dev-tools/arm-none-eabi-gcc/10.3.1-2.3.1/.content/arm-none-eabi/include/c++/10.3.1/bits/stl_algo.h ****    *  [0,__last2-__first2), or @p __last1 if no such iterator exists.
 349:/Users/lawrencestanton/Library/Application Support/Code/User/globalStorage/bmd.stm32-for-vscode/@xpack-dev-tools/arm-none-eabi-gcc/10.3.1-2.3.1/.content/arm-none-eabi/include/c++/10.3.1/bits/stl_algo.h ****    *
 350:/Users/lawrencestanton/Library/Application Support/Code/User/globalStorage/bmd.stm32-for-vscode/@xpack-dev-tools/arm-none-eabi-gcc/10.3.1-2.3.1/.content/arm-none-eabi/include/c++/10.3.1/bits/stl_algo.h ****    *  Searches the range @p [__first1,__last1) for a sub-sequence that
 351:/Users/lawrencestanton/Library/Application Support/Code/User/globalStorage/bmd.stm32-for-vscode/@xpack-dev-tools/arm-none-eabi-gcc/10.3.1-2.3.1/.content/arm-none-eabi/include/c++/10.3.1/bits/stl_algo.h ****    *  compares equal value-by-value with the sequence given by @p
 352:/Users/lawrencestanton/Library/Application Support/Code/User/globalStorage/bmd.stm32-for-vscode/@xpack-dev-tools/arm-none-eabi-gcc/10.3.1-2.3.1/.content/arm-none-eabi/include/c++/10.3.1/bits/stl_algo.h ****    *  [__first2,__last2) and returns an iterator to the __first
 353:/Users/lawrencestanton/Library/Application Support/Code/User/globalStorage/bmd.stm32-for-vscode/@xpack-dev-tools/arm-none-eabi-gcc/10.3.1-2.3.1/.content/arm-none-eabi/include/c++/10.3.1/bits/stl_algo.h ****    *  element of the sub-sequence, or @p __last1 if the sub-sequence
 354:/Users/lawrencestanton/Library/Application Support/Code/User/globalStorage/bmd.stm32-for-vscode/@xpack-dev-tools/arm-none-eabi-gcc/10.3.1-2.3.1/.content/arm-none-eabi/include/c++/10.3.1/bits/stl_algo.h ****    *  is not found.  The sub-sequence will be the last such
 355:/Users/lawrencestanton/Library/Application Support/Code/User/globalStorage/bmd.stm32-for-vscode/@xpack-dev-tools/arm-none-eabi-gcc/10.3.1-2.3.1/.content/arm-none-eabi/include/c++/10.3.1/bits/stl_algo.h ****    *  subsequence contained in [__first1,__last1).
 356:/Users/lawrencestanton/Library/Application Support/Code/User/globalStorage/bmd.stm32-for-vscode/@xpack-dev-tools/arm-none-eabi-gcc/10.3.1-2.3.1/.content/arm-none-eabi/include/c++/10.3.1/bits/stl_algo.h ****    *
 357:/Users/lawrencestanton/Library/Application Support/Code/User/globalStorage/bmd.stm32-for-vscode/@xpack-dev-tools/arm-none-eabi-gcc/10.3.1-2.3.1/.content/arm-none-eabi/include/c++/10.3.1/bits/stl_algo.h ****    *  Because the sub-sequence must lie completely within the range @p
 358:/Users/lawrencestanton/Library/Application Support/Code/User/globalStorage/bmd.stm32-for-vscode/@xpack-dev-tools/arm-none-eabi-gcc/10.3.1-2.3.1/.content/arm-none-eabi/include/c++/10.3.1/bits/stl_algo.h ****    *  [__first1,__last1) it must start at a position less than @p
 359:/Users/lawrencestanton/Library/Application Support/Code/User/globalStorage/bmd.stm32-for-vscode/@xpack-dev-tools/arm-none-eabi-gcc/10.3.1-2.3.1/.content/arm-none-eabi/include/c++/10.3.1/bits/stl_algo.h ****    *  __last1-(__last2-__first2) where @p __last2-__first2 is the
ARM GAS  /var/folders/bb/dhrb69655gd8t4nf464nxc_00000gn/T//cc50CdYq.s 			page 16


 360:/Users/lawrencestanton/Library/Application Support/Code/User/globalStorage/bmd.stm32-for-vscode/@xpack-dev-tools/arm-none-eabi-gcc/10.3.1-2.3.1/.content/arm-none-eabi/include/c++/10.3.1/bits/stl_algo.h ****    *  length of the sub-sequence.  This means that the returned
 361:/Users/lawrencestanton/Library/Application Support/Code/User/globalStorage/bmd.stm32-for-vscode/@xpack-dev-tools/arm-none-eabi-gcc/10.3.1-2.3.1/.content/arm-none-eabi/include/c++/10.3.1/bits/stl_algo.h ****    *  iterator @c i will be in the range @p
 362:/Users/lawrencestanton/Library/Application Support/Code/User/globalStorage/bmd.stm32-for-vscode/@xpack-dev-tools/arm-none-eabi-gcc/10.3.1-2.3.1/.content/arm-none-eabi/include/c++/10.3.1/bits/stl_algo.h ****    *  [__first1,__last1-(__last2-__first2))
 363:/Users/lawrencestanton/Library/Application Support/Code/User/globalStorage/bmd.stm32-for-vscode/@xpack-dev-tools/arm-none-eabi-gcc/10.3.1-2.3.1/.content/arm-none-eabi/include/c++/10.3.1/bits/stl_algo.h ****   */
 364:/Users/lawrencestanton/Library/Application Support/Code/User/globalStorage/bmd.stm32-for-vscode/@xpack-dev-tools/arm-none-eabi-gcc/10.3.1-2.3.1/.content/arm-none-eabi/include/c++/10.3.1/bits/stl_algo.h ****   template<typename _ForwardIterator1, typename _ForwardIterator2>
 365:/Users/lawrencestanton/Library/Application Support/Code/User/globalStorage/bmd.stm32-for-vscode/@xpack-dev-tools/arm-none-eabi-gcc/10.3.1-2.3.1/.content/arm-none-eabi/include/c++/10.3.1/bits/stl_algo.h ****     _GLIBCXX20_CONSTEXPR
 366:/Users/lawrencestanton/Library/Application Support/Code/User/globalStorage/bmd.stm32-for-vscode/@xpack-dev-tools/arm-none-eabi-gcc/10.3.1-2.3.1/.content/arm-none-eabi/include/c++/10.3.1/bits/stl_algo.h ****     inline _ForwardIterator1
 367:/Users/lawrencestanton/Library/Application Support/Code/User/globalStorage/bmd.stm32-for-vscode/@xpack-dev-tools/arm-none-eabi-gcc/10.3.1-2.3.1/.content/arm-none-eabi/include/c++/10.3.1/bits/stl_algo.h ****     find_end(_ForwardIterator1 __first1, _ForwardIterator1 __last1,
 368:/Users/lawrencestanton/Library/Application Support/Code/User/globalStorage/bmd.stm32-for-vscode/@xpack-dev-tools/arm-none-eabi-gcc/10.3.1-2.3.1/.content/arm-none-eabi/include/c++/10.3.1/bits/stl_algo.h **** 	     _ForwardIterator2 __first2, _ForwardIterator2 __last2)
 369:/Users/lawrencestanton/Library/Application Support/Code/User/globalStorage/bmd.stm32-for-vscode/@xpack-dev-tools/arm-none-eabi-gcc/10.3.1-2.3.1/.content/arm-none-eabi/include/c++/10.3.1/bits/stl_algo.h ****     {
 370:/Users/lawrencestanton/Library/Application Support/Code/User/globalStorage/bmd.stm32-for-vscode/@xpack-dev-tools/arm-none-eabi-gcc/10.3.1-2.3.1/.content/arm-none-eabi/include/c++/10.3.1/bits/stl_algo.h ****       // concept requirements
 371:/Users/lawrencestanton/Library/Application Support/Code/User/globalStorage/bmd.stm32-for-vscode/@xpack-dev-tools/arm-none-eabi-gcc/10.3.1-2.3.1/.content/arm-none-eabi/include/c++/10.3.1/bits/stl_algo.h ****       __glibcxx_function_requires(_ForwardIteratorConcept<_ForwardIterator1>)
 372:/Users/lawrencestanton/Library/Application Support/Code/User/globalStorage/bmd.stm32-for-vscode/@xpack-dev-tools/arm-none-eabi-gcc/10.3.1-2.3.1/.content/arm-none-eabi/include/c++/10.3.1/bits/stl_algo.h ****       __glibcxx_function_requires(_ForwardIteratorConcept<_ForwardIterator2>)
 373:/Users/lawrencestanton/Library/Application Support/Code/User/globalStorage/bmd.stm32-for-vscode/@xpack-dev-tools/arm-none-eabi-gcc/10.3.1-2.3.1/.content/arm-none-eabi/include/c++/10.3.1/bits/stl_algo.h ****       __glibcxx_function_requires(_EqualOpConcept<
 374:/Users/lawrencestanton/Library/Application Support/Code/User/globalStorage/bmd.stm32-for-vscode/@xpack-dev-tools/arm-none-eabi-gcc/10.3.1-2.3.1/.content/arm-none-eabi/include/c++/10.3.1/bits/stl_algo.h **** 	    typename iterator_traits<_ForwardIterator1>::value_type,
 375:/Users/lawrencestanton/Library/Application Support/Code/User/globalStorage/bmd.stm32-for-vscode/@xpack-dev-tools/arm-none-eabi-gcc/10.3.1-2.3.1/.content/arm-none-eabi/include/c++/10.3.1/bits/stl_algo.h **** 	    typename iterator_traits<_ForwardIterator2>::value_type>)
 376:/Users/lawrencestanton/Library/Application Support/Code/User/globalStorage/bmd.stm32-for-vscode/@xpack-dev-tools/arm-none-eabi-gcc/10.3.1-2.3.1/.content/arm-none-eabi/include/c++/10.3.1/bits/stl_algo.h ****       __glibcxx_requires_valid_range(__first1, __last1);
 377:/Users/lawrencestanton/Library/Application Support/Code/User/globalStorage/bmd.stm32-for-vscode/@xpack-dev-tools/arm-none-eabi-gcc/10.3.1-2.3.1/.content/arm-none-eabi/include/c++/10.3.1/bits/stl_algo.h ****       __glibcxx_requires_valid_range(__first2, __last2);
 378:/Users/lawrencestanton/Library/Application Support/Code/User/globalStorage/bmd.stm32-for-vscode/@xpack-dev-tools/arm-none-eabi-gcc/10.3.1-2.3.1/.content/arm-none-eabi/include/c++/10.3.1/bits/stl_algo.h **** 
 379:/Users/lawrencestanton/Library/Application Support/Code/User/globalStorage/bmd.stm32-for-vscode/@xpack-dev-tools/arm-none-eabi-gcc/10.3.1-2.3.1/.content/arm-none-eabi/include/c++/10.3.1/bits/stl_algo.h ****       return std::__find_end(__first1, __last1, __first2, __last2,
 380:/Users/lawrencestanton/Library/Application Support/Code/User/globalStorage/bmd.stm32-for-vscode/@xpack-dev-tools/arm-none-eabi-gcc/10.3.1-2.3.1/.content/arm-none-eabi/include/c++/10.3.1/bits/stl_algo.h **** 			     std::__iterator_category(__first1),
 381:/Users/lawrencestanton/Library/Application Support/Code/User/globalStorage/bmd.stm32-for-vscode/@xpack-dev-tools/arm-none-eabi-gcc/10.3.1-2.3.1/.content/arm-none-eabi/include/c++/10.3.1/bits/stl_algo.h **** 			     std::__iterator_category(__first2),
 382:/Users/lawrencestanton/Library/Application Support/Code/User/globalStorage/bmd.stm32-for-vscode/@xpack-dev-tools/arm-none-eabi-gcc/10.3.1-2.3.1/.content/arm-none-eabi/include/c++/10.3.1/bits/stl_algo.h **** 			     __gnu_cxx::__ops::__iter_equal_to_iter());
 383:/Users/lawrencestanton/Library/Application Support/Code/User/globalStorage/bmd.stm32-for-vscode/@xpack-dev-tools/arm-none-eabi-gcc/10.3.1-2.3.1/.content/arm-none-eabi/include/c++/10.3.1/bits/stl_algo.h ****     }
 384:/Users/lawrencestanton/Library/Application Support/Code/User/globalStorage/bmd.stm32-for-vscode/@xpack-dev-tools/arm-none-eabi-gcc/10.3.1-2.3.1/.content/arm-none-eabi/include/c++/10.3.1/bits/stl_algo.h **** 
 385:/Users/lawrencestanton/Library/Application Support/Code/User/globalStorage/bmd.stm32-for-vscode/@xpack-dev-tools/arm-none-eabi-gcc/10.3.1-2.3.1/.content/arm-none-eabi/include/c++/10.3.1/bits/stl_algo.h ****   /**
 386:/Users/lawrencestanton/Library/Application Support/Code/User/globalStorage/bmd.stm32-for-vscode/@xpack-dev-tools/arm-none-eabi-gcc/10.3.1-2.3.1/.content/arm-none-eabi/include/c++/10.3.1/bits/stl_algo.h ****    *  @brief  Find last matching subsequence in a sequence using a predicate.
 387:/Users/lawrencestanton/Library/Application Support/Code/User/globalStorage/bmd.stm32-for-vscode/@xpack-dev-tools/arm-none-eabi-gcc/10.3.1-2.3.1/.content/arm-none-eabi/include/c++/10.3.1/bits/stl_algo.h ****    *  @ingroup non_mutating_algorithms
 388:/Users/lawrencestanton/Library/Application Support/Code/User/globalStorage/bmd.stm32-for-vscode/@xpack-dev-tools/arm-none-eabi-gcc/10.3.1-2.3.1/.content/arm-none-eabi/include/c++/10.3.1/bits/stl_algo.h ****    *  @param  __first1  Start of range to search.
 389:/Users/lawrencestanton/Library/Application Support/Code/User/globalStorage/bmd.stm32-for-vscode/@xpack-dev-tools/arm-none-eabi-gcc/10.3.1-2.3.1/.content/arm-none-eabi/include/c++/10.3.1/bits/stl_algo.h ****    *  @param  __last1   End of range to search.
 390:/Users/lawrencestanton/Library/Application Support/Code/User/globalStorage/bmd.stm32-for-vscode/@xpack-dev-tools/arm-none-eabi-gcc/10.3.1-2.3.1/.content/arm-none-eabi/include/c++/10.3.1/bits/stl_algo.h ****    *  @param  __first2  Start of sequence to match.
 391:/Users/lawrencestanton/Library/Application Support/Code/User/globalStorage/bmd.stm32-for-vscode/@xpack-dev-tools/arm-none-eabi-gcc/10.3.1-2.3.1/.content/arm-none-eabi/include/c++/10.3.1/bits/stl_algo.h ****    *  @param  __last2   End of sequence to match.
 392:/Users/lawrencestanton/Library/Application Support/Code/User/globalStorage/bmd.stm32-for-vscode/@xpack-dev-tools/arm-none-eabi-gcc/10.3.1-2.3.1/.content/arm-none-eabi/include/c++/10.3.1/bits/stl_algo.h ****    *  @param  __comp    The predicate to use.
 393:/Users/lawrencestanton/Library/Application Support/Code/User/globalStorage/bmd.stm32-for-vscode/@xpack-dev-tools/arm-none-eabi-gcc/10.3.1-2.3.1/.content/arm-none-eabi/include/c++/10.3.1/bits/stl_algo.h ****    *  @return The last iterator @c i in the range @p
 394:/Users/lawrencestanton/Library/Application Support/Code/User/globalStorage/bmd.stm32-for-vscode/@xpack-dev-tools/arm-none-eabi-gcc/10.3.1-2.3.1/.content/arm-none-eabi/include/c++/10.3.1/bits/stl_algo.h ****    *  [__first1,__last1-(__last2-__first2)) such that @c
 395:/Users/lawrencestanton/Library/Application Support/Code/User/globalStorage/bmd.stm32-for-vscode/@xpack-dev-tools/arm-none-eabi-gcc/10.3.1-2.3.1/.content/arm-none-eabi/include/c++/10.3.1/bits/stl_algo.h ****    *  predicate(*(i+N), @p (__first2+N)) is true for each @c N in the
 396:/Users/lawrencestanton/Library/Application Support/Code/User/globalStorage/bmd.stm32-for-vscode/@xpack-dev-tools/arm-none-eabi-gcc/10.3.1-2.3.1/.content/arm-none-eabi/include/c++/10.3.1/bits/stl_algo.h ****    *  range @p [0,__last2-__first2), or @p __last1 if no such iterator
 397:/Users/lawrencestanton/Library/Application Support/Code/User/globalStorage/bmd.stm32-for-vscode/@xpack-dev-tools/arm-none-eabi-gcc/10.3.1-2.3.1/.content/arm-none-eabi/include/c++/10.3.1/bits/stl_algo.h ****    *  exists.
 398:/Users/lawrencestanton/Library/Application Support/Code/User/globalStorage/bmd.stm32-for-vscode/@xpack-dev-tools/arm-none-eabi-gcc/10.3.1-2.3.1/.content/arm-none-eabi/include/c++/10.3.1/bits/stl_algo.h ****    *
 399:/Users/lawrencestanton/Library/Application Support/Code/User/globalStorage/bmd.stm32-for-vscode/@xpack-dev-tools/arm-none-eabi-gcc/10.3.1-2.3.1/.content/arm-none-eabi/include/c++/10.3.1/bits/stl_algo.h ****    *  Searches the range @p [__first1,__last1) for a sub-sequence that
 400:/Users/lawrencestanton/Library/Application Support/Code/User/globalStorage/bmd.stm32-for-vscode/@xpack-dev-tools/arm-none-eabi-gcc/10.3.1-2.3.1/.content/arm-none-eabi/include/c++/10.3.1/bits/stl_algo.h ****    *  compares equal value-by-value with the sequence given by @p
 401:/Users/lawrencestanton/Library/Application Support/Code/User/globalStorage/bmd.stm32-for-vscode/@xpack-dev-tools/arm-none-eabi-gcc/10.3.1-2.3.1/.content/arm-none-eabi/include/c++/10.3.1/bits/stl_algo.h ****    *  [__first2,__last2) using comp as a predicate and returns an
 402:/Users/lawrencestanton/Library/Application Support/Code/User/globalStorage/bmd.stm32-for-vscode/@xpack-dev-tools/arm-none-eabi-gcc/10.3.1-2.3.1/.content/arm-none-eabi/include/c++/10.3.1/bits/stl_algo.h ****    *  iterator to the first element of the sub-sequence, or @p __last1
 403:/Users/lawrencestanton/Library/Application Support/Code/User/globalStorage/bmd.stm32-for-vscode/@xpack-dev-tools/arm-none-eabi-gcc/10.3.1-2.3.1/.content/arm-none-eabi/include/c++/10.3.1/bits/stl_algo.h ****    *  if the sub-sequence is not found.  The sub-sequence will be the
 404:/Users/lawrencestanton/Library/Application Support/Code/User/globalStorage/bmd.stm32-for-vscode/@xpack-dev-tools/arm-none-eabi-gcc/10.3.1-2.3.1/.content/arm-none-eabi/include/c++/10.3.1/bits/stl_algo.h ****    *  last such subsequence contained in [__first,__last1).
 405:/Users/lawrencestanton/Library/Application Support/Code/User/globalStorage/bmd.stm32-for-vscode/@xpack-dev-tools/arm-none-eabi-gcc/10.3.1-2.3.1/.content/arm-none-eabi/include/c++/10.3.1/bits/stl_algo.h ****    *
 406:/Users/lawrencestanton/Library/Application Support/Code/User/globalStorage/bmd.stm32-for-vscode/@xpack-dev-tools/arm-none-eabi-gcc/10.3.1-2.3.1/.content/arm-none-eabi/include/c++/10.3.1/bits/stl_algo.h ****    *  Because the sub-sequence must lie completely within the range @p
 407:/Users/lawrencestanton/Library/Application Support/Code/User/globalStorage/bmd.stm32-for-vscode/@xpack-dev-tools/arm-none-eabi-gcc/10.3.1-2.3.1/.content/arm-none-eabi/include/c++/10.3.1/bits/stl_algo.h ****    *  [__first1,__last1) it must start at a position less than @p
 408:/Users/lawrencestanton/Library/Application Support/Code/User/globalStorage/bmd.stm32-for-vscode/@xpack-dev-tools/arm-none-eabi-gcc/10.3.1-2.3.1/.content/arm-none-eabi/include/c++/10.3.1/bits/stl_algo.h ****    *  __last1-(__last2-__first2) where @p __last2-__first2 is the
 409:/Users/lawrencestanton/Library/Application Support/Code/User/globalStorage/bmd.stm32-for-vscode/@xpack-dev-tools/arm-none-eabi-gcc/10.3.1-2.3.1/.content/arm-none-eabi/include/c++/10.3.1/bits/stl_algo.h ****    *  length of the sub-sequence.  This means that the returned
 410:/Users/lawrencestanton/Library/Application Support/Code/User/globalStorage/bmd.stm32-for-vscode/@xpack-dev-tools/arm-none-eabi-gcc/10.3.1-2.3.1/.content/arm-none-eabi/include/c++/10.3.1/bits/stl_algo.h ****    *  iterator @c i will be in the range @p
 411:/Users/lawrencestanton/Library/Application Support/Code/User/globalStorage/bmd.stm32-for-vscode/@xpack-dev-tools/arm-none-eabi-gcc/10.3.1-2.3.1/.content/arm-none-eabi/include/c++/10.3.1/bits/stl_algo.h ****    *  [__first1,__last1-(__last2-__first2))
 412:/Users/lawrencestanton/Library/Application Support/Code/User/globalStorage/bmd.stm32-for-vscode/@xpack-dev-tools/arm-none-eabi-gcc/10.3.1-2.3.1/.content/arm-none-eabi/include/c++/10.3.1/bits/stl_algo.h ****   */
 413:/Users/lawrencestanton/Library/Application Support/Code/User/globalStorage/bmd.stm32-for-vscode/@xpack-dev-tools/arm-none-eabi-gcc/10.3.1-2.3.1/.content/arm-none-eabi/include/c++/10.3.1/bits/stl_algo.h ****   template<typename _ForwardIterator1, typename _ForwardIterator2,
 414:/Users/lawrencestanton/Library/Application Support/Code/User/globalStorage/bmd.stm32-for-vscode/@xpack-dev-tools/arm-none-eabi-gcc/10.3.1-2.3.1/.content/arm-none-eabi/include/c++/10.3.1/bits/stl_algo.h **** 	   typename _BinaryPredicate>
 415:/Users/lawrencestanton/Library/Application Support/Code/User/globalStorage/bmd.stm32-for-vscode/@xpack-dev-tools/arm-none-eabi-gcc/10.3.1-2.3.1/.content/arm-none-eabi/include/c++/10.3.1/bits/stl_algo.h ****     _GLIBCXX20_CONSTEXPR
 416:/Users/lawrencestanton/Library/Application Support/Code/User/globalStorage/bmd.stm32-for-vscode/@xpack-dev-tools/arm-none-eabi-gcc/10.3.1-2.3.1/.content/arm-none-eabi/include/c++/10.3.1/bits/stl_algo.h ****     inline _ForwardIterator1
ARM GAS  /var/folders/bb/dhrb69655gd8t4nf464nxc_00000gn/T//cc50CdYq.s 			page 17


 417:/Users/lawrencestanton/Library/Application Support/Code/User/globalStorage/bmd.stm32-for-vscode/@xpack-dev-tools/arm-none-eabi-gcc/10.3.1-2.3.1/.content/arm-none-eabi/include/c++/10.3.1/bits/stl_algo.h ****     find_end(_ForwardIterator1 __first1, _ForwardIterator1 __last1,
 418:/Users/lawrencestanton/Library/Application Support/Code/User/globalStorage/bmd.stm32-for-vscode/@xpack-dev-tools/arm-none-eabi-gcc/10.3.1-2.3.1/.content/arm-none-eabi/include/c++/10.3.1/bits/stl_algo.h **** 	     _ForwardIterator2 __first2, _ForwardIterator2 __last2,
 419:/Users/lawrencestanton/Library/Application Support/Code/User/globalStorage/bmd.stm32-for-vscode/@xpack-dev-tools/arm-none-eabi-gcc/10.3.1-2.3.1/.content/arm-none-eabi/include/c++/10.3.1/bits/stl_algo.h **** 	     _BinaryPredicate __comp)
 420:/Users/lawrencestanton/Library/Application Support/Code/User/globalStorage/bmd.stm32-for-vscode/@xpack-dev-tools/arm-none-eabi-gcc/10.3.1-2.3.1/.content/arm-none-eabi/include/c++/10.3.1/bits/stl_algo.h ****     {
 421:/Users/lawrencestanton/Library/Application Support/Code/User/globalStorage/bmd.stm32-for-vscode/@xpack-dev-tools/arm-none-eabi-gcc/10.3.1-2.3.1/.content/arm-none-eabi/include/c++/10.3.1/bits/stl_algo.h ****       // concept requirements
 422:/Users/lawrencestanton/Library/Application Support/Code/User/globalStorage/bmd.stm32-for-vscode/@xpack-dev-tools/arm-none-eabi-gcc/10.3.1-2.3.1/.content/arm-none-eabi/include/c++/10.3.1/bits/stl_algo.h ****       __glibcxx_function_requires(_ForwardIteratorConcept<_ForwardIterator1>)
 423:/Users/lawrencestanton/Library/Application Support/Code/User/globalStorage/bmd.stm32-for-vscode/@xpack-dev-tools/arm-none-eabi-gcc/10.3.1-2.3.1/.content/arm-none-eabi/include/c++/10.3.1/bits/stl_algo.h ****       __glibcxx_function_requires(_ForwardIteratorConcept<_ForwardIterator2>)
 424:/Users/lawrencestanton/Library/Application Support/Code/User/globalStorage/bmd.stm32-for-vscode/@xpack-dev-tools/arm-none-eabi-gcc/10.3.1-2.3.1/.content/arm-none-eabi/include/c++/10.3.1/bits/stl_algo.h ****       __glibcxx_function_requires(_BinaryPredicateConcept<_BinaryPredicate,
 425:/Users/lawrencestanton/Library/Application Support/Code/User/globalStorage/bmd.stm32-for-vscode/@xpack-dev-tools/arm-none-eabi-gcc/10.3.1-2.3.1/.content/arm-none-eabi/include/c++/10.3.1/bits/stl_algo.h **** 	    typename iterator_traits<_ForwardIterator1>::value_type,
 426:/Users/lawrencestanton/Library/Application Support/Code/User/globalStorage/bmd.stm32-for-vscode/@xpack-dev-tools/arm-none-eabi-gcc/10.3.1-2.3.1/.content/arm-none-eabi/include/c++/10.3.1/bits/stl_algo.h **** 	    typename iterator_traits<_ForwardIterator2>::value_type>)
 427:/Users/lawrencestanton/Library/Application Support/Code/User/globalStorage/bmd.stm32-for-vscode/@xpack-dev-tools/arm-none-eabi-gcc/10.3.1-2.3.1/.content/arm-none-eabi/include/c++/10.3.1/bits/stl_algo.h ****       __glibcxx_requires_valid_range(__first1, __last1);
 428:/Users/lawrencestanton/Library/Application Support/Code/User/globalStorage/bmd.stm32-for-vscode/@xpack-dev-tools/arm-none-eabi-gcc/10.3.1-2.3.1/.content/arm-none-eabi/include/c++/10.3.1/bits/stl_algo.h ****       __glibcxx_requires_valid_range(__first2, __last2);
 429:/Users/lawrencestanton/Library/Application Support/Code/User/globalStorage/bmd.stm32-for-vscode/@xpack-dev-tools/arm-none-eabi-gcc/10.3.1-2.3.1/.content/arm-none-eabi/include/c++/10.3.1/bits/stl_algo.h **** 
 430:/Users/lawrencestanton/Library/Application Support/Code/User/globalStorage/bmd.stm32-for-vscode/@xpack-dev-tools/arm-none-eabi-gcc/10.3.1-2.3.1/.content/arm-none-eabi/include/c++/10.3.1/bits/stl_algo.h ****       return std::__find_end(__first1, __last1, __first2, __last2,
 431:/Users/lawrencestanton/Library/Application Support/Code/User/globalStorage/bmd.stm32-for-vscode/@xpack-dev-tools/arm-none-eabi-gcc/10.3.1-2.3.1/.content/arm-none-eabi/include/c++/10.3.1/bits/stl_algo.h **** 			     std::__iterator_category(__first1),
 432:/Users/lawrencestanton/Library/Application Support/Code/User/globalStorage/bmd.stm32-for-vscode/@xpack-dev-tools/arm-none-eabi-gcc/10.3.1-2.3.1/.content/arm-none-eabi/include/c++/10.3.1/bits/stl_algo.h **** 			     std::__iterator_category(__first2),
 433:/Users/lawrencestanton/Library/Application Support/Code/User/globalStorage/bmd.stm32-for-vscode/@xpack-dev-tools/arm-none-eabi-gcc/10.3.1-2.3.1/.content/arm-none-eabi/include/c++/10.3.1/bits/stl_algo.h **** 			     __gnu_cxx::__ops::__iter_comp_iter(__comp));
 434:/Users/lawrencestanton/Library/Application Support/Code/User/globalStorage/bmd.stm32-for-vscode/@xpack-dev-tools/arm-none-eabi-gcc/10.3.1-2.3.1/.content/arm-none-eabi/include/c++/10.3.1/bits/stl_algo.h ****     }
 435:/Users/lawrencestanton/Library/Application Support/Code/User/globalStorage/bmd.stm32-for-vscode/@xpack-dev-tools/arm-none-eabi-gcc/10.3.1-2.3.1/.content/arm-none-eabi/include/c++/10.3.1/bits/stl_algo.h **** 
 436:/Users/lawrencestanton/Library/Application Support/Code/User/globalStorage/bmd.stm32-for-vscode/@xpack-dev-tools/arm-none-eabi-gcc/10.3.1-2.3.1/.content/arm-none-eabi/include/c++/10.3.1/bits/stl_algo.h **** #if __cplusplus >= 201103L
 437:/Users/lawrencestanton/Library/Application Support/Code/User/globalStorage/bmd.stm32-for-vscode/@xpack-dev-tools/arm-none-eabi-gcc/10.3.1-2.3.1/.content/arm-none-eabi/include/c++/10.3.1/bits/stl_algo.h ****   /**
 438:/Users/lawrencestanton/Library/Application Support/Code/User/globalStorage/bmd.stm32-for-vscode/@xpack-dev-tools/arm-none-eabi-gcc/10.3.1-2.3.1/.content/arm-none-eabi/include/c++/10.3.1/bits/stl_algo.h ****    *  @brief  Checks that a predicate is true for all the elements
 439:/Users/lawrencestanton/Library/Application Support/Code/User/globalStorage/bmd.stm32-for-vscode/@xpack-dev-tools/arm-none-eabi-gcc/10.3.1-2.3.1/.content/arm-none-eabi/include/c++/10.3.1/bits/stl_algo.h ****    *          of a sequence.
 440:/Users/lawrencestanton/Library/Application Support/Code/User/globalStorage/bmd.stm32-for-vscode/@xpack-dev-tools/arm-none-eabi-gcc/10.3.1-2.3.1/.content/arm-none-eabi/include/c++/10.3.1/bits/stl_algo.h ****    *  @ingroup non_mutating_algorithms
 441:/Users/lawrencestanton/Library/Application Support/Code/User/globalStorage/bmd.stm32-for-vscode/@xpack-dev-tools/arm-none-eabi-gcc/10.3.1-2.3.1/.content/arm-none-eabi/include/c++/10.3.1/bits/stl_algo.h ****    *  @param  __first   An input iterator.
 442:/Users/lawrencestanton/Library/Application Support/Code/User/globalStorage/bmd.stm32-for-vscode/@xpack-dev-tools/arm-none-eabi-gcc/10.3.1-2.3.1/.content/arm-none-eabi/include/c++/10.3.1/bits/stl_algo.h ****    *  @param  __last    An input iterator.
 443:/Users/lawrencestanton/Library/Application Support/Code/User/globalStorage/bmd.stm32-for-vscode/@xpack-dev-tools/arm-none-eabi-gcc/10.3.1-2.3.1/.content/arm-none-eabi/include/c++/10.3.1/bits/stl_algo.h ****    *  @param  __pred    A predicate.
 444:/Users/lawrencestanton/Library/Application Support/Code/User/globalStorage/bmd.stm32-for-vscode/@xpack-dev-tools/arm-none-eabi-gcc/10.3.1-2.3.1/.content/arm-none-eabi/include/c++/10.3.1/bits/stl_algo.h ****    *  @return  True if the check is true, false otherwise.
 445:/Users/lawrencestanton/Library/Application Support/Code/User/globalStorage/bmd.stm32-for-vscode/@xpack-dev-tools/arm-none-eabi-gcc/10.3.1-2.3.1/.content/arm-none-eabi/include/c++/10.3.1/bits/stl_algo.h ****    *
 446:/Users/lawrencestanton/Library/Application Support/Code/User/globalStorage/bmd.stm32-for-vscode/@xpack-dev-tools/arm-none-eabi-gcc/10.3.1-2.3.1/.content/arm-none-eabi/include/c++/10.3.1/bits/stl_algo.h ****    *  Returns true if @p __pred is true for each element in the range
 447:/Users/lawrencestanton/Library/Application Support/Code/User/globalStorage/bmd.stm32-for-vscode/@xpack-dev-tools/arm-none-eabi-gcc/10.3.1-2.3.1/.content/arm-none-eabi/include/c++/10.3.1/bits/stl_algo.h ****    *  @p [__first,__last), and false otherwise.
 448:/Users/lawrencestanton/Library/Application Support/Code/User/globalStorage/bmd.stm32-for-vscode/@xpack-dev-tools/arm-none-eabi-gcc/10.3.1-2.3.1/.content/arm-none-eabi/include/c++/10.3.1/bits/stl_algo.h ****   */
 449:/Users/lawrencestanton/Library/Application Support/Code/User/globalStorage/bmd.stm32-for-vscode/@xpack-dev-tools/arm-none-eabi-gcc/10.3.1-2.3.1/.content/arm-none-eabi/include/c++/10.3.1/bits/stl_algo.h ****   template<typename _InputIterator, typename _Predicate>
 450:/Users/lawrencestanton/Library/Application Support/Code/User/globalStorage/bmd.stm32-for-vscode/@xpack-dev-tools/arm-none-eabi-gcc/10.3.1-2.3.1/.content/arm-none-eabi/include/c++/10.3.1/bits/stl_algo.h ****     _GLIBCXX20_CONSTEXPR
 451:/Users/lawrencestanton/Library/Application Support/Code/User/globalStorage/bmd.stm32-for-vscode/@xpack-dev-tools/arm-none-eabi-gcc/10.3.1-2.3.1/.content/arm-none-eabi/include/c++/10.3.1/bits/stl_algo.h ****     inline bool
 452:/Users/lawrencestanton/Library/Application Support/Code/User/globalStorage/bmd.stm32-for-vscode/@xpack-dev-tools/arm-none-eabi-gcc/10.3.1-2.3.1/.content/arm-none-eabi/include/c++/10.3.1/bits/stl_algo.h ****     all_of(_InputIterator __first, _InputIterator __last, _Predicate __pred)
 453:/Users/lawrencestanton/Library/Application Support/Code/User/globalStorage/bmd.stm32-for-vscode/@xpack-dev-tools/arm-none-eabi-gcc/10.3.1-2.3.1/.content/arm-none-eabi/include/c++/10.3.1/bits/stl_algo.h ****     { return __last == std::find_if_not(__first, __last, __pred); }
 454:/Users/lawrencestanton/Library/Application Support/Code/User/globalStorage/bmd.stm32-for-vscode/@xpack-dev-tools/arm-none-eabi-gcc/10.3.1-2.3.1/.content/arm-none-eabi/include/c++/10.3.1/bits/stl_algo.h **** 
 455:/Users/lawrencestanton/Library/Application Support/Code/User/globalStorage/bmd.stm32-for-vscode/@xpack-dev-tools/arm-none-eabi-gcc/10.3.1-2.3.1/.content/arm-none-eabi/include/c++/10.3.1/bits/stl_algo.h ****   /**
 456:/Users/lawrencestanton/Library/Application Support/Code/User/globalStorage/bmd.stm32-for-vscode/@xpack-dev-tools/arm-none-eabi-gcc/10.3.1-2.3.1/.content/arm-none-eabi/include/c++/10.3.1/bits/stl_algo.h ****    *  @brief  Checks that a predicate is false for all the elements
 457:/Users/lawrencestanton/Library/Application Support/Code/User/globalStorage/bmd.stm32-for-vscode/@xpack-dev-tools/arm-none-eabi-gcc/10.3.1-2.3.1/.content/arm-none-eabi/include/c++/10.3.1/bits/stl_algo.h ****    *          of a sequence.
 458:/Users/lawrencestanton/Library/Application Support/Code/User/globalStorage/bmd.stm32-for-vscode/@xpack-dev-tools/arm-none-eabi-gcc/10.3.1-2.3.1/.content/arm-none-eabi/include/c++/10.3.1/bits/stl_algo.h ****    *  @ingroup non_mutating_algorithms
 459:/Users/lawrencestanton/Library/Application Support/Code/User/globalStorage/bmd.stm32-for-vscode/@xpack-dev-tools/arm-none-eabi-gcc/10.3.1-2.3.1/.content/arm-none-eabi/include/c++/10.3.1/bits/stl_algo.h ****    *  @param  __first   An input iterator.
 460:/Users/lawrencestanton/Library/Application Support/Code/User/globalStorage/bmd.stm32-for-vscode/@xpack-dev-tools/arm-none-eabi-gcc/10.3.1-2.3.1/.content/arm-none-eabi/include/c++/10.3.1/bits/stl_algo.h ****    *  @param  __last    An input iterator.
 461:/Users/lawrencestanton/Library/Application Support/Code/User/globalStorage/bmd.stm32-for-vscode/@xpack-dev-tools/arm-none-eabi-gcc/10.3.1-2.3.1/.content/arm-none-eabi/include/c++/10.3.1/bits/stl_algo.h ****    *  @param  __pred    A predicate.
 462:/Users/lawrencestanton/Library/Application Support/Code/User/globalStorage/bmd.stm32-for-vscode/@xpack-dev-tools/arm-none-eabi-gcc/10.3.1-2.3.1/.content/arm-none-eabi/include/c++/10.3.1/bits/stl_algo.h ****    *  @return  True if the check is true, false otherwise.
 463:/Users/lawrencestanton/Library/Application Support/Code/User/globalStorage/bmd.stm32-for-vscode/@xpack-dev-tools/arm-none-eabi-gcc/10.3.1-2.3.1/.content/arm-none-eabi/include/c++/10.3.1/bits/stl_algo.h ****    *
 464:/Users/lawrencestanton/Library/Application Support/Code/User/globalStorage/bmd.stm32-for-vscode/@xpack-dev-tools/arm-none-eabi-gcc/10.3.1-2.3.1/.content/arm-none-eabi/include/c++/10.3.1/bits/stl_algo.h ****    *  Returns true if @p __pred is false for each element in the range
 465:/Users/lawrencestanton/Library/Application Support/Code/User/globalStorage/bmd.stm32-for-vscode/@xpack-dev-tools/arm-none-eabi-gcc/10.3.1-2.3.1/.content/arm-none-eabi/include/c++/10.3.1/bits/stl_algo.h ****    *  @p [__first,__last), and false otherwise.
 466:/Users/lawrencestanton/Library/Application Support/Code/User/globalStorage/bmd.stm32-for-vscode/@xpack-dev-tools/arm-none-eabi-gcc/10.3.1-2.3.1/.content/arm-none-eabi/include/c++/10.3.1/bits/stl_algo.h ****   */
 467:/Users/lawrencestanton/Library/Application Support/Code/User/globalStorage/bmd.stm32-for-vscode/@xpack-dev-tools/arm-none-eabi-gcc/10.3.1-2.3.1/.content/arm-none-eabi/include/c++/10.3.1/bits/stl_algo.h ****   template<typename _InputIterator, typename _Predicate>
 468:/Users/lawrencestanton/Library/Application Support/Code/User/globalStorage/bmd.stm32-for-vscode/@xpack-dev-tools/arm-none-eabi-gcc/10.3.1-2.3.1/.content/arm-none-eabi/include/c++/10.3.1/bits/stl_algo.h ****     _GLIBCXX20_CONSTEXPR
 469:/Users/lawrencestanton/Library/Application Support/Code/User/globalStorage/bmd.stm32-for-vscode/@xpack-dev-tools/arm-none-eabi-gcc/10.3.1-2.3.1/.content/arm-none-eabi/include/c++/10.3.1/bits/stl_algo.h ****     inline bool
 470:/Users/lawrencestanton/Library/Application Support/Code/User/globalStorage/bmd.stm32-for-vscode/@xpack-dev-tools/arm-none-eabi-gcc/10.3.1-2.3.1/.content/arm-none-eabi/include/c++/10.3.1/bits/stl_algo.h ****     none_of(_InputIterator __first, _InputIterator __last, _Predicate __pred)
 471:/Users/lawrencestanton/Library/Application Support/Code/User/globalStorage/bmd.stm32-for-vscode/@xpack-dev-tools/arm-none-eabi-gcc/10.3.1-2.3.1/.content/arm-none-eabi/include/c++/10.3.1/bits/stl_algo.h ****     { return __last == _GLIBCXX_STD_A::find_if(__first, __last, __pred); }
 472:/Users/lawrencestanton/Library/Application Support/Code/User/globalStorage/bmd.stm32-for-vscode/@xpack-dev-tools/arm-none-eabi-gcc/10.3.1-2.3.1/.content/arm-none-eabi/include/c++/10.3.1/bits/stl_algo.h **** 
 473:/Users/lawrencestanton/Library/Application Support/Code/User/globalStorage/bmd.stm32-for-vscode/@xpack-dev-tools/arm-none-eabi-gcc/10.3.1-2.3.1/.content/arm-none-eabi/include/c++/10.3.1/bits/stl_algo.h ****   /**
ARM GAS  /var/folders/bb/dhrb69655gd8t4nf464nxc_00000gn/T//cc50CdYq.s 			page 18


 474:/Users/lawrencestanton/Library/Application Support/Code/User/globalStorage/bmd.stm32-for-vscode/@xpack-dev-tools/arm-none-eabi-gcc/10.3.1-2.3.1/.content/arm-none-eabi/include/c++/10.3.1/bits/stl_algo.h ****    *  @brief  Checks that a predicate is true for at least one element
 475:/Users/lawrencestanton/Library/Application Support/Code/User/globalStorage/bmd.stm32-for-vscode/@xpack-dev-tools/arm-none-eabi-gcc/10.3.1-2.3.1/.content/arm-none-eabi/include/c++/10.3.1/bits/stl_algo.h ****    *          of a sequence.
 476:/Users/lawrencestanton/Library/Application Support/Code/User/globalStorage/bmd.stm32-for-vscode/@xpack-dev-tools/arm-none-eabi-gcc/10.3.1-2.3.1/.content/arm-none-eabi/include/c++/10.3.1/bits/stl_algo.h ****    *  @ingroup non_mutating_algorithms
 477:/Users/lawrencestanton/Library/Application Support/Code/User/globalStorage/bmd.stm32-for-vscode/@xpack-dev-tools/arm-none-eabi-gcc/10.3.1-2.3.1/.content/arm-none-eabi/include/c++/10.3.1/bits/stl_algo.h ****    *  @param  __first   An input iterator.
 478:/Users/lawrencestanton/Library/Application Support/Code/User/globalStorage/bmd.stm32-for-vscode/@xpack-dev-tools/arm-none-eabi-gcc/10.3.1-2.3.1/.content/arm-none-eabi/include/c++/10.3.1/bits/stl_algo.h ****    *  @param  __last    An input iterator.
 479:/Users/lawrencestanton/Library/Application Support/Code/User/globalStorage/bmd.stm32-for-vscode/@xpack-dev-tools/arm-none-eabi-gcc/10.3.1-2.3.1/.content/arm-none-eabi/include/c++/10.3.1/bits/stl_algo.h ****    *  @param  __pred    A predicate.
 480:/Users/lawrencestanton/Library/Application Support/Code/User/globalStorage/bmd.stm32-for-vscode/@xpack-dev-tools/arm-none-eabi-gcc/10.3.1-2.3.1/.content/arm-none-eabi/include/c++/10.3.1/bits/stl_algo.h ****    *  @return  True if the check is true, false otherwise.
 481:/Users/lawrencestanton/Library/Application Support/Code/User/globalStorage/bmd.stm32-for-vscode/@xpack-dev-tools/arm-none-eabi-gcc/10.3.1-2.3.1/.content/arm-none-eabi/include/c++/10.3.1/bits/stl_algo.h ****    *
 482:/Users/lawrencestanton/Library/Application Support/Code/User/globalStorage/bmd.stm32-for-vscode/@xpack-dev-tools/arm-none-eabi-gcc/10.3.1-2.3.1/.content/arm-none-eabi/include/c++/10.3.1/bits/stl_algo.h ****    *  Returns true if an element exists in the range @p
 483:/Users/lawrencestanton/Library/Application Support/Code/User/globalStorage/bmd.stm32-for-vscode/@xpack-dev-tools/arm-none-eabi-gcc/10.3.1-2.3.1/.content/arm-none-eabi/include/c++/10.3.1/bits/stl_algo.h ****    *  [__first,__last) such that @p __pred is true, and false
 484:/Users/lawrencestanton/Library/Application Support/Code/User/globalStorage/bmd.stm32-for-vscode/@xpack-dev-tools/arm-none-eabi-gcc/10.3.1-2.3.1/.content/arm-none-eabi/include/c++/10.3.1/bits/stl_algo.h ****    *  otherwise.
 485:/Users/lawrencestanton/Library/Application Support/Code/User/globalStorage/bmd.stm32-for-vscode/@xpack-dev-tools/arm-none-eabi-gcc/10.3.1-2.3.1/.content/arm-none-eabi/include/c++/10.3.1/bits/stl_algo.h ****   */
 486:/Users/lawrencestanton/Library/Application Support/Code/User/globalStorage/bmd.stm32-for-vscode/@xpack-dev-tools/arm-none-eabi-gcc/10.3.1-2.3.1/.content/arm-none-eabi/include/c++/10.3.1/bits/stl_algo.h ****   template<typename _InputIterator, typename _Predicate>
 487:/Users/lawrencestanton/Library/Application Support/Code/User/globalStorage/bmd.stm32-for-vscode/@xpack-dev-tools/arm-none-eabi-gcc/10.3.1-2.3.1/.content/arm-none-eabi/include/c++/10.3.1/bits/stl_algo.h ****     _GLIBCXX20_CONSTEXPR
 488:/Users/lawrencestanton/Library/Application Support/Code/User/globalStorage/bmd.stm32-for-vscode/@xpack-dev-tools/arm-none-eabi-gcc/10.3.1-2.3.1/.content/arm-none-eabi/include/c++/10.3.1/bits/stl_algo.h ****     inline bool
 489:/Users/lawrencestanton/Library/Application Support/Code/User/globalStorage/bmd.stm32-for-vscode/@xpack-dev-tools/arm-none-eabi-gcc/10.3.1-2.3.1/.content/arm-none-eabi/include/c++/10.3.1/bits/stl_algo.h ****     any_of(_InputIterator __first, _InputIterator __last, _Predicate __pred)
 490:/Users/lawrencestanton/Library/Application Support/Code/User/globalStorage/bmd.stm32-for-vscode/@xpack-dev-tools/arm-none-eabi-gcc/10.3.1-2.3.1/.content/arm-none-eabi/include/c++/10.3.1/bits/stl_algo.h ****     { return !std::none_of(__first, __last, __pred); }
 491:/Users/lawrencestanton/Library/Application Support/Code/User/globalStorage/bmd.stm32-for-vscode/@xpack-dev-tools/arm-none-eabi-gcc/10.3.1-2.3.1/.content/arm-none-eabi/include/c++/10.3.1/bits/stl_algo.h **** 
 492:/Users/lawrencestanton/Library/Application Support/Code/User/globalStorage/bmd.stm32-for-vscode/@xpack-dev-tools/arm-none-eabi-gcc/10.3.1-2.3.1/.content/arm-none-eabi/include/c++/10.3.1/bits/stl_algo.h ****   /**
 493:/Users/lawrencestanton/Library/Application Support/Code/User/globalStorage/bmd.stm32-for-vscode/@xpack-dev-tools/arm-none-eabi-gcc/10.3.1-2.3.1/.content/arm-none-eabi/include/c++/10.3.1/bits/stl_algo.h ****    *  @brief  Find the first element in a sequence for which a
 494:/Users/lawrencestanton/Library/Application Support/Code/User/globalStorage/bmd.stm32-for-vscode/@xpack-dev-tools/arm-none-eabi-gcc/10.3.1-2.3.1/.content/arm-none-eabi/include/c++/10.3.1/bits/stl_algo.h ****    *          predicate is false.
 495:/Users/lawrencestanton/Library/Application Support/Code/User/globalStorage/bmd.stm32-for-vscode/@xpack-dev-tools/arm-none-eabi-gcc/10.3.1-2.3.1/.content/arm-none-eabi/include/c++/10.3.1/bits/stl_algo.h ****    *  @ingroup non_mutating_algorithms
 496:/Users/lawrencestanton/Library/Application Support/Code/User/globalStorage/bmd.stm32-for-vscode/@xpack-dev-tools/arm-none-eabi-gcc/10.3.1-2.3.1/.content/arm-none-eabi/include/c++/10.3.1/bits/stl_algo.h ****    *  @param  __first  An input iterator.
 497:/Users/lawrencestanton/Library/Application Support/Code/User/globalStorage/bmd.stm32-for-vscode/@xpack-dev-tools/arm-none-eabi-gcc/10.3.1-2.3.1/.content/arm-none-eabi/include/c++/10.3.1/bits/stl_algo.h ****    *  @param  __last   An input iterator.
 498:/Users/lawrencestanton/Library/Application Support/Code/User/globalStorage/bmd.stm32-for-vscode/@xpack-dev-tools/arm-none-eabi-gcc/10.3.1-2.3.1/.content/arm-none-eabi/include/c++/10.3.1/bits/stl_algo.h ****    *  @param  __pred   A predicate.
 499:/Users/lawrencestanton/Library/Application Support/Code/User/globalStorage/bmd.stm32-for-vscode/@xpack-dev-tools/arm-none-eabi-gcc/10.3.1-2.3.1/.content/arm-none-eabi/include/c++/10.3.1/bits/stl_algo.h ****    *  @return   The first iterator @c i in the range @p [__first,__last)
 500:/Users/lawrencestanton/Library/Application Support/Code/User/globalStorage/bmd.stm32-for-vscode/@xpack-dev-tools/arm-none-eabi-gcc/10.3.1-2.3.1/.content/arm-none-eabi/include/c++/10.3.1/bits/stl_algo.h ****    *  such that @p __pred(*i) is false, or @p __last if no such iterator exists.
 501:/Users/lawrencestanton/Library/Application Support/Code/User/globalStorage/bmd.stm32-for-vscode/@xpack-dev-tools/arm-none-eabi-gcc/10.3.1-2.3.1/.content/arm-none-eabi/include/c++/10.3.1/bits/stl_algo.h ****   */
 502:/Users/lawrencestanton/Library/Application Support/Code/User/globalStorage/bmd.stm32-for-vscode/@xpack-dev-tools/arm-none-eabi-gcc/10.3.1-2.3.1/.content/arm-none-eabi/include/c++/10.3.1/bits/stl_algo.h ****   template<typename _InputIterator, typename _Predicate>
 503:/Users/lawrencestanton/Library/Application Support/Code/User/globalStorage/bmd.stm32-for-vscode/@xpack-dev-tools/arm-none-eabi-gcc/10.3.1-2.3.1/.content/arm-none-eabi/include/c++/10.3.1/bits/stl_algo.h ****     _GLIBCXX20_CONSTEXPR
 504:/Users/lawrencestanton/Library/Application Support/Code/User/globalStorage/bmd.stm32-for-vscode/@xpack-dev-tools/arm-none-eabi-gcc/10.3.1-2.3.1/.content/arm-none-eabi/include/c++/10.3.1/bits/stl_algo.h ****     inline _InputIterator
 505:/Users/lawrencestanton/Library/Application Support/Code/User/globalStorage/bmd.stm32-for-vscode/@xpack-dev-tools/arm-none-eabi-gcc/10.3.1-2.3.1/.content/arm-none-eabi/include/c++/10.3.1/bits/stl_algo.h ****     find_if_not(_InputIterator __first, _InputIterator __last,
 506:/Users/lawrencestanton/Library/Application Support/Code/User/globalStorage/bmd.stm32-for-vscode/@xpack-dev-tools/arm-none-eabi-gcc/10.3.1-2.3.1/.content/arm-none-eabi/include/c++/10.3.1/bits/stl_algo.h **** 		_Predicate __pred)
 507:/Users/lawrencestanton/Library/Application Support/Code/User/globalStorage/bmd.stm32-for-vscode/@xpack-dev-tools/arm-none-eabi-gcc/10.3.1-2.3.1/.content/arm-none-eabi/include/c++/10.3.1/bits/stl_algo.h ****     {
 508:/Users/lawrencestanton/Library/Application Support/Code/User/globalStorage/bmd.stm32-for-vscode/@xpack-dev-tools/arm-none-eabi-gcc/10.3.1-2.3.1/.content/arm-none-eabi/include/c++/10.3.1/bits/stl_algo.h ****       // concept requirements
 509:/Users/lawrencestanton/Library/Application Support/Code/User/globalStorage/bmd.stm32-for-vscode/@xpack-dev-tools/arm-none-eabi-gcc/10.3.1-2.3.1/.content/arm-none-eabi/include/c++/10.3.1/bits/stl_algo.h ****       __glibcxx_function_requires(_InputIteratorConcept<_InputIterator>)
 510:/Users/lawrencestanton/Library/Application Support/Code/User/globalStorage/bmd.stm32-for-vscode/@xpack-dev-tools/arm-none-eabi-gcc/10.3.1-2.3.1/.content/arm-none-eabi/include/c++/10.3.1/bits/stl_algo.h ****       __glibcxx_function_requires(_UnaryPredicateConcept<_Predicate,
 511:/Users/lawrencestanton/Library/Application Support/Code/User/globalStorage/bmd.stm32-for-vscode/@xpack-dev-tools/arm-none-eabi-gcc/10.3.1-2.3.1/.content/arm-none-eabi/include/c++/10.3.1/bits/stl_algo.h **** 	      typename iterator_traits<_InputIterator>::value_type>)
 512:/Users/lawrencestanton/Library/Application Support/Code/User/globalStorage/bmd.stm32-for-vscode/@xpack-dev-tools/arm-none-eabi-gcc/10.3.1-2.3.1/.content/arm-none-eabi/include/c++/10.3.1/bits/stl_algo.h ****       __glibcxx_requires_valid_range(__first, __last);
 513:/Users/lawrencestanton/Library/Application Support/Code/User/globalStorage/bmd.stm32-for-vscode/@xpack-dev-tools/arm-none-eabi-gcc/10.3.1-2.3.1/.content/arm-none-eabi/include/c++/10.3.1/bits/stl_algo.h ****       return std::__find_if_not(__first, __last,
 514:/Users/lawrencestanton/Library/Application Support/Code/User/globalStorage/bmd.stm32-for-vscode/@xpack-dev-tools/arm-none-eabi-gcc/10.3.1-2.3.1/.content/arm-none-eabi/include/c++/10.3.1/bits/stl_algo.h **** 				__gnu_cxx::__ops::__pred_iter(__pred));
 515:/Users/lawrencestanton/Library/Application Support/Code/User/globalStorage/bmd.stm32-for-vscode/@xpack-dev-tools/arm-none-eabi-gcc/10.3.1-2.3.1/.content/arm-none-eabi/include/c++/10.3.1/bits/stl_algo.h ****     }
 516:/Users/lawrencestanton/Library/Application Support/Code/User/globalStorage/bmd.stm32-for-vscode/@xpack-dev-tools/arm-none-eabi-gcc/10.3.1-2.3.1/.content/arm-none-eabi/include/c++/10.3.1/bits/stl_algo.h **** 
 517:/Users/lawrencestanton/Library/Application Support/Code/User/globalStorage/bmd.stm32-for-vscode/@xpack-dev-tools/arm-none-eabi-gcc/10.3.1-2.3.1/.content/arm-none-eabi/include/c++/10.3.1/bits/stl_algo.h ****   /**
 518:/Users/lawrencestanton/Library/Application Support/Code/User/globalStorage/bmd.stm32-for-vscode/@xpack-dev-tools/arm-none-eabi-gcc/10.3.1-2.3.1/.content/arm-none-eabi/include/c++/10.3.1/bits/stl_algo.h ****    *  @brief  Checks whether the sequence is partitioned.
 519:/Users/lawrencestanton/Library/Application Support/Code/User/globalStorage/bmd.stm32-for-vscode/@xpack-dev-tools/arm-none-eabi-gcc/10.3.1-2.3.1/.content/arm-none-eabi/include/c++/10.3.1/bits/stl_algo.h ****    *  @ingroup mutating_algorithms
 520:/Users/lawrencestanton/Library/Application Support/Code/User/globalStorage/bmd.stm32-for-vscode/@xpack-dev-tools/arm-none-eabi-gcc/10.3.1-2.3.1/.content/arm-none-eabi/include/c++/10.3.1/bits/stl_algo.h ****    *  @param  __first  An input iterator.
 521:/Users/lawrencestanton/Library/Application Support/Code/User/globalStorage/bmd.stm32-for-vscode/@xpack-dev-tools/arm-none-eabi-gcc/10.3.1-2.3.1/.content/arm-none-eabi/include/c++/10.3.1/bits/stl_algo.h ****    *  @param  __last   An input iterator.
 522:/Users/lawrencestanton/Library/Application Support/Code/User/globalStorage/bmd.stm32-for-vscode/@xpack-dev-tools/arm-none-eabi-gcc/10.3.1-2.3.1/.content/arm-none-eabi/include/c++/10.3.1/bits/stl_algo.h ****    *  @param  __pred   A predicate.
 523:/Users/lawrencestanton/Library/Application Support/Code/User/globalStorage/bmd.stm32-for-vscode/@xpack-dev-tools/arm-none-eabi-gcc/10.3.1-2.3.1/.content/arm-none-eabi/include/c++/10.3.1/bits/stl_algo.h ****    *  @return  True if the range @p [__first,__last) is partioned by @p __pred,
 524:/Users/lawrencestanton/Library/Application Support/Code/User/globalStorage/bmd.stm32-for-vscode/@xpack-dev-tools/arm-none-eabi-gcc/10.3.1-2.3.1/.content/arm-none-eabi/include/c++/10.3.1/bits/stl_algo.h ****    *  i.e. if all elements that satisfy @p __pred appear before those that
 525:/Users/lawrencestanton/Library/Application Support/Code/User/globalStorage/bmd.stm32-for-vscode/@xpack-dev-tools/arm-none-eabi-gcc/10.3.1-2.3.1/.content/arm-none-eabi/include/c++/10.3.1/bits/stl_algo.h ****    *  do not.
 526:/Users/lawrencestanton/Library/Application Support/Code/User/globalStorage/bmd.stm32-for-vscode/@xpack-dev-tools/arm-none-eabi-gcc/10.3.1-2.3.1/.content/arm-none-eabi/include/c++/10.3.1/bits/stl_algo.h ****   */
 527:/Users/lawrencestanton/Library/Application Support/Code/User/globalStorage/bmd.stm32-for-vscode/@xpack-dev-tools/arm-none-eabi-gcc/10.3.1-2.3.1/.content/arm-none-eabi/include/c++/10.3.1/bits/stl_algo.h ****   template<typename _InputIterator, typename _Predicate>
 528:/Users/lawrencestanton/Library/Application Support/Code/User/globalStorage/bmd.stm32-for-vscode/@xpack-dev-tools/arm-none-eabi-gcc/10.3.1-2.3.1/.content/arm-none-eabi/include/c++/10.3.1/bits/stl_algo.h ****     _GLIBCXX20_CONSTEXPR
 529:/Users/lawrencestanton/Library/Application Support/Code/User/globalStorage/bmd.stm32-for-vscode/@xpack-dev-tools/arm-none-eabi-gcc/10.3.1-2.3.1/.content/arm-none-eabi/include/c++/10.3.1/bits/stl_algo.h ****     inline bool
 530:/Users/lawrencestanton/Library/Application Support/Code/User/globalStorage/bmd.stm32-for-vscode/@xpack-dev-tools/arm-none-eabi-gcc/10.3.1-2.3.1/.content/arm-none-eabi/include/c++/10.3.1/bits/stl_algo.h ****     is_partitioned(_InputIterator __first, _InputIterator __last,
ARM GAS  /var/folders/bb/dhrb69655gd8t4nf464nxc_00000gn/T//cc50CdYq.s 			page 19


 531:/Users/lawrencestanton/Library/Application Support/Code/User/globalStorage/bmd.stm32-for-vscode/@xpack-dev-tools/arm-none-eabi-gcc/10.3.1-2.3.1/.content/arm-none-eabi/include/c++/10.3.1/bits/stl_algo.h **** 		   _Predicate __pred)
 532:/Users/lawrencestanton/Library/Application Support/Code/User/globalStorage/bmd.stm32-for-vscode/@xpack-dev-tools/arm-none-eabi-gcc/10.3.1-2.3.1/.content/arm-none-eabi/include/c++/10.3.1/bits/stl_algo.h ****     {
 533:/Users/lawrencestanton/Library/Application Support/Code/User/globalStorage/bmd.stm32-for-vscode/@xpack-dev-tools/arm-none-eabi-gcc/10.3.1-2.3.1/.content/arm-none-eabi/include/c++/10.3.1/bits/stl_algo.h ****       __first = std::find_if_not(__first, __last, __pred);
 534:/Users/lawrencestanton/Library/Application Support/Code/User/globalStorage/bmd.stm32-for-vscode/@xpack-dev-tools/arm-none-eabi-gcc/10.3.1-2.3.1/.content/arm-none-eabi/include/c++/10.3.1/bits/stl_algo.h ****       if (__first == __last)
 535:/Users/lawrencestanton/Library/Application Support/Code/User/globalStorage/bmd.stm32-for-vscode/@xpack-dev-tools/arm-none-eabi-gcc/10.3.1-2.3.1/.content/arm-none-eabi/include/c++/10.3.1/bits/stl_algo.h **** 	return true;
 536:/Users/lawrencestanton/Library/Application Support/Code/User/globalStorage/bmd.stm32-for-vscode/@xpack-dev-tools/arm-none-eabi-gcc/10.3.1-2.3.1/.content/arm-none-eabi/include/c++/10.3.1/bits/stl_algo.h ****       ++__first;
 537:/Users/lawrencestanton/Library/Application Support/Code/User/globalStorage/bmd.stm32-for-vscode/@xpack-dev-tools/arm-none-eabi-gcc/10.3.1-2.3.1/.content/arm-none-eabi/include/c++/10.3.1/bits/stl_algo.h ****       return std::none_of(__first, __last, __pred);
 538:/Users/lawrencestanton/Library/Application Support/Code/User/globalStorage/bmd.stm32-for-vscode/@xpack-dev-tools/arm-none-eabi-gcc/10.3.1-2.3.1/.content/arm-none-eabi/include/c++/10.3.1/bits/stl_algo.h ****     }
 539:/Users/lawrencestanton/Library/Application Support/Code/User/globalStorage/bmd.stm32-for-vscode/@xpack-dev-tools/arm-none-eabi-gcc/10.3.1-2.3.1/.content/arm-none-eabi/include/c++/10.3.1/bits/stl_algo.h **** 
 540:/Users/lawrencestanton/Library/Application Support/Code/User/globalStorage/bmd.stm32-for-vscode/@xpack-dev-tools/arm-none-eabi-gcc/10.3.1-2.3.1/.content/arm-none-eabi/include/c++/10.3.1/bits/stl_algo.h ****   /**
 541:/Users/lawrencestanton/Library/Application Support/Code/User/globalStorage/bmd.stm32-for-vscode/@xpack-dev-tools/arm-none-eabi-gcc/10.3.1-2.3.1/.content/arm-none-eabi/include/c++/10.3.1/bits/stl_algo.h ****    *  @brief  Find the partition point of a partitioned range.
 542:/Users/lawrencestanton/Library/Application Support/Code/User/globalStorage/bmd.stm32-for-vscode/@xpack-dev-tools/arm-none-eabi-gcc/10.3.1-2.3.1/.content/arm-none-eabi/include/c++/10.3.1/bits/stl_algo.h ****    *  @ingroup mutating_algorithms
 543:/Users/lawrencestanton/Library/Application Support/Code/User/globalStorage/bmd.stm32-for-vscode/@xpack-dev-tools/arm-none-eabi-gcc/10.3.1-2.3.1/.content/arm-none-eabi/include/c++/10.3.1/bits/stl_algo.h ****    *  @param  __first   An iterator.
 544:/Users/lawrencestanton/Library/Application Support/Code/User/globalStorage/bmd.stm32-for-vscode/@xpack-dev-tools/arm-none-eabi-gcc/10.3.1-2.3.1/.content/arm-none-eabi/include/c++/10.3.1/bits/stl_algo.h ****    *  @param  __last    Another iterator.
 545:/Users/lawrencestanton/Library/Application Support/Code/User/globalStorage/bmd.stm32-for-vscode/@xpack-dev-tools/arm-none-eabi-gcc/10.3.1-2.3.1/.content/arm-none-eabi/include/c++/10.3.1/bits/stl_algo.h ****    *  @param  __pred    A predicate.
 546:/Users/lawrencestanton/Library/Application Support/Code/User/globalStorage/bmd.stm32-for-vscode/@xpack-dev-tools/arm-none-eabi-gcc/10.3.1-2.3.1/.content/arm-none-eabi/include/c++/10.3.1/bits/stl_algo.h ****    *  @return  An iterator @p mid such that @p all_of(__first, mid, __pred)
 547:/Users/lawrencestanton/Library/Application Support/Code/User/globalStorage/bmd.stm32-for-vscode/@xpack-dev-tools/arm-none-eabi-gcc/10.3.1-2.3.1/.content/arm-none-eabi/include/c++/10.3.1/bits/stl_algo.h ****    *           and @p none_of(mid, __last, __pred) are both true.
 548:/Users/lawrencestanton/Library/Application Support/Code/User/globalStorage/bmd.stm32-for-vscode/@xpack-dev-tools/arm-none-eabi-gcc/10.3.1-2.3.1/.content/arm-none-eabi/include/c++/10.3.1/bits/stl_algo.h ****   */
 549:/Users/lawrencestanton/Library/Application Support/Code/User/globalStorage/bmd.stm32-for-vscode/@xpack-dev-tools/arm-none-eabi-gcc/10.3.1-2.3.1/.content/arm-none-eabi/include/c++/10.3.1/bits/stl_algo.h ****   template<typename _ForwardIterator, typename _Predicate>
 550:/Users/lawrencestanton/Library/Application Support/Code/User/globalStorage/bmd.stm32-for-vscode/@xpack-dev-tools/arm-none-eabi-gcc/10.3.1-2.3.1/.content/arm-none-eabi/include/c++/10.3.1/bits/stl_algo.h ****     _GLIBCXX20_CONSTEXPR
 551:/Users/lawrencestanton/Library/Application Support/Code/User/globalStorage/bmd.stm32-for-vscode/@xpack-dev-tools/arm-none-eabi-gcc/10.3.1-2.3.1/.content/arm-none-eabi/include/c++/10.3.1/bits/stl_algo.h ****     _ForwardIterator
 552:/Users/lawrencestanton/Library/Application Support/Code/User/globalStorage/bmd.stm32-for-vscode/@xpack-dev-tools/arm-none-eabi-gcc/10.3.1-2.3.1/.content/arm-none-eabi/include/c++/10.3.1/bits/stl_algo.h ****     partition_point(_ForwardIterator __first, _ForwardIterator __last,
 553:/Users/lawrencestanton/Library/Application Support/Code/User/globalStorage/bmd.stm32-for-vscode/@xpack-dev-tools/arm-none-eabi-gcc/10.3.1-2.3.1/.content/arm-none-eabi/include/c++/10.3.1/bits/stl_algo.h **** 		    _Predicate __pred)
 554:/Users/lawrencestanton/Library/Application Support/Code/User/globalStorage/bmd.stm32-for-vscode/@xpack-dev-tools/arm-none-eabi-gcc/10.3.1-2.3.1/.content/arm-none-eabi/include/c++/10.3.1/bits/stl_algo.h ****     {
 555:/Users/lawrencestanton/Library/Application Support/Code/User/globalStorage/bmd.stm32-for-vscode/@xpack-dev-tools/arm-none-eabi-gcc/10.3.1-2.3.1/.content/arm-none-eabi/include/c++/10.3.1/bits/stl_algo.h ****       // concept requirements
 556:/Users/lawrencestanton/Library/Application Support/Code/User/globalStorage/bmd.stm32-for-vscode/@xpack-dev-tools/arm-none-eabi-gcc/10.3.1-2.3.1/.content/arm-none-eabi/include/c++/10.3.1/bits/stl_algo.h ****       __glibcxx_function_requires(_ForwardIteratorConcept<_ForwardIterator>)
 557:/Users/lawrencestanton/Library/Application Support/Code/User/globalStorage/bmd.stm32-for-vscode/@xpack-dev-tools/arm-none-eabi-gcc/10.3.1-2.3.1/.content/arm-none-eabi/include/c++/10.3.1/bits/stl_algo.h ****       __glibcxx_function_requires(_UnaryPredicateConcept<_Predicate,
 558:/Users/lawrencestanton/Library/Application Support/Code/User/globalStorage/bmd.stm32-for-vscode/@xpack-dev-tools/arm-none-eabi-gcc/10.3.1-2.3.1/.content/arm-none-eabi/include/c++/10.3.1/bits/stl_algo.h **** 	      typename iterator_traits<_ForwardIterator>::value_type>)
 559:/Users/lawrencestanton/Library/Application Support/Code/User/globalStorage/bmd.stm32-for-vscode/@xpack-dev-tools/arm-none-eabi-gcc/10.3.1-2.3.1/.content/arm-none-eabi/include/c++/10.3.1/bits/stl_algo.h **** 
 560:/Users/lawrencestanton/Library/Application Support/Code/User/globalStorage/bmd.stm32-for-vscode/@xpack-dev-tools/arm-none-eabi-gcc/10.3.1-2.3.1/.content/arm-none-eabi/include/c++/10.3.1/bits/stl_algo.h ****       // A specific debug-mode test will be necessary...
 561:/Users/lawrencestanton/Library/Application Support/Code/User/globalStorage/bmd.stm32-for-vscode/@xpack-dev-tools/arm-none-eabi-gcc/10.3.1-2.3.1/.content/arm-none-eabi/include/c++/10.3.1/bits/stl_algo.h ****       __glibcxx_requires_valid_range(__first, __last);
 562:/Users/lawrencestanton/Library/Application Support/Code/User/globalStorage/bmd.stm32-for-vscode/@xpack-dev-tools/arm-none-eabi-gcc/10.3.1-2.3.1/.content/arm-none-eabi/include/c++/10.3.1/bits/stl_algo.h **** 
 563:/Users/lawrencestanton/Library/Application Support/Code/User/globalStorage/bmd.stm32-for-vscode/@xpack-dev-tools/arm-none-eabi-gcc/10.3.1-2.3.1/.content/arm-none-eabi/include/c++/10.3.1/bits/stl_algo.h ****       typedef typename iterator_traits<_ForwardIterator>::difference_type
 564:/Users/lawrencestanton/Library/Application Support/Code/User/globalStorage/bmd.stm32-for-vscode/@xpack-dev-tools/arm-none-eabi-gcc/10.3.1-2.3.1/.content/arm-none-eabi/include/c++/10.3.1/bits/stl_algo.h **** 	_DistanceType;
 565:/Users/lawrencestanton/Library/Application Support/Code/User/globalStorage/bmd.stm32-for-vscode/@xpack-dev-tools/arm-none-eabi-gcc/10.3.1-2.3.1/.content/arm-none-eabi/include/c++/10.3.1/bits/stl_algo.h **** 
 566:/Users/lawrencestanton/Library/Application Support/Code/User/globalStorage/bmd.stm32-for-vscode/@xpack-dev-tools/arm-none-eabi-gcc/10.3.1-2.3.1/.content/arm-none-eabi/include/c++/10.3.1/bits/stl_algo.h ****       _DistanceType __len = std::distance(__first, __last);
 567:/Users/lawrencestanton/Library/Application Support/Code/User/globalStorage/bmd.stm32-for-vscode/@xpack-dev-tools/arm-none-eabi-gcc/10.3.1-2.3.1/.content/arm-none-eabi/include/c++/10.3.1/bits/stl_algo.h **** 
 568:/Users/lawrencestanton/Library/Application Support/Code/User/globalStorage/bmd.stm32-for-vscode/@xpack-dev-tools/arm-none-eabi-gcc/10.3.1-2.3.1/.content/arm-none-eabi/include/c++/10.3.1/bits/stl_algo.h ****       while (__len > 0)
 569:/Users/lawrencestanton/Library/Application Support/Code/User/globalStorage/bmd.stm32-for-vscode/@xpack-dev-tools/arm-none-eabi-gcc/10.3.1-2.3.1/.content/arm-none-eabi/include/c++/10.3.1/bits/stl_algo.h **** 	{
 570:/Users/lawrencestanton/Library/Application Support/Code/User/globalStorage/bmd.stm32-for-vscode/@xpack-dev-tools/arm-none-eabi-gcc/10.3.1-2.3.1/.content/arm-none-eabi/include/c++/10.3.1/bits/stl_algo.h **** 	  _DistanceType __half = __len >> 1;
 571:/Users/lawrencestanton/Library/Application Support/Code/User/globalStorage/bmd.stm32-for-vscode/@xpack-dev-tools/arm-none-eabi-gcc/10.3.1-2.3.1/.content/arm-none-eabi/include/c++/10.3.1/bits/stl_algo.h **** 	  _ForwardIterator __middle = __first;
 572:/Users/lawrencestanton/Library/Application Support/Code/User/globalStorage/bmd.stm32-for-vscode/@xpack-dev-tools/arm-none-eabi-gcc/10.3.1-2.3.1/.content/arm-none-eabi/include/c++/10.3.1/bits/stl_algo.h **** 	  std::advance(__middle, __half);
 573:/Users/lawrencestanton/Library/Application Support/Code/User/globalStorage/bmd.stm32-for-vscode/@xpack-dev-tools/arm-none-eabi-gcc/10.3.1-2.3.1/.content/arm-none-eabi/include/c++/10.3.1/bits/stl_algo.h **** 	  if (__pred(*__middle))
 574:/Users/lawrencestanton/Library/Application Support/Code/User/globalStorage/bmd.stm32-for-vscode/@xpack-dev-tools/arm-none-eabi-gcc/10.3.1-2.3.1/.content/arm-none-eabi/include/c++/10.3.1/bits/stl_algo.h **** 	    {
 575:/Users/lawrencestanton/Library/Application Support/Code/User/globalStorage/bmd.stm32-for-vscode/@xpack-dev-tools/arm-none-eabi-gcc/10.3.1-2.3.1/.content/arm-none-eabi/include/c++/10.3.1/bits/stl_algo.h **** 	      __first = __middle;
 576:/Users/lawrencestanton/Library/Application Support/Code/User/globalStorage/bmd.stm32-for-vscode/@xpack-dev-tools/arm-none-eabi-gcc/10.3.1-2.3.1/.content/arm-none-eabi/include/c++/10.3.1/bits/stl_algo.h **** 	      ++__first;
 577:/Users/lawrencestanton/Library/Application Support/Code/User/globalStorage/bmd.stm32-for-vscode/@xpack-dev-tools/arm-none-eabi-gcc/10.3.1-2.3.1/.content/arm-none-eabi/include/c++/10.3.1/bits/stl_algo.h **** 	      __len = __len - __half - 1;
 578:/Users/lawrencestanton/Library/Application Support/Code/User/globalStorage/bmd.stm32-for-vscode/@xpack-dev-tools/arm-none-eabi-gcc/10.3.1-2.3.1/.content/arm-none-eabi/include/c++/10.3.1/bits/stl_algo.h **** 	    }
 579:/Users/lawrencestanton/Library/Application Support/Code/User/globalStorage/bmd.stm32-for-vscode/@xpack-dev-tools/arm-none-eabi-gcc/10.3.1-2.3.1/.content/arm-none-eabi/include/c++/10.3.1/bits/stl_algo.h **** 	  else
 580:/Users/lawrencestanton/Library/Application Support/Code/User/globalStorage/bmd.stm32-for-vscode/@xpack-dev-tools/arm-none-eabi-gcc/10.3.1-2.3.1/.content/arm-none-eabi/include/c++/10.3.1/bits/stl_algo.h **** 	    __len = __half;
 581:/Users/lawrencestanton/Library/Application Support/Code/User/globalStorage/bmd.stm32-for-vscode/@xpack-dev-tools/arm-none-eabi-gcc/10.3.1-2.3.1/.content/arm-none-eabi/include/c++/10.3.1/bits/stl_algo.h **** 	}
 582:/Users/lawrencestanton/Library/Application Support/Code/User/globalStorage/bmd.stm32-for-vscode/@xpack-dev-tools/arm-none-eabi-gcc/10.3.1-2.3.1/.content/arm-none-eabi/include/c++/10.3.1/bits/stl_algo.h ****       return __first;
 583:/Users/lawrencestanton/Library/Application Support/Code/User/globalStorage/bmd.stm32-for-vscode/@xpack-dev-tools/arm-none-eabi-gcc/10.3.1-2.3.1/.content/arm-none-eabi/include/c++/10.3.1/bits/stl_algo.h ****     }
 584:/Users/lawrencestanton/Library/Application Support/Code/User/globalStorage/bmd.stm32-for-vscode/@xpack-dev-tools/arm-none-eabi-gcc/10.3.1-2.3.1/.content/arm-none-eabi/include/c++/10.3.1/bits/stl_algo.h **** #endif
 585:/Users/lawrencestanton/Library/Application Support/Code/User/globalStorage/bmd.stm32-for-vscode/@xpack-dev-tools/arm-none-eabi-gcc/10.3.1-2.3.1/.content/arm-none-eabi/include/c++/10.3.1/bits/stl_algo.h **** 
 586:/Users/lawrencestanton/Library/Application Support/Code/User/globalStorage/bmd.stm32-for-vscode/@xpack-dev-tools/arm-none-eabi-gcc/10.3.1-2.3.1/.content/arm-none-eabi/include/c++/10.3.1/bits/stl_algo.h ****   template<typename _InputIterator, typename _OutputIterator,
 587:/Users/lawrencestanton/Library/Application Support/Code/User/globalStorage/bmd.stm32-for-vscode/@xpack-dev-tools/arm-none-eabi-gcc/10.3.1-2.3.1/.content/arm-none-eabi/include/c++/10.3.1/bits/stl_algo.h **** 	   typename _Predicate>
ARM GAS  /var/folders/bb/dhrb69655gd8t4nf464nxc_00000gn/T//cc50CdYq.s 			page 20


 588:/Users/lawrencestanton/Library/Application Support/Code/User/globalStorage/bmd.stm32-for-vscode/@xpack-dev-tools/arm-none-eabi-gcc/10.3.1-2.3.1/.content/arm-none-eabi/include/c++/10.3.1/bits/stl_algo.h ****     _GLIBCXX20_CONSTEXPR
 589:/Users/lawrencestanton/Library/Application Support/Code/User/globalStorage/bmd.stm32-for-vscode/@xpack-dev-tools/arm-none-eabi-gcc/10.3.1-2.3.1/.content/arm-none-eabi/include/c++/10.3.1/bits/stl_algo.h ****     _OutputIterator
 590:/Users/lawrencestanton/Library/Application Support/Code/User/globalStorage/bmd.stm32-for-vscode/@xpack-dev-tools/arm-none-eabi-gcc/10.3.1-2.3.1/.content/arm-none-eabi/include/c++/10.3.1/bits/stl_algo.h ****     __remove_copy_if(_InputIterator __first, _InputIterator __last,
 591:/Users/lawrencestanton/Library/Application Support/Code/User/globalStorage/bmd.stm32-for-vscode/@xpack-dev-tools/arm-none-eabi-gcc/10.3.1-2.3.1/.content/arm-none-eabi/include/c++/10.3.1/bits/stl_algo.h **** 		     _OutputIterator __result, _Predicate __pred)
 592:/Users/lawrencestanton/Library/Application Support/Code/User/globalStorage/bmd.stm32-for-vscode/@xpack-dev-tools/arm-none-eabi-gcc/10.3.1-2.3.1/.content/arm-none-eabi/include/c++/10.3.1/bits/stl_algo.h ****     {
 593:/Users/lawrencestanton/Library/Application Support/Code/User/globalStorage/bmd.stm32-for-vscode/@xpack-dev-tools/arm-none-eabi-gcc/10.3.1-2.3.1/.content/arm-none-eabi/include/c++/10.3.1/bits/stl_algo.h ****       for (; __first != __last; ++__first)
 594:/Users/lawrencestanton/Library/Application Support/Code/User/globalStorage/bmd.stm32-for-vscode/@xpack-dev-tools/arm-none-eabi-gcc/10.3.1-2.3.1/.content/arm-none-eabi/include/c++/10.3.1/bits/stl_algo.h **** 	if (!__pred(__first))
 595:/Users/lawrencestanton/Library/Application Support/Code/User/globalStorage/bmd.stm32-for-vscode/@xpack-dev-tools/arm-none-eabi-gcc/10.3.1-2.3.1/.content/arm-none-eabi/include/c++/10.3.1/bits/stl_algo.h **** 	  {
 596:/Users/lawrencestanton/Library/Application Support/Code/User/globalStorage/bmd.stm32-for-vscode/@xpack-dev-tools/arm-none-eabi-gcc/10.3.1-2.3.1/.content/arm-none-eabi/include/c++/10.3.1/bits/stl_algo.h **** 	    *__result = *__first;
 597:/Users/lawrencestanton/Library/Application Support/Code/User/globalStorage/bmd.stm32-for-vscode/@xpack-dev-tools/arm-none-eabi-gcc/10.3.1-2.3.1/.content/arm-none-eabi/include/c++/10.3.1/bits/stl_algo.h **** 	    ++__result;
 598:/Users/lawrencestanton/Library/Application Support/Code/User/globalStorage/bmd.stm32-for-vscode/@xpack-dev-tools/arm-none-eabi-gcc/10.3.1-2.3.1/.content/arm-none-eabi/include/c++/10.3.1/bits/stl_algo.h **** 	  }
 599:/Users/lawrencestanton/Library/Application Support/Code/User/globalStorage/bmd.stm32-for-vscode/@xpack-dev-tools/arm-none-eabi-gcc/10.3.1-2.3.1/.content/arm-none-eabi/include/c++/10.3.1/bits/stl_algo.h ****       return __result;
 600:/Users/lawrencestanton/Library/Application Support/Code/User/globalStorage/bmd.stm32-for-vscode/@xpack-dev-tools/arm-none-eabi-gcc/10.3.1-2.3.1/.content/arm-none-eabi/include/c++/10.3.1/bits/stl_algo.h ****     }
 601:/Users/lawrencestanton/Library/Application Support/Code/User/globalStorage/bmd.stm32-for-vscode/@xpack-dev-tools/arm-none-eabi-gcc/10.3.1-2.3.1/.content/arm-none-eabi/include/c++/10.3.1/bits/stl_algo.h **** 
 602:/Users/lawrencestanton/Library/Application Support/Code/User/globalStorage/bmd.stm32-for-vscode/@xpack-dev-tools/arm-none-eabi-gcc/10.3.1-2.3.1/.content/arm-none-eabi/include/c++/10.3.1/bits/stl_algo.h ****   /**
 603:/Users/lawrencestanton/Library/Application Support/Code/User/globalStorage/bmd.stm32-for-vscode/@xpack-dev-tools/arm-none-eabi-gcc/10.3.1-2.3.1/.content/arm-none-eabi/include/c++/10.3.1/bits/stl_algo.h ****    *  @brief Copy a sequence, removing elements of a given value.
 604:/Users/lawrencestanton/Library/Application Support/Code/User/globalStorage/bmd.stm32-for-vscode/@xpack-dev-tools/arm-none-eabi-gcc/10.3.1-2.3.1/.content/arm-none-eabi/include/c++/10.3.1/bits/stl_algo.h ****    *  @ingroup mutating_algorithms
 605:/Users/lawrencestanton/Library/Application Support/Code/User/globalStorage/bmd.stm32-for-vscode/@xpack-dev-tools/arm-none-eabi-gcc/10.3.1-2.3.1/.content/arm-none-eabi/include/c++/10.3.1/bits/stl_algo.h ****    *  @param  __first   An input iterator.
 606:/Users/lawrencestanton/Library/Application Support/Code/User/globalStorage/bmd.stm32-for-vscode/@xpack-dev-tools/arm-none-eabi-gcc/10.3.1-2.3.1/.content/arm-none-eabi/include/c++/10.3.1/bits/stl_algo.h ****    *  @param  __last    An input iterator.
 607:/Users/lawrencestanton/Library/Application Support/Code/User/globalStorage/bmd.stm32-for-vscode/@xpack-dev-tools/arm-none-eabi-gcc/10.3.1-2.3.1/.content/arm-none-eabi/include/c++/10.3.1/bits/stl_algo.h ****    *  @param  __result  An output iterator.
 608:/Users/lawrencestanton/Library/Application Support/Code/User/globalStorage/bmd.stm32-for-vscode/@xpack-dev-tools/arm-none-eabi-gcc/10.3.1-2.3.1/.content/arm-none-eabi/include/c++/10.3.1/bits/stl_algo.h ****    *  @param  __value   The value to be removed.
 609:/Users/lawrencestanton/Library/Application Support/Code/User/globalStorage/bmd.stm32-for-vscode/@xpack-dev-tools/arm-none-eabi-gcc/10.3.1-2.3.1/.content/arm-none-eabi/include/c++/10.3.1/bits/stl_algo.h ****    *  @return   An iterator designating the end of the resulting sequence.
 610:/Users/lawrencestanton/Library/Application Support/Code/User/globalStorage/bmd.stm32-for-vscode/@xpack-dev-tools/arm-none-eabi-gcc/10.3.1-2.3.1/.content/arm-none-eabi/include/c++/10.3.1/bits/stl_algo.h ****    *
 611:/Users/lawrencestanton/Library/Application Support/Code/User/globalStorage/bmd.stm32-for-vscode/@xpack-dev-tools/arm-none-eabi-gcc/10.3.1-2.3.1/.content/arm-none-eabi/include/c++/10.3.1/bits/stl_algo.h ****    *  Copies each element in the range @p [__first,__last) not equal
 612:/Users/lawrencestanton/Library/Application Support/Code/User/globalStorage/bmd.stm32-for-vscode/@xpack-dev-tools/arm-none-eabi-gcc/10.3.1-2.3.1/.content/arm-none-eabi/include/c++/10.3.1/bits/stl_algo.h ****    *  to @p __value to the range beginning at @p __result.
 613:/Users/lawrencestanton/Library/Application Support/Code/User/globalStorage/bmd.stm32-for-vscode/@xpack-dev-tools/arm-none-eabi-gcc/10.3.1-2.3.1/.content/arm-none-eabi/include/c++/10.3.1/bits/stl_algo.h ****    *  remove_copy() is stable, so the relative order of elements that
 614:/Users/lawrencestanton/Library/Application Support/Code/User/globalStorage/bmd.stm32-for-vscode/@xpack-dev-tools/arm-none-eabi-gcc/10.3.1-2.3.1/.content/arm-none-eabi/include/c++/10.3.1/bits/stl_algo.h ****    *  are copied is unchanged.
 615:/Users/lawrencestanton/Library/Application Support/Code/User/globalStorage/bmd.stm32-for-vscode/@xpack-dev-tools/arm-none-eabi-gcc/10.3.1-2.3.1/.content/arm-none-eabi/include/c++/10.3.1/bits/stl_algo.h ****   */
 616:/Users/lawrencestanton/Library/Application Support/Code/User/globalStorage/bmd.stm32-for-vscode/@xpack-dev-tools/arm-none-eabi-gcc/10.3.1-2.3.1/.content/arm-none-eabi/include/c++/10.3.1/bits/stl_algo.h ****   template<typename _InputIterator, typename _OutputIterator, typename _Tp>
 617:/Users/lawrencestanton/Library/Application Support/Code/User/globalStorage/bmd.stm32-for-vscode/@xpack-dev-tools/arm-none-eabi-gcc/10.3.1-2.3.1/.content/arm-none-eabi/include/c++/10.3.1/bits/stl_algo.h ****     _GLIBCXX20_CONSTEXPR
 618:/Users/lawrencestanton/Library/Application Support/Code/User/globalStorage/bmd.stm32-for-vscode/@xpack-dev-tools/arm-none-eabi-gcc/10.3.1-2.3.1/.content/arm-none-eabi/include/c++/10.3.1/bits/stl_algo.h ****     inline _OutputIterator
 619:/Users/lawrencestanton/Library/Application Support/Code/User/globalStorage/bmd.stm32-for-vscode/@xpack-dev-tools/arm-none-eabi-gcc/10.3.1-2.3.1/.content/arm-none-eabi/include/c++/10.3.1/bits/stl_algo.h ****     remove_copy(_InputIterator __first, _InputIterator __last,
 620:/Users/lawrencestanton/Library/Application Support/Code/User/globalStorage/bmd.stm32-for-vscode/@xpack-dev-tools/arm-none-eabi-gcc/10.3.1-2.3.1/.content/arm-none-eabi/include/c++/10.3.1/bits/stl_algo.h **** 		_OutputIterator __result, const _Tp& __value)
 621:/Users/lawrencestanton/Library/Application Support/Code/User/globalStorage/bmd.stm32-for-vscode/@xpack-dev-tools/arm-none-eabi-gcc/10.3.1-2.3.1/.content/arm-none-eabi/include/c++/10.3.1/bits/stl_algo.h ****     {
 622:/Users/lawrencestanton/Library/Application Support/Code/User/globalStorage/bmd.stm32-for-vscode/@xpack-dev-tools/arm-none-eabi-gcc/10.3.1-2.3.1/.content/arm-none-eabi/include/c++/10.3.1/bits/stl_algo.h ****       // concept requirements
 623:/Users/lawrencestanton/Library/Application Support/Code/User/globalStorage/bmd.stm32-for-vscode/@xpack-dev-tools/arm-none-eabi-gcc/10.3.1-2.3.1/.content/arm-none-eabi/include/c++/10.3.1/bits/stl_algo.h ****       __glibcxx_function_requires(_InputIteratorConcept<_InputIterator>)
 624:/Users/lawrencestanton/Library/Application Support/Code/User/globalStorage/bmd.stm32-for-vscode/@xpack-dev-tools/arm-none-eabi-gcc/10.3.1-2.3.1/.content/arm-none-eabi/include/c++/10.3.1/bits/stl_algo.h ****       __glibcxx_function_requires(_OutputIteratorConcept<_OutputIterator,
 625:/Users/lawrencestanton/Library/Application Support/Code/User/globalStorage/bmd.stm32-for-vscode/@xpack-dev-tools/arm-none-eabi-gcc/10.3.1-2.3.1/.content/arm-none-eabi/include/c++/10.3.1/bits/stl_algo.h **** 	    typename iterator_traits<_InputIterator>::value_type>)
 626:/Users/lawrencestanton/Library/Application Support/Code/User/globalStorage/bmd.stm32-for-vscode/@xpack-dev-tools/arm-none-eabi-gcc/10.3.1-2.3.1/.content/arm-none-eabi/include/c++/10.3.1/bits/stl_algo.h ****       __glibcxx_function_requires(_EqualOpConcept<
 627:/Users/lawrencestanton/Library/Application Support/Code/User/globalStorage/bmd.stm32-for-vscode/@xpack-dev-tools/arm-none-eabi-gcc/10.3.1-2.3.1/.content/arm-none-eabi/include/c++/10.3.1/bits/stl_algo.h **** 	    typename iterator_traits<_InputIterator>::value_type, _Tp>)
 628:/Users/lawrencestanton/Library/Application Support/Code/User/globalStorage/bmd.stm32-for-vscode/@xpack-dev-tools/arm-none-eabi-gcc/10.3.1-2.3.1/.content/arm-none-eabi/include/c++/10.3.1/bits/stl_algo.h ****       __glibcxx_requires_valid_range(__first, __last);
 629:/Users/lawrencestanton/Library/Application Support/Code/User/globalStorage/bmd.stm32-for-vscode/@xpack-dev-tools/arm-none-eabi-gcc/10.3.1-2.3.1/.content/arm-none-eabi/include/c++/10.3.1/bits/stl_algo.h **** 
 630:/Users/lawrencestanton/Library/Application Support/Code/User/globalStorage/bmd.stm32-for-vscode/@xpack-dev-tools/arm-none-eabi-gcc/10.3.1-2.3.1/.content/arm-none-eabi/include/c++/10.3.1/bits/stl_algo.h ****       return std::__remove_copy_if(__first, __last, __result,
 631:/Users/lawrencestanton/Library/Application Support/Code/User/globalStorage/bmd.stm32-for-vscode/@xpack-dev-tools/arm-none-eabi-gcc/10.3.1-2.3.1/.content/arm-none-eabi/include/c++/10.3.1/bits/stl_algo.h **** 	__gnu_cxx::__ops::__iter_equals_val(__value));
 632:/Users/lawrencestanton/Library/Application Support/Code/User/globalStorage/bmd.stm32-for-vscode/@xpack-dev-tools/arm-none-eabi-gcc/10.3.1-2.3.1/.content/arm-none-eabi/include/c++/10.3.1/bits/stl_algo.h ****     }
 633:/Users/lawrencestanton/Library/Application Support/Code/User/globalStorage/bmd.stm32-for-vscode/@xpack-dev-tools/arm-none-eabi-gcc/10.3.1-2.3.1/.content/arm-none-eabi/include/c++/10.3.1/bits/stl_algo.h **** 
 634:/Users/lawrencestanton/Library/Application Support/Code/User/globalStorage/bmd.stm32-for-vscode/@xpack-dev-tools/arm-none-eabi-gcc/10.3.1-2.3.1/.content/arm-none-eabi/include/c++/10.3.1/bits/stl_algo.h ****   /**
 635:/Users/lawrencestanton/Library/Application Support/Code/User/globalStorage/bmd.stm32-for-vscode/@xpack-dev-tools/arm-none-eabi-gcc/10.3.1-2.3.1/.content/arm-none-eabi/include/c++/10.3.1/bits/stl_algo.h ****    *  @brief Copy a sequence, removing elements for which a predicate is true.
 636:/Users/lawrencestanton/Library/Application Support/Code/User/globalStorage/bmd.stm32-for-vscode/@xpack-dev-tools/arm-none-eabi-gcc/10.3.1-2.3.1/.content/arm-none-eabi/include/c++/10.3.1/bits/stl_algo.h ****    *  @ingroup mutating_algorithms
 637:/Users/lawrencestanton/Library/Application Support/Code/User/globalStorage/bmd.stm32-for-vscode/@xpack-dev-tools/arm-none-eabi-gcc/10.3.1-2.3.1/.content/arm-none-eabi/include/c++/10.3.1/bits/stl_algo.h ****    *  @param  __first   An input iterator.
 638:/Users/lawrencestanton/Library/Application Support/Code/User/globalStorage/bmd.stm32-for-vscode/@xpack-dev-tools/arm-none-eabi-gcc/10.3.1-2.3.1/.content/arm-none-eabi/include/c++/10.3.1/bits/stl_algo.h ****    *  @param  __last    An input iterator.
 639:/Users/lawrencestanton/Library/Application Support/Code/User/globalStorage/bmd.stm32-for-vscode/@xpack-dev-tools/arm-none-eabi-gcc/10.3.1-2.3.1/.content/arm-none-eabi/include/c++/10.3.1/bits/stl_algo.h ****    *  @param  __result  An output iterator.
 640:/Users/lawrencestanton/Library/Application Support/Code/User/globalStorage/bmd.stm32-for-vscode/@xpack-dev-tools/arm-none-eabi-gcc/10.3.1-2.3.1/.content/arm-none-eabi/include/c++/10.3.1/bits/stl_algo.h ****    *  @param  __pred    A predicate.
 641:/Users/lawrencestanton/Library/Application Support/Code/User/globalStorage/bmd.stm32-for-vscode/@xpack-dev-tools/arm-none-eabi-gcc/10.3.1-2.3.1/.content/arm-none-eabi/include/c++/10.3.1/bits/stl_algo.h ****    *  @return   An iterator designating the end of the resulting sequence.
 642:/Users/lawrencestanton/Library/Application Support/Code/User/globalStorage/bmd.stm32-for-vscode/@xpack-dev-tools/arm-none-eabi-gcc/10.3.1-2.3.1/.content/arm-none-eabi/include/c++/10.3.1/bits/stl_algo.h ****    *
 643:/Users/lawrencestanton/Library/Application Support/Code/User/globalStorage/bmd.stm32-for-vscode/@xpack-dev-tools/arm-none-eabi-gcc/10.3.1-2.3.1/.content/arm-none-eabi/include/c++/10.3.1/bits/stl_algo.h ****    *  Copies each element in the range @p [__first,__last) for which
 644:/Users/lawrencestanton/Library/Application Support/Code/User/globalStorage/bmd.stm32-for-vscode/@xpack-dev-tools/arm-none-eabi-gcc/10.3.1-2.3.1/.content/arm-none-eabi/include/c++/10.3.1/bits/stl_algo.h ****    *  @p __pred returns false to the range beginning at @p __result.
ARM GAS  /var/folders/bb/dhrb69655gd8t4nf464nxc_00000gn/T//cc50CdYq.s 			page 21


 645:/Users/lawrencestanton/Library/Application Support/Code/User/globalStorage/bmd.stm32-for-vscode/@xpack-dev-tools/arm-none-eabi-gcc/10.3.1-2.3.1/.content/arm-none-eabi/include/c++/10.3.1/bits/stl_algo.h ****    *
 646:/Users/lawrencestanton/Library/Application Support/Code/User/globalStorage/bmd.stm32-for-vscode/@xpack-dev-tools/arm-none-eabi-gcc/10.3.1-2.3.1/.content/arm-none-eabi/include/c++/10.3.1/bits/stl_algo.h ****    *  remove_copy_if() is stable, so the relative order of elements that are
 647:/Users/lawrencestanton/Library/Application Support/Code/User/globalStorage/bmd.stm32-for-vscode/@xpack-dev-tools/arm-none-eabi-gcc/10.3.1-2.3.1/.content/arm-none-eabi/include/c++/10.3.1/bits/stl_algo.h ****    *  copied is unchanged.
 648:/Users/lawrencestanton/Library/Application Support/Code/User/globalStorage/bmd.stm32-for-vscode/@xpack-dev-tools/arm-none-eabi-gcc/10.3.1-2.3.1/.content/arm-none-eabi/include/c++/10.3.1/bits/stl_algo.h ****   */
 649:/Users/lawrencestanton/Library/Application Support/Code/User/globalStorage/bmd.stm32-for-vscode/@xpack-dev-tools/arm-none-eabi-gcc/10.3.1-2.3.1/.content/arm-none-eabi/include/c++/10.3.1/bits/stl_algo.h ****   template<typename _InputIterator, typename _OutputIterator,
 650:/Users/lawrencestanton/Library/Application Support/Code/User/globalStorage/bmd.stm32-for-vscode/@xpack-dev-tools/arm-none-eabi-gcc/10.3.1-2.3.1/.content/arm-none-eabi/include/c++/10.3.1/bits/stl_algo.h **** 	   typename _Predicate>
 651:/Users/lawrencestanton/Library/Application Support/Code/User/globalStorage/bmd.stm32-for-vscode/@xpack-dev-tools/arm-none-eabi-gcc/10.3.1-2.3.1/.content/arm-none-eabi/include/c++/10.3.1/bits/stl_algo.h ****     _GLIBCXX20_CONSTEXPR
 652:/Users/lawrencestanton/Library/Application Support/Code/User/globalStorage/bmd.stm32-for-vscode/@xpack-dev-tools/arm-none-eabi-gcc/10.3.1-2.3.1/.content/arm-none-eabi/include/c++/10.3.1/bits/stl_algo.h ****     inline _OutputIterator
 653:/Users/lawrencestanton/Library/Application Support/Code/User/globalStorage/bmd.stm32-for-vscode/@xpack-dev-tools/arm-none-eabi-gcc/10.3.1-2.3.1/.content/arm-none-eabi/include/c++/10.3.1/bits/stl_algo.h ****     remove_copy_if(_InputIterator __first, _InputIterator __last,
 654:/Users/lawrencestanton/Library/Application Support/Code/User/globalStorage/bmd.stm32-for-vscode/@xpack-dev-tools/arm-none-eabi-gcc/10.3.1-2.3.1/.content/arm-none-eabi/include/c++/10.3.1/bits/stl_algo.h **** 		   _OutputIterator __result, _Predicate __pred)
 655:/Users/lawrencestanton/Library/Application Support/Code/User/globalStorage/bmd.stm32-for-vscode/@xpack-dev-tools/arm-none-eabi-gcc/10.3.1-2.3.1/.content/arm-none-eabi/include/c++/10.3.1/bits/stl_algo.h ****     {
 656:/Users/lawrencestanton/Library/Application Support/Code/User/globalStorage/bmd.stm32-for-vscode/@xpack-dev-tools/arm-none-eabi-gcc/10.3.1-2.3.1/.content/arm-none-eabi/include/c++/10.3.1/bits/stl_algo.h ****       // concept requirements
 657:/Users/lawrencestanton/Library/Application Support/Code/User/globalStorage/bmd.stm32-for-vscode/@xpack-dev-tools/arm-none-eabi-gcc/10.3.1-2.3.1/.content/arm-none-eabi/include/c++/10.3.1/bits/stl_algo.h ****       __glibcxx_function_requires(_InputIteratorConcept<_InputIterator>)
 658:/Users/lawrencestanton/Library/Application Support/Code/User/globalStorage/bmd.stm32-for-vscode/@xpack-dev-tools/arm-none-eabi-gcc/10.3.1-2.3.1/.content/arm-none-eabi/include/c++/10.3.1/bits/stl_algo.h ****       __glibcxx_function_requires(_OutputIteratorConcept<_OutputIterator,
 659:/Users/lawrencestanton/Library/Application Support/Code/User/globalStorage/bmd.stm32-for-vscode/@xpack-dev-tools/arm-none-eabi-gcc/10.3.1-2.3.1/.content/arm-none-eabi/include/c++/10.3.1/bits/stl_algo.h **** 	    typename iterator_traits<_InputIterator>::value_type>)
 660:/Users/lawrencestanton/Library/Application Support/Code/User/globalStorage/bmd.stm32-for-vscode/@xpack-dev-tools/arm-none-eabi-gcc/10.3.1-2.3.1/.content/arm-none-eabi/include/c++/10.3.1/bits/stl_algo.h ****       __glibcxx_function_requires(_UnaryPredicateConcept<_Predicate,
 661:/Users/lawrencestanton/Library/Application Support/Code/User/globalStorage/bmd.stm32-for-vscode/@xpack-dev-tools/arm-none-eabi-gcc/10.3.1-2.3.1/.content/arm-none-eabi/include/c++/10.3.1/bits/stl_algo.h **** 	    typename iterator_traits<_InputIterator>::value_type>)
 662:/Users/lawrencestanton/Library/Application Support/Code/User/globalStorage/bmd.stm32-for-vscode/@xpack-dev-tools/arm-none-eabi-gcc/10.3.1-2.3.1/.content/arm-none-eabi/include/c++/10.3.1/bits/stl_algo.h ****       __glibcxx_requires_valid_range(__first, __last);
 663:/Users/lawrencestanton/Library/Application Support/Code/User/globalStorage/bmd.stm32-for-vscode/@xpack-dev-tools/arm-none-eabi-gcc/10.3.1-2.3.1/.content/arm-none-eabi/include/c++/10.3.1/bits/stl_algo.h **** 
 664:/Users/lawrencestanton/Library/Application Support/Code/User/globalStorage/bmd.stm32-for-vscode/@xpack-dev-tools/arm-none-eabi-gcc/10.3.1-2.3.1/.content/arm-none-eabi/include/c++/10.3.1/bits/stl_algo.h ****       return std::__remove_copy_if(__first, __last, __result,
 665:/Users/lawrencestanton/Library/Application Support/Code/User/globalStorage/bmd.stm32-for-vscode/@xpack-dev-tools/arm-none-eabi-gcc/10.3.1-2.3.1/.content/arm-none-eabi/include/c++/10.3.1/bits/stl_algo.h **** 				   __gnu_cxx::__ops::__pred_iter(__pred));
 666:/Users/lawrencestanton/Library/Application Support/Code/User/globalStorage/bmd.stm32-for-vscode/@xpack-dev-tools/arm-none-eabi-gcc/10.3.1-2.3.1/.content/arm-none-eabi/include/c++/10.3.1/bits/stl_algo.h ****     }
 667:/Users/lawrencestanton/Library/Application Support/Code/User/globalStorage/bmd.stm32-for-vscode/@xpack-dev-tools/arm-none-eabi-gcc/10.3.1-2.3.1/.content/arm-none-eabi/include/c++/10.3.1/bits/stl_algo.h **** 
 668:/Users/lawrencestanton/Library/Application Support/Code/User/globalStorage/bmd.stm32-for-vscode/@xpack-dev-tools/arm-none-eabi-gcc/10.3.1-2.3.1/.content/arm-none-eabi/include/c++/10.3.1/bits/stl_algo.h **** #if __cplusplus >= 201103L
 669:/Users/lawrencestanton/Library/Application Support/Code/User/globalStorage/bmd.stm32-for-vscode/@xpack-dev-tools/arm-none-eabi-gcc/10.3.1-2.3.1/.content/arm-none-eabi/include/c++/10.3.1/bits/stl_algo.h ****   /**
 670:/Users/lawrencestanton/Library/Application Support/Code/User/globalStorage/bmd.stm32-for-vscode/@xpack-dev-tools/arm-none-eabi-gcc/10.3.1-2.3.1/.content/arm-none-eabi/include/c++/10.3.1/bits/stl_algo.h ****    *  @brief Copy the elements of a sequence for which a predicate is true.
 671:/Users/lawrencestanton/Library/Application Support/Code/User/globalStorage/bmd.stm32-for-vscode/@xpack-dev-tools/arm-none-eabi-gcc/10.3.1-2.3.1/.content/arm-none-eabi/include/c++/10.3.1/bits/stl_algo.h ****    *  @ingroup mutating_algorithms
 672:/Users/lawrencestanton/Library/Application Support/Code/User/globalStorage/bmd.stm32-for-vscode/@xpack-dev-tools/arm-none-eabi-gcc/10.3.1-2.3.1/.content/arm-none-eabi/include/c++/10.3.1/bits/stl_algo.h ****    *  @param  __first   An input iterator.
 673:/Users/lawrencestanton/Library/Application Support/Code/User/globalStorage/bmd.stm32-for-vscode/@xpack-dev-tools/arm-none-eabi-gcc/10.3.1-2.3.1/.content/arm-none-eabi/include/c++/10.3.1/bits/stl_algo.h ****    *  @param  __last    An input iterator.
 674:/Users/lawrencestanton/Library/Application Support/Code/User/globalStorage/bmd.stm32-for-vscode/@xpack-dev-tools/arm-none-eabi-gcc/10.3.1-2.3.1/.content/arm-none-eabi/include/c++/10.3.1/bits/stl_algo.h ****    *  @param  __result  An output iterator.
 675:/Users/lawrencestanton/Library/Application Support/Code/User/globalStorage/bmd.stm32-for-vscode/@xpack-dev-tools/arm-none-eabi-gcc/10.3.1-2.3.1/.content/arm-none-eabi/include/c++/10.3.1/bits/stl_algo.h ****    *  @param  __pred    A predicate.
 676:/Users/lawrencestanton/Library/Application Support/Code/User/globalStorage/bmd.stm32-for-vscode/@xpack-dev-tools/arm-none-eabi-gcc/10.3.1-2.3.1/.content/arm-none-eabi/include/c++/10.3.1/bits/stl_algo.h ****    *  @return   An iterator designating the end of the resulting sequence.
 677:/Users/lawrencestanton/Library/Application Support/Code/User/globalStorage/bmd.stm32-for-vscode/@xpack-dev-tools/arm-none-eabi-gcc/10.3.1-2.3.1/.content/arm-none-eabi/include/c++/10.3.1/bits/stl_algo.h ****    *
 678:/Users/lawrencestanton/Library/Application Support/Code/User/globalStorage/bmd.stm32-for-vscode/@xpack-dev-tools/arm-none-eabi-gcc/10.3.1-2.3.1/.content/arm-none-eabi/include/c++/10.3.1/bits/stl_algo.h ****    *  Copies each element in the range @p [__first,__last) for which
 679:/Users/lawrencestanton/Library/Application Support/Code/User/globalStorage/bmd.stm32-for-vscode/@xpack-dev-tools/arm-none-eabi-gcc/10.3.1-2.3.1/.content/arm-none-eabi/include/c++/10.3.1/bits/stl_algo.h ****    *  @p __pred returns true to the range beginning at @p __result.
 680:/Users/lawrencestanton/Library/Application Support/Code/User/globalStorage/bmd.stm32-for-vscode/@xpack-dev-tools/arm-none-eabi-gcc/10.3.1-2.3.1/.content/arm-none-eabi/include/c++/10.3.1/bits/stl_algo.h ****    *
 681:/Users/lawrencestanton/Library/Application Support/Code/User/globalStorage/bmd.stm32-for-vscode/@xpack-dev-tools/arm-none-eabi-gcc/10.3.1-2.3.1/.content/arm-none-eabi/include/c++/10.3.1/bits/stl_algo.h ****    *  copy_if() is stable, so the relative order of elements that are
 682:/Users/lawrencestanton/Library/Application Support/Code/User/globalStorage/bmd.stm32-for-vscode/@xpack-dev-tools/arm-none-eabi-gcc/10.3.1-2.3.1/.content/arm-none-eabi/include/c++/10.3.1/bits/stl_algo.h ****    *  copied is unchanged.
 683:/Users/lawrencestanton/Library/Application Support/Code/User/globalStorage/bmd.stm32-for-vscode/@xpack-dev-tools/arm-none-eabi-gcc/10.3.1-2.3.1/.content/arm-none-eabi/include/c++/10.3.1/bits/stl_algo.h ****   */
 684:/Users/lawrencestanton/Library/Application Support/Code/User/globalStorage/bmd.stm32-for-vscode/@xpack-dev-tools/arm-none-eabi-gcc/10.3.1-2.3.1/.content/arm-none-eabi/include/c++/10.3.1/bits/stl_algo.h ****   template<typename _InputIterator, typename _OutputIterator,
 685:/Users/lawrencestanton/Library/Application Support/Code/User/globalStorage/bmd.stm32-for-vscode/@xpack-dev-tools/arm-none-eabi-gcc/10.3.1-2.3.1/.content/arm-none-eabi/include/c++/10.3.1/bits/stl_algo.h **** 	   typename _Predicate>
 686:/Users/lawrencestanton/Library/Application Support/Code/User/globalStorage/bmd.stm32-for-vscode/@xpack-dev-tools/arm-none-eabi-gcc/10.3.1-2.3.1/.content/arm-none-eabi/include/c++/10.3.1/bits/stl_algo.h ****     _GLIBCXX20_CONSTEXPR
 687:/Users/lawrencestanton/Library/Application Support/Code/User/globalStorage/bmd.stm32-for-vscode/@xpack-dev-tools/arm-none-eabi-gcc/10.3.1-2.3.1/.content/arm-none-eabi/include/c++/10.3.1/bits/stl_algo.h ****     _OutputIterator
 688:/Users/lawrencestanton/Library/Application Support/Code/User/globalStorage/bmd.stm32-for-vscode/@xpack-dev-tools/arm-none-eabi-gcc/10.3.1-2.3.1/.content/arm-none-eabi/include/c++/10.3.1/bits/stl_algo.h ****     copy_if(_InputIterator __first, _InputIterator __last,
 689:/Users/lawrencestanton/Library/Application Support/Code/User/globalStorage/bmd.stm32-for-vscode/@xpack-dev-tools/arm-none-eabi-gcc/10.3.1-2.3.1/.content/arm-none-eabi/include/c++/10.3.1/bits/stl_algo.h **** 	    _OutputIterator __result, _Predicate __pred)
 690:/Users/lawrencestanton/Library/Application Support/Code/User/globalStorage/bmd.stm32-for-vscode/@xpack-dev-tools/arm-none-eabi-gcc/10.3.1-2.3.1/.content/arm-none-eabi/include/c++/10.3.1/bits/stl_algo.h ****     {
 691:/Users/lawrencestanton/Library/Application Support/Code/User/globalStorage/bmd.stm32-for-vscode/@xpack-dev-tools/arm-none-eabi-gcc/10.3.1-2.3.1/.content/arm-none-eabi/include/c++/10.3.1/bits/stl_algo.h ****       // concept requirements
 692:/Users/lawrencestanton/Library/Application Support/Code/User/globalStorage/bmd.stm32-for-vscode/@xpack-dev-tools/arm-none-eabi-gcc/10.3.1-2.3.1/.content/arm-none-eabi/include/c++/10.3.1/bits/stl_algo.h ****       __glibcxx_function_requires(_InputIteratorConcept<_InputIterator>)
 693:/Users/lawrencestanton/Library/Application Support/Code/User/globalStorage/bmd.stm32-for-vscode/@xpack-dev-tools/arm-none-eabi-gcc/10.3.1-2.3.1/.content/arm-none-eabi/include/c++/10.3.1/bits/stl_algo.h ****       __glibcxx_function_requires(_OutputIteratorConcept<_OutputIterator,
 694:/Users/lawrencestanton/Library/Application Support/Code/User/globalStorage/bmd.stm32-for-vscode/@xpack-dev-tools/arm-none-eabi-gcc/10.3.1-2.3.1/.content/arm-none-eabi/include/c++/10.3.1/bits/stl_algo.h **** 	    typename iterator_traits<_InputIterator>::value_type>)
 695:/Users/lawrencestanton/Library/Application Support/Code/User/globalStorage/bmd.stm32-for-vscode/@xpack-dev-tools/arm-none-eabi-gcc/10.3.1-2.3.1/.content/arm-none-eabi/include/c++/10.3.1/bits/stl_algo.h ****       __glibcxx_function_requires(_UnaryPredicateConcept<_Predicate,
 696:/Users/lawrencestanton/Library/Application Support/Code/User/globalStorage/bmd.stm32-for-vscode/@xpack-dev-tools/arm-none-eabi-gcc/10.3.1-2.3.1/.content/arm-none-eabi/include/c++/10.3.1/bits/stl_algo.h **** 	    typename iterator_traits<_InputIterator>::value_type>)
 697:/Users/lawrencestanton/Library/Application Support/Code/User/globalStorage/bmd.stm32-for-vscode/@xpack-dev-tools/arm-none-eabi-gcc/10.3.1-2.3.1/.content/arm-none-eabi/include/c++/10.3.1/bits/stl_algo.h ****       __glibcxx_requires_valid_range(__first, __last);
 698:/Users/lawrencestanton/Library/Application Support/Code/User/globalStorage/bmd.stm32-for-vscode/@xpack-dev-tools/arm-none-eabi-gcc/10.3.1-2.3.1/.content/arm-none-eabi/include/c++/10.3.1/bits/stl_algo.h **** 
 699:/Users/lawrencestanton/Library/Application Support/Code/User/globalStorage/bmd.stm32-for-vscode/@xpack-dev-tools/arm-none-eabi-gcc/10.3.1-2.3.1/.content/arm-none-eabi/include/c++/10.3.1/bits/stl_algo.h ****       for (; __first != __last; ++__first)
 700:/Users/lawrencestanton/Library/Application Support/Code/User/globalStorage/bmd.stm32-for-vscode/@xpack-dev-tools/arm-none-eabi-gcc/10.3.1-2.3.1/.content/arm-none-eabi/include/c++/10.3.1/bits/stl_algo.h **** 	if (__pred(*__first))
 701:/Users/lawrencestanton/Library/Application Support/Code/User/globalStorage/bmd.stm32-for-vscode/@xpack-dev-tools/arm-none-eabi-gcc/10.3.1-2.3.1/.content/arm-none-eabi/include/c++/10.3.1/bits/stl_algo.h **** 	  {
ARM GAS  /var/folders/bb/dhrb69655gd8t4nf464nxc_00000gn/T//cc50CdYq.s 			page 22


 702:/Users/lawrencestanton/Library/Application Support/Code/User/globalStorage/bmd.stm32-for-vscode/@xpack-dev-tools/arm-none-eabi-gcc/10.3.1-2.3.1/.content/arm-none-eabi/include/c++/10.3.1/bits/stl_algo.h **** 	    *__result = *__first;
 703:/Users/lawrencestanton/Library/Application Support/Code/User/globalStorage/bmd.stm32-for-vscode/@xpack-dev-tools/arm-none-eabi-gcc/10.3.1-2.3.1/.content/arm-none-eabi/include/c++/10.3.1/bits/stl_algo.h **** 	    ++__result;
 704:/Users/lawrencestanton/Library/Application Support/Code/User/globalStorage/bmd.stm32-for-vscode/@xpack-dev-tools/arm-none-eabi-gcc/10.3.1-2.3.1/.content/arm-none-eabi/include/c++/10.3.1/bits/stl_algo.h **** 	  }
 705:/Users/lawrencestanton/Library/Application Support/Code/User/globalStorage/bmd.stm32-for-vscode/@xpack-dev-tools/arm-none-eabi-gcc/10.3.1-2.3.1/.content/arm-none-eabi/include/c++/10.3.1/bits/stl_algo.h ****       return __result;
 706:/Users/lawrencestanton/Library/Application Support/Code/User/globalStorage/bmd.stm32-for-vscode/@xpack-dev-tools/arm-none-eabi-gcc/10.3.1-2.3.1/.content/arm-none-eabi/include/c++/10.3.1/bits/stl_algo.h ****     }
 707:/Users/lawrencestanton/Library/Application Support/Code/User/globalStorage/bmd.stm32-for-vscode/@xpack-dev-tools/arm-none-eabi-gcc/10.3.1-2.3.1/.content/arm-none-eabi/include/c++/10.3.1/bits/stl_algo.h **** 
 708:/Users/lawrencestanton/Library/Application Support/Code/User/globalStorage/bmd.stm32-for-vscode/@xpack-dev-tools/arm-none-eabi-gcc/10.3.1-2.3.1/.content/arm-none-eabi/include/c++/10.3.1/bits/stl_algo.h ****   template<typename _InputIterator, typename _Size, typename _OutputIterator>
 709:/Users/lawrencestanton/Library/Application Support/Code/User/globalStorage/bmd.stm32-for-vscode/@xpack-dev-tools/arm-none-eabi-gcc/10.3.1-2.3.1/.content/arm-none-eabi/include/c++/10.3.1/bits/stl_algo.h ****     _GLIBCXX20_CONSTEXPR
 710:/Users/lawrencestanton/Library/Application Support/Code/User/globalStorage/bmd.stm32-for-vscode/@xpack-dev-tools/arm-none-eabi-gcc/10.3.1-2.3.1/.content/arm-none-eabi/include/c++/10.3.1/bits/stl_algo.h ****     _OutputIterator
 711:/Users/lawrencestanton/Library/Application Support/Code/User/globalStorage/bmd.stm32-for-vscode/@xpack-dev-tools/arm-none-eabi-gcc/10.3.1-2.3.1/.content/arm-none-eabi/include/c++/10.3.1/bits/stl_algo.h ****     __copy_n_a(_InputIterator __first, _Size __n, _OutputIterator __result)
 712:/Users/lawrencestanton/Library/Application Support/Code/User/globalStorage/bmd.stm32-for-vscode/@xpack-dev-tools/arm-none-eabi-gcc/10.3.1-2.3.1/.content/arm-none-eabi/include/c++/10.3.1/bits/stl_algo.h ****     {
 713:/Users/lawrencestanton/Library/Application Support/Code/User/globalStorage/bmd.stm32-for-vscode/@xpack-dev-tools/arm-none-eabi-gcc/10.3.1-2.3.1/.content/arm-none-eabi/include/c++/10.3.1/bits/stl_algo.h ****       if (__n > 0)
 714:/Users/lawrencestanton/Library/Application Support/Code/User/globalStorage/bmd.stm32-for-vscode/@xpack-dev-tools/arm-none-eabi-gcc/10.3.1-2.3.1/.content/arm-none-eabi/include/c++/10.3.1/bits/stl_algo.h **** 	{
 715:/Users/lawrencestanton/Library/Application Support/Code/User/globalStorage/bmd.stm32-for-vscode/@xpack-dev-tools/arm-none-eabi-gcc/10.3.1-2.3.1/.content/arm-none-eabi/include/c++/10.3.1/bits/stl_algo.h **** 	  while (true)
 716:/Users/lawrencestanton/Library/Application Support/Code/User/globalStorage/bmd.stm32-for-vscode/@xpack-dev-tools/arm-none-eabi-gcc/10.3.1-2.3.1/.content/arm-none-eabi/include/c++/10.3.1/bits/stl_algo.h **** 	    {
 717:/Users/lawrencestanton/Library/Application Support/Code/User/globalStorage/bmd.stm32-for-vscode/@xpack-dev-tools/arm-none-eabi-gcc/10.3.1-2.3.1/.content/arm-none-eabi/include/c++/10.3.1/bits/stl_algo.h **** 	      *__result = *__first;
 718:/Users/lawrencestanton/Library/Application Support/Code/User/globalStorage/bmd.stm32-for-vscode/@xpack-dev-tools/arm-none-eabi-gcc/10.3.1-2.3.1/.content/arm-none-eabi/include/c++/10.3.1/bits/stl_algo.h **** 	      ++__result;
 719:/Users/lawrencestanton/Library/Application Support/Code/User/globalStorage/bmd.stm32-for-vscode/@xpack-dev-tools/arm-none-eabi-gcc/10.3.1-2.3.1/.content/arm-none-eabi/include/c++/10.3.1/bits/stl_algo.h **** 	      if (--__n > 0)
 720:/Users/lawrencestanton/Library/Application Support/Code/User/globalStorage/bmd.stm32-for-vscode/@xpack-dev-tools/arm-none-eabi-gcc/10.3.1-2.3.1/.content/arm-none-eabi/include/c++/10.3.1/bits/stl_algo.h **** 		++__first;
 721:/Users/lawrencestanton/Library/Application Support/Code/User/globalStorage/bmd.stm32-for-vscode/@xpack-dev-tools/arm-none-eabi-gcc/10.3.1-2.3.1/.content/arm-none-eabi/include/c++/10.3.1/bits/stl_algo.h **** 	      else
 722:/Users/lawrencestanton/Library/Application Support/Code/User/globalStorage/bmd.stm32-for-vscode/@xpack-dev-tools/arm-none-eabi-gcc/10.3.1-2.3.1/.content/arm-none-eabi/include/c++/10.3.1/bits/stl_algo.h **** 		break;
 723:/Users/lawrencestanton/Library/Application Support/Code/User/globalStorage/bmd.stm32-for-vscode/@xpack-dev-tools/arm-none-eabi-gcc/10.3.1-2.3.1/.content/arm-none-eabi/include/c++/10.3.1/bits/stl_algo.h **** 	    }
 724:/Users/lawrencestanton/Library/Application Support/Code/User/globalStorage/bmd.stm32-for-vscode/@xpack-dev-tools/arm-none-eabi-gcc/10.3.1-2.3.1/.content/arm-none-eabi/include/c++/10.3.1/bits/stl_algo.h **** 	}
 725:/Users/lawrencestanton/Library/Application Support/Code/User/globalStorage/bmd.stm32-for-vscode/@xpack-dev-tools/arm-none-eabi-gcc/10.3.1-2.3.1/.content/arm-none-eabi/include/c++/10.3.1/bits/stl_algo.h ****       return __result;
 726:/Users/lawrencestanton/Library/Application Support/Code/User/globalStorage/bmd.stm32-for-vscode/@xpack-dev-tools/arm-none-eabi-gcc/10.3.1-2.3.1/.content/arm-none-eabi/include/c++/10.3.1/bits/stl_algo.h ****     }
 727:/Users/lawrencestanton/Library/Application Support/Code/User/globalStorage/bmd.stm32-for-vscode/@xpack-dev-tools/arm-none-eabi-gcc/10.3.1-2.3.1/.content/arm-none-eabi/include/c++/10.3.1/bits/stl_algo.h ****  
 728:/Users/lawrencestanton/Library/Application Support/Code/User/globalStorage/bmd.stm32-for-vscode/@xpack-dev-tools/arm-none-eabi-gcc/10.3.1-2.3.1/.content/arm-none-eabi/include/c++/10.3.1/bits/stl_algo.h ****   template<typename _CharT, typename _Size>
 729:/Users/lawrencestanton/Library/Application Support/Code/User/globalStorage/bmd.stm32-for-vscode/@xpack-dev-tools/arm-none-eabi-gcc/10.3.1-2.3.1/.content/arm-none-eabi/include/c++/10.3.1/bits/stl_algo.h ****     __enable_if_t<__is_char<_CharT>::__value, _CharT*>
 730:/Users/lawrencestanton/Library/Application Support/Code/User/globalStorage/bmd.stm32-for-vscode/@xpack-dev-tools/arm-none-eabi-gcc/10.3.1-2.3.1/.content/arm-none-eabi/include/c++/10.3.1/bits/stl_algo.h ****     __copy_n_a(istreambuf_iterator<_CharT, char_traits<_CharT>>,
 731:/Users/lawrencestanton/Library/Application Support/Code/User/globalStorage/bmd.stm32-for-vscode/@xpack-dev-tools/arm-none-eabi-gcc/10.3.1-2.3.1/.content/arm-none-eabi/include/c++/10.3.1/bits/stl_algo.h **** 	       _Size, _CharT*);
 732:/Users/lawrencestanton/Library/Application Support/Code/User/globalStorage/bmd.stm32-for-vscode/@xpack-dev-tools/arm-none-eabi-gcc/10.3.1-2.3.1/.content/arm-none-eabi/include/c++/10.3.1/bits/stl_algo.h **** 
 733:/Users/lawrencestanton/Library/Application Support/Code/User/globalStorage/bmd.stm32-for-vscode/@xpack-dev-tools/arm-none-eabi-gcc/10.3.1-2.3.1/.content/arm-none-eabi/include/c++/10.3.1/bits/stl_algo.h ****   template<typename _InputIterator, typename _Size, typename _OutputIterator>
 734:/Users/lawrencestanton/Library/Application Support/Code/User/globalStorage/bmd.stm32-for-vscode/@xpack-dev-tools/arm-none-eabi-gcc/10.3.1-2.3.1/.content/arm-none-eabi/include/c++/10.3.1/bits/stl_algo.h ****     _GLIBCXX20_CONSTEXPR
 735:/Users/lawrencestanton/Library/Application Support/Code/User/globalStorage/bmd.stm32-for-vscode/@xpack-dev-tools/arm-none-eabi-gcc/10.3.1-2.3.1/.content/arm-none-eabi/include/c++/10.3.1/bits/stl_algo.h ****     _OutputIterator
 736:/Users/lawrencestanton/Library/Application Support/Code/User/globalStorage/bmd.stm32-for-vscode/@xpack-dev-tools/arm-none-eabi-gcc/10.3.1-2.3.1/.content/arm-none-eabi/include/c++/10.3.1/bits/stl_algo.h ****     __copy_n(_InputIterator __first, _Size __n,
 737:/Users/lawrencestanton/Library/Application Support/Code/User/globalStorage/bmd.stm32-for-vscode/@xpack-dev-tools/arm-none-eabi-gcc/10.3.1-2.3.1/.content/arm-none-eabi/include/c++/10.3.1/bits/stl_algo.h **** 	     _OutputIterator __result, input_iterator_tag)
 738:/Users/lawrencestanton/Library/Application Support/Code/User/globalStorage/bmd.stm32-for-vscode/@xpack-dev-tools/arm-none-eabi-gcc/10.3.1-2.3.1/.content/arm-none-eabi/include/c++/10.3.1/bits/stl_algo.h ****     {
 739:/Users/lawrencestanton/Library/Application Support/Code/User/globalStorage/bmd.stm32-for-vscode/@xpack-dev-tools/arm-none-eabi-gcc/10.3.1-2.3.1/.content/arm-none-eabi/include/c++/10.3.1/bits/stl_algo.h ****       return std::__niter_wrap(__result,
 740:/Users/lawrencestanton/Library/Application Support/Code/User/globalStorage/bmd.stm32-for-vscode/@xpack-dev-tools/arm-none-eabi-gcc/10.3.1-2.3.1/.content/arm-none-eabi/include/c++/10.3.1/bits/stl_algo.h **** 			       __copy_n_a(__first, __n,
 741:/Users/lawrencestanton/Library/Application Support/Code/User/globalStorage/bmd.stm32-for-vscode/@xpack-dev-tools/arm-none-eabi-gcc/10.3.1-2.3.1/.content/arm-none-eabi/include/c++/10.3.1/bits/stl_algo.h **** 					  std::__niter_base(__result)));
 742:/Users/lawrencestanton/Library/Application Support/Code/User/globalStorage/bmd.stm32-for-vscode/@xpack-dev-tools/arm-none-eabi-gcc/10.3.1-2.3.1/.content/arm-none-eabi/include/c++/10.3.1/bits/stl_algo.h ****     }
 743:/Users/lawrencestanton/Library/Application Support/Code/User/globalStorage/bmd.stm32-for-vscode/@xpack-dev-tools/arm-none-eabi-gcc/10.3.1-2.3.1/.content/arm-none-eabi/include/c++/10.3.1/bits/stl_algo.h **** 
 744:/Users/lawrencestanton/Library/Application Support/Code/User/globalStorage/bmd.stm32-for-vscode/@xpack-dev-tools/arm-none-eabi-gcc/10.3.1-2.3.1/.content/arm-none-eabi/include/c++/10.3.1/bits/stl_algo.h ****   template<typename _RandomAccessIterator, typename _Size,
 745:/Users/lawrencestanton/Library/Application Support/Code/User/globalStorage/bmd.stm32-for-vscode/@xpack-dev-tools/arm-none-eabi-gcc/10.3.1-2.3.1/.content/arm-none-eabi/include/c++/10.3.1/bits/stl_algo.h **** 	   typename _OutputIterator>
 746:/Users/lawrencestanton/Library/Application Support/Code/User/globalStorage/bmd.stm32-for-vscode/@xpack-dev-tools/arm-none-eabi-gcc/10.3.1-2.3.1/.content/arm-none-eabi/include/c++/10.3.1/bits/stl_algo.h ****     _GLIBCXX20_CONSTEXPR
 747:/Users/lawrencestanton/Library/Application Support/Code/User/globalStorage/bmd.stm32-for-vscode/@xpack-dev-tools/arm-none-eabi-gcc/10.3.1-2.3.1/.content/arm-none-eabi/include/c++/10.3.1/bits/stl_algo.h ****     inline _OutputIterator
 748:/Users/lawrencestanton/Library/Application Support/Code/User/globalStorage/bmd.stm32-for-vscode/@xpack-dev-tools/arm-none-eabi-gcc/10.3.1-2.3.1/.content/arm-none-eabi/include/c++/10.3.1/bits/stl_algo.h ****     __copy_n(_RandomAccessIterator __first, _Size __n,
 749:/Users/lawrencestanton/Library/Application Support/Code/User/globalStorage/bmd.stm32-for-vscode/@xpack-dev-tools/arm-none-eabi-gcc/10.3.1-2.3.1/.content/arm-none-eabi/include/c++/10.3.1/bits/stl_algo.h **** 	     _OutputIterator __result, random_access_iterator_tag)
 750:/Users/lawrencestanton/Library/Application Support/Code/User/globalStorage/bmd.stm32-for-vscode/@xpack-dev-tools/arm-none-eabi-gcc/10.3.1-2.3.1/.content/arm-none-eabi/include/c++/10.3.1/bits/stl_algo.h ****     { return std::copy(__first, __first + __n, __result); }
 751:/Users/lawrencestanton/Library/Application Support/Code/User/globalStorage/bmd.stm32-for-vscode/@xpack-dev-tools/arm-none-eabi-gcc/10.3.1-2.3.1/.content/arm-none-eabi/include/c++/10.3.1/bits/stl_algo.h **** 
 752:/Users/lawrencestanton/Library/Application Support/Code/User/globalStorage/bmd.stm32-for-vscode/@xpack-dev-tools/arm-none-eabi-gcc/10.3.1-2.3.1/.content/arm-none-eabi/include/c++/10.3.1/bits/stl_algo.h ****   /**
 753:/Users/lawrencestanton/Library/Application Support/Code/User/globalStorage/bmd.stm32-for-vscode/@xpack-dev-tools/arm-none-eabi-gcc/10.3.1-2.3.1/.content/arm-none-eabi/include/c++/10.3.1/bits/stl_algo.h ****    *  @brief Copies the range [first,first+n) into [result,result+n).
 754:/Users/lawrencestanton/Library/Application Support/Code/User/globalStorage/bmd.stm32-for-vscode/@xpack-dev-tools/arm-none-eabi-gcc/10.3.1-2.3.1/.content/arm-none-eabi/include/c++/10.3.1/bits/stl_algo.h ****    *  @ingroup mutating_algorithms
 755:/Users/lawrencestanton/Library/Application Support/Code/User/globalStorage/bmd.stm32-for-vscode/@xpack-dev-tools/arm-none-eabi-gcc/10.3.1-2.3.1/.content/arm-none-eabi/include/c++/10.3.1/bits/stl_algo.h ****    *  @param  __first  An input iterator.
 756:/Users/lawrencestanton/Library/Application Support/Code/User/globalStorage/bmd.stm32-for-vscode/@xpack-dev-tools/arm-none-eabi-gcc/10.3.1-2.3.1/.content/arm-none-eabi/include/c++/10.3.1/bits/stl_algo.h ****    *  @param  __n      The number of elements to copy.
 757:/Users/lawrencestanton/Library/Application Support/Code/User/globalStorage/bmd.stm32-for-vscode/@xpack-dev-tools/arm-none-eabi-gcc/10.3.1-2.3.1/.content/arm-none-eabi/include/c++/10.3.1/bits/stl_algo.h ****    *  @param  __result An output iterator.
 758:/Users/lawrencestanton/Library/Application Support/Code/User/globalStorage/bmd.stm32-for-vscode/@xpack-dev-tools/arm-none-eabi-gcc/10.3.1-2.3.1/.content/arm-none-eabi/include/c++/10.3.1/bits/stl_algo.h ****    *  @return  result+n.
ARM GAS  /var/folders/bb/dhrb69655gd8t4nf464nxc_00000gn/T//cc50CdYq.s 			page 23


 759:/Users/lawrencestanton/Library/Application Support/Code/User/globalStorage/bmd.stm32-for-vscode/@xpack-dev-tools/arm-none-eabi-gcc/10.3.1-2.3.1/.content/arm-none-eabi/include/c++/10.3.1/bits/stl_algo.h ****    *
 760:/Users/lawrencestanton/Library/Application Support/Code/User/globalStorage/bmd.stm32-for-vscode/@xpack-dev-tools/arm-none-eabi-gcc/10.3.1-2.3.1/.content/arm-none-eabi/include/c++/10.3.1/bits/stl_algo.h ****    *  This inline function will boil down to a call to @c memmove whenever
 761:/Users/lawrencestanton/Library/Application Support/Code/User/globalStorage/bmd.stm32-for-vscode/@xpack-dev-tools/arm-none-eabi-gcc/10.3.1-2.3.1/.content/arm-none-eabi/include/c++/10.3.1/bits/stl_algo.h ****    *  possible.  Failing that, if random access iterators are passed, then the
 762:/Users/lawrencestanton/Library/Application Support/Code/User/globalStorage/bmd.stm32-for-vscode/@xpack-dev-tools/arm-none-eabi-gcc/10.3.1-2.3.1/.content/arm-none-eabi/include/c++/10.3.1/bits/stl_algo.h ****    *  loop count will be known (and therefore a candidate for compiler
 763:/Users/lawrencestanton/Library/Application Support/Code/User/globalStorage/bmd.stm32-for-vscode/@xpack-dev-tools/arm-none-eabi-gcc/10.3.1-2.3.1/.content/arm-none-eabi/include/c++/10.3.1/bits/stl_algo.h ****    *  optimizations such as unrolling).
 764:/Users/lawrencestanton/Library/Application Support/Code/User/globalStorage/bmd.stm32-for-vscode/@xpack-dev-tools/arm-none-eabi-gcc/10.3.1-2.3.1/.content/arm-none-eabi/include/c++/10.3.1/bits/stl_algo.h ****   */
 765:/Users/lawrencestanton/Library/Application Support/Code/User/globalStorage/bmd.stm32-for-vscode/@xpack-dev-tools/arm-none-eabi-gcc/10.3.1-2.3.1/.content/arm-none-eabi/include/c++/10.3.1/bits/stl_algo.h ****   template<typename _InputIterator, typename _Size, typename _OutputIterator>
 766:/Users/lawrencestanton/Library/Application Support/Code/User/globalStorage/bmd.stm32-for-vscode/@xpack-dev-tools/arm-none-eabi-gcc/10.3.1-2.3.1/.content/arm-none-eabi/include/c++/10.3.1/bits/stl_algo.h ****     _GLIBCXX20_CONSTEXPR
 767:/Users/lawrencestanton/Library/Application Support/Code/User/globalStorage/bmd.stm32-for-vscode/@xpack-dev-tools/arm-none-eabi-gcc/10.3.1-2.3.1/.content/arm-none-eabi/include/c++/10.3.1/bits/stl_algo.h ****     inline _OutputIterator
 768:/Users/lawrencestanton/Library/Application Support/Code/User/globalStorage/bmd.stm32-for-vscode/@xpack-dev-tools/arm-none-eabi-gcc/10.3.1-2.3.1/.content/arm-none-eabi/include/c++/10.3.1/bits/stl_algo.h ****     copy_n(_InputIterator __first, _Size __n, _OutputIterator __result)
 769:/Users/lawrencestanton/Library/Application Support/Code/User/globalStorage/bmd.stm32-for-vscode/@xpack-dev-tools/arm-none-eabi-gcc/10.3.1-2.3.1/.content/arm-none-eabi/include/c++/10.3.1/bits/stl_algo.h ****     {
 770:/Users/lawrencestanton/Library/Application Support/Code/User/globalStorage/bmd.stm32-for-vscode/@xpack-dev-tools/arm-none-eabi-gcc/10.3.1-2.3.1/.content/arm-none-eabi/include/c++/10.3.1/bits/stl_algo.h ****       // concept requirements
 771:/Users/lawrencestanton/Library/Application Support/Code/User/globalStorage/bmd.stm32-for-vscode/@xpack-dev-tools/arm-none-eabi-gcc/10.3.1-2.3.1/.content/arm-none-eabi/include/c++/10.3.1/bits/stl_algo.h ****       __glibcxx_function_requires(_InputIteratorConcept<_InputIterator>)
 772:/Users/lawrencestanton/Library/Application Support/Code/User/globalStorage/bmd.stm32-for-vscode/@xpack-dev-tools/arm-none-eabi-gcc/10.3.1-2.3.1/.content/arm-none-eabi/include/c++/10.3.1/bits/stl_algo.h ****       __glibcxx_function_requires(_OutputIteratorConcept<_OutputIterator,
 773:/Users/lawrencestanton/Library/Application Support/Code/User/globalStorage/bmd.stm32-for-vscode/@xpack-dev-tools/arm-none-eabi-gcc/10.3.1-2.3.1/.content/arm-none-eabi/include/c++/10.3.1/bits/stl_algo.h **** 	    typename iterator_traits<_InputIterator>::value_type>)
 774:/Users/lawrencestanton/Library/Application Support/Code/User/globalStorage/bmd.stm32-for-vscode/@xpack-dev-tools/arm-none-eabi-gcc/10.3.1-2.3.1/.content/arm-none-eabi/include/c++/10.3.1/bits/stl_algo.h **** 
 775:/Users/lawrencestanton/Library/Application Support/Code/User/globalStorage/bmd.stm32-for-vscode/@xpack-dev-tools/arm-none-eabi-gcc/10.3.1-2.3.1/.content/arm-none-eabi/include/c++/10.3.1/bits/stl_algo.h ****       const auto __n2 = std::__size_to_integer(__n);
 776:/Users/lawrencestanton/Library/Application Support/Code/User/globalStorage/bmd.stm32-for-vscode/@xpack-dev-tools/arm-none-eabi-gcc/10.3.1-2.3.1/.content/arm-none-eabi/include/c++/10.3.1/bits/stl_algo.h ****       if (__n2 <= 0)
 777:/Users/lawrencestanton/Library/Application Support/Code/User/globalStorage/bmd.stm32-for-vscode/@xpack-dev-tools/arm-none-eabi-gcc/10.3.1-2.3.1/.content/arm-none-eabi/include/c++/10.3.1/bits/stl_algo.h **** 	return __result;
 778:/Users/lawrencestanton/Library/Application Support/Code/User/globalStorage/bmd.stm32-for-vscode/@xpack-dev-tools/arm-none-eabi-gcc/10.3.1-2.3.1/.content/arm-none-eabi/include/c++/10.3.1/bits/stl_algo.h **** 
 779:/Users/lawrencestanton/Library/Application Support/Code/User/globalStorage/bmd.stm32-for-vscode/@xpack-dev-tools/arm-none-eabi-gcc/10.3.1-2.3.1/.content/arm-none-eabi/include/c++/10.3.1/bits/stl_algo.h ****       __glibcxx_requires_can_increment(__first, __n2);
 780:/Users/lawrencestanton/Library/Application Support/Code/User/globalStorage/bmd.stm32-for-vscode/@xpack-dev-tools/arm-none-eabi-gcc/10.3.1-2.3.1/.content/arm-none-eabi/include/c++/10.3.1/bits/stl_algo.h ****       __glibcxx_requires_can_increment(__result, __n2);
 781:/Users/lawrencestanton/Library/Application Support/Code/User/globalStorage/bmd.stm32-for-vscode/@xpack-dev-tools/arm-none-eabi-gcc/10.3.1-2.3.1/.content/arm-none-eabi/include/c++/10.3.1/bits/stl_algo.h **** 
 782:/Users/lawrencestanton/Library/Application Support/Code/User/globalStorage/bmd.stm32-for-vscode/@xpack-dev-tools/arm-none-eabi-gcc/10.3.1-2.3.1/.content/arm-none-eabi/include/c++/10.3.1/bits/stl_algo.h ****       return std::__copy_n(__first, __n2, __result,
 783:/Users/lawrencestanton/Library/Application Support/Code/User/globalStorage/bmd.stm32-for-vscode/@xpack-dev-tools/arm-none-eabi-gcc/10.3.1-2.3.1/.content/arm-none-eabi/include/c++/10.3.1/bits/stl_algo.h **** 			   std::__iterator_category(__first));
 784:/Users/lawrencestanton/Library/Application Support/Code/User/globalStorage/bmd.stm32-for-vscode/@xpack-dev-tools/arm-none-eabi-gcc/10.3.1-2.3.1/.content/arm-none-eabi/include/c++/10.3.1/bits/stl_algo.h ****     }
 785:/Users/lawrencestanton/Library/Application Support/Code/User/globalStorage/bmd.stm32-for-vscode/@xpack-dev-tools/arm-none-eabi-gcc/10.3.1-2.3.1/.content/arm-none-eabi/include/c++/10.3.1/bits/stl_algo.h **** 
 786:/Users/lawrencestanton/Library/Application Support/Code/User/globalStorage/bmd.stm32-for-vscode/@xpack-dev-tools/arm-none-eabi-gcc/10.3.1-2.3.1/.content/arm-none-eabi/include/c++/10.3.1/bits/stl_algo.h ****   /**
 787:/Users/lawrencestanton/Library/Application Support/Code/User/globalStorage/bmd.stm32-for-vscode/@xpack-dev-tools/arm-none-eabi-gcc/10.3.1-2.3.1/.content/arm-none-eabi/include/c++/10.3.1/bits/stl_algo.h ****    *  @brief Copy the elements of a sequence to separate output sequences
 788:/Users/lawrencestanton/Library/Application Support/Code/User/globalStorage/bmd.stm32-for-vscode/@xpack-dev-tools/arm-none-eabi-gcc/10.3.1-2.3.1/.content/arm-none-eabi/include/c++/10.3.1/bits/stl_algo.h ****    *         depending on the truth value of a predicate.
 789:/Users/lawrencestanton/Library/Application Support/Code/User/globalStorage/bmd.stm32-for-vscode/@xpack-dev-tools/arm-none-eabi-gcc/10.3.1-2.3.1/.content/arm-none-eabi/include/c++/10.3.1/bits/stl_algo.h ****    *  @ingroup mutating_algorithms
 790:/Users/lawrencestanton/Library/Application Support/Code/User/globalStorage/bmd.stm32-for-vscode/@xpack-dev-tools/arm-none-eabi-gcc/10.3.1-2.3.1/.content/arm-none-eabi/include/c++/10.3.1/bits/stl_algo.h ****    *  @param  __first   An input iterator.
 791:/Users/lawrencestanton/Library/Application Support/Code/User/globalStorage/bmd.stm32-for-vscode/@xpack-dev-tools/arm-none-eabi-gcc/10.3.1-2.3.1/.content/arm-none-eabi/include/c++/10.3.1/bits/stl_algo.h ****    *  @param  __last    An input iterator.
 792:/Users/lawrencestanton/Library/Application Support/Code/User/globalStorage/bmd.stm32-for-vscode/@xpack-dev-tools/arm-none-eabi-gcc/10.3.1-2.3.1/.content/arm-none-eabi/include/c++/10.3.1/bits/stl_algo.h ****    *  @param  __out_true   An output iterator.
 793:/Users/lawrencestanton/Library/Application Support/Code/User/globalStorage/bmd.stm32-for-vscode/@xpack-dev-tools/arm-none-eabi-gcc/10.3.1-2.3.1/.content/arm-none-eabi/include/c++/10.3.1/bits/stl_algo.h ****    *  @param  __out_false  An output iterator.
 794:/Users/lawrencestanton/Library/Application Support/Code/User/globalStorage/bmd.stm32-for-vscode/@xpack-dev-tools/arm-none-eabi-gcc/10.3.1-2.3.1/.content/arm-none-eabi/include/c++/10.3.1/bits/stl_algo.h ****    *  @param  __pred    A predicate.
 795:/Users/lawrencestanton/Library/Application Support/Code/User/globalStorage/bmd.stm32-for-vscode/@xpack-dev-tools/arm-none-eabi-gcc/10.3.1-2.3.1/.content/arm-none-eabi/include/c++/10.3.1/bits/stl_algo.h ****    *  @return   A pair designating the ends of the resulting sequences.
 796:/Users/lawrencestanton/Library/Application Support/Code/User/globalStorage/bmd.stm32-for-vscode/@xpack-dev-tools/arm-none-eabi-gcc/10.3.1-2.3.1/.content/arm-none-eabi/include/c++/10.3.1/bits/stl_algo.h ****    *
 797:/Users/lawrencestanton/Library/Application Support/Code/User/globalStorage/bmd.stm32-for-vscode/@xpack-dev-tools/arm-none-eabi-gcc/10.3.1-2.3.1/.content/arm-none-eabi/include/c++/10.3.1/bits/stl_algo.h ****    *  Copies each element in the range @p [__first,__last) for which
 798:/Users/lawrencestanton/Library/Application Support/Code/User/globalStorage/bmd.stm32-for-vscode/@xpack-dev-tools/arm-none-eabi-gcc/10.3.1-2.3.1/.content/arm-none-eabi/include/c++/10.3.1/bits/stl_algo.h ****    *  @p __pred returns true to the range beginning at @p out_true
 799:/Users/lawrencestanton/Library/Application Support/Code/User/globalStorage/bmd.stm32-for-vscode/@xpack-dev-tools/arm-none-eabi-gcc/10.3.1-2.3.1/.content/arm-none-eabi/include/c++/10.3.1/bits/stl_algo.h ****    *  and each element for which @p __pred returns false to @p __out_false.
 800:/Users/lawrencestanton/Library/Application Support/Code/User/globalStorage/bmd.stm32-for-vscode/@xpack-dev-tools/arm-none-eabi-gcc/10.3.1-2.3.1/.content/arm-none-eabi/include/c++/10.3.1/bits/stl_algo.h ****   */
 801:/Users/lawrencestanton/Library/Application Support/Code/User/globalStorage/bmd.stm32-for-vscode/@xpack-dev-tools/arm-none-eabi-gcc/10.3.1-2.3.1/.content/arm-none-eabi/include/c++/10.3.1/bits/stl_algo.h ****   template<typename _InputIterator, typename _OutputIterator1,
 802:/Users/lawrencestanton/Library/Application Support/Code/User/globalStorage/bmd.stm32-for-vscode/@xpack-dev-tools/arm-none-eabi-gcc/10.3.1-2.3.1/.content/arm-none-eabi/include/c++/10.3.1/bits/stl_algo.h **** 	   typename _OutputIterator2, typename _Predicate>
 803:/Users/lawrencestanton/Library/Application Support/Code/User/globalStorage/bmd.stm32-for-vscode/@xpack-dev-tools/arm-none-eabi-gcc/10.3.1-2.3.1/.content/arm-none-eabi/include/c++/10.3.1/bits/stl_algo.h ****     _GLIBCXX20_CONSTEXPR
 804:/Users/lawrencestanton/Library/Application Support/Code/User/globalStorage/bmd.stm32-for-vscode/@xpack-dev-tools/arm-none-eabi-gcc/10.3.1-2.3.1/.content/arm-none-eabi/include/c++/10.3.1/bits/stl_algo.h ****     pair<_OutputIterator1, _OutputIterator2>
 805:/Users/lawrencestanton/Library/Application Support/Code/User/globalStorage/bmd.stm32-for-vscode/@xpack-dev-tools/arm-none-eabi-gcc/10.3.1-2.3.1/.content/arm-none-eabi/include/c++/10.3.1/bits/stl_algo.h ****     partition_copy(_InputIterator __first, _InputIterator __last,
 806:/Users/lawrencestanton/Library/Application Support/Code/User/globalStorage/bmd.stm32-for-vscode/@xpack-dev-tools/arm-none-eabi-gcc/10.3.1-2.3.1/.content/arm-none-eabi/include/c++/10.3.1/bits/stl_algo.h **** 		   _OutputIterator1 __out_true, _OutputIterator2 __out_false,
 807:/Users/lawrencestanton/Library/Application Support/Code/User/globalStorage/bmd.stm32-for-vscode/@xpack-dev-tools/arm-none-eabi-gcc/10.3.1-2.3.1/.content/arm-none-eabi/include/c++/10.3.1/bits/stl_algo.h **** 		   _Predicate __pred)
 808:/Users/lawrencestanton/Library/Application Support/Code/User/globalStorage/bmd.stm32-for-vscode/@xpack-dev-tools/arm-none-eabi-gcc/10.3.1-2.3.1/.content/arm-none-eabi/include/c++/10.3.1/bits/stl_algo.h ****     {
 809:/Users/lawrencestanton/Library/Application Support/Code/User/globalStorage/bmd.stm32-for-vscode/@xpack-dev-tools/arm-none-eabi-gcc/10.3.1-2.3.1/.content/arm-none-eabi/include/c++/10.3.1/bits/stl_algo.h ****       // concept requirements
 810:/Users/lawrencestanton/Library/Application Support/Code/User/globalStorage/bmd.stm32-for-vscode/@xpack-dev-tools/arm-none-eabi-gcc/10.3.1-2.3.1/.content/arm-none-eabi/include/c++/10.3.1/bits/stl_algo.h ****       __glibcxx_function_requires(_InputIteratorConcept<_InputIterator>)
 811:/Users/lawrencestanton/Library/Application Support/Code/User/globalStorage/bmd.stm32-for-vscode/@xpack-dev-tools/arm-none-eabi-gcc/10.3.1-2.3.1/.content/arm-none-eabi/include/c++/10.3.1/bits/stl_algo.h ****       __glibcxx_function_requires(_OutputIteratorConcept<_OutputIterator1,
 812:/Users/lawrencestanton/Library/Application Support/Code/User/globalStorage/bmd.stm32-for-vscode/@xpack-dev-tools/arm-none-eabi-gcc/10.3.1-2.3.1/.content/arm-none-eabi/include/c++/10.3.1/bits/stl_algo.h **** 	    typename iterator_traits<_InputIterator>::value_type>)
 813:/Users/lawrencestanton/Library/Application Support/Code/User/globalStorage/bmd.stm32-for-vscode/@xpack-dev-tools/arm-none-eabi-gcc/10.3.1-2.3.1/.content/arm-none-eabi/include/c++/10.3.1/bits/stl_algo.h ****       __glibcxx_function_requires(_OutputIteratorConcept<_OutputIterator2,
