ARM GAS  /var/folders/bb/dhrb69655gd8t4nf464nxc_00000gn/T//cco8bRAf.s 			page 1


   1              		.cpu cortex-m4
   2              		.arch armv7e-m
   3              		.fpu fpv4-sp-d16
   4              		.eabi_attribute 27, 1
   5              		.eabi_attribute 28, 1
   6              		.eabi_attribute 20, 1
   7              		.eabi_attribute 21, 1
   8              		.eabi_attribute 23, 3
   9              		.eabi_attribute 24, 1
  10              		.eabi_attribute 25, 1
  11              		.eabi_attribute 26, 1
  12              		.eabi_attribute 30, 6
  13              		.eabi_attribute 34, 1
  14              		.eabi_attribute 18, 4
  15              		.file	"stm32l4xx_hal_msp.c"
  16              		.text
  17              	.Ltext0:
  18              		.cfi_sections	.debug_frame
  19              		.section	.text.HAL_MspInit,"ax",%progbits
  20              		.align	1
  21              		.global	HAL_MspInit
  22              		.syntax unified
  23              		.thumb
  24              		.thumb_func
  26              	HAL_MspInit:
  27              	.LFB132:
  28              		.file 1 "Core/Src/stm32l4xx_hal_msp.c"
   1:Core/Src/stm32l4xx_hal_msp.c **** /* USER CODE BEGIN Header */
   2:Core/Src/stm32l4xx_hal_msp.c **** /**
   3:Core/Src/stm32l4xx_hal_msp.c ****   ******************************************************************************
   4:Core/Src/stm32l4xx_hal_msp.c ****   * @file         stm32l4xx_hal_msp.c
   5:Core/Src/stm32l4xx_hal_msp.c ****   * @brief        This file provides code for the MSP Initialization
   6:Core/Src/stm32l4xx_hal_msp.c ****   *               and de-Initialization codes.
   7:Core/Src/stm32l4xx_hal_msp.c ****   ******************************************************************************
   8:Core/Src/stm32l4xx_hal_msp.c ****   * @attention
   9:Core/Src/stm32l4xx_hal_msp.c ****   *
  10:Core/Src/stm32l4xx_hal_msp.c ****   * Copyright (c) 2022 STMicroelectronics.
  11:Core/Src/stm32l4xx_hal_msp.c ****   * All rights reserved.
  12:Core/Src/stm32l4xx_hal_msp.c ****   *
  13:Core/Src/stm32l4xx_hal_msp.c ****   * This software is licensed under terms that can be found in the LICENSE file
  14:Core/Src/stm32l4xx_hal_msp.c ****   * in the root directory of this software component.
  15:Core/Src/stm32l4xx_hal_msp.c ****   * If no LICENSE file comes with this software, it is provided AS-IS.
  16:Core/Src/stm32l4xx_hal_msp.c ****   *
  17:Core/Src/stm32l4xx_hal_msp.c ****   ******************************************************************************
  18:Core/Src/stm32l4xx_hal_msp.c ****   */
  19:Core/Src/stm32l4xx_hal_msp.c **** /* USER CODE END Header */
  20:Core/Src/stm32l4xx_hal_msp.c **** 
  21:Core/Src/stm32l4xx_hal_msp.c **** /* Includes ------------------------------------------------------------------*/
  22:Core/Src/stm32l4xx_hal_msp.c **** #include "main.h"
  23:Core/Src/stm32l4xx_hal_msp.c **** /* USER CODE BEGIN Includes */
  24:Core/Src/stm32l4xx_hal_msp.c **** 
  25:Core/Src/stm32l4xx_hal_msp.c **** /* USER CODE END Includes */
  26:Core/Src/stm32l4xx_hal_msp.c **** extern DMA_HandleTypeDef hdma_uart4_rx;
  27:Core/Src/stm32l4xx_hal_msp.c **** 
  28:Core/Src/stm32l4xx_hal_msp.c **** extern DMA_HandleTypeDef hdma_uart4_tx;
  29:Core/Src/stm32l4xx_hal_msp.c **** 
  30:Core/Src/stm32l4xx_hal_msp.c **** /* Private typedef -----------------------------------------------------------*/
ARM GAS  /var/folders/bb/dhrb69655gd8t4nf464nxc_00000gn/T//cco8bRAf.s 			page 2


  31:Core/Src/stm32l4xx_hal_msp.c **** /* USER CODE BEGIN TD */
  32:Core/Src/stm32l4xx_hal_msp.c **** 
  33:Core/Src/stm32l4xx_hal_msp.c **** /* USER CODE END TD */
  34:Core/Src/stm32l4xx_hal_msp.c **** 
  35:Core/Src/stm32l4xx_hal_msp.c **** /* Private define ------------------------------------------------------------*/
  36:Core/Src/stm32l4xx_hal_msp.c **** /* USER CODE BEGIN Define */
  37:Core/Src/stm32l4xx_hal_msp.c **** 
  38:Core/Src/stm32l4xx_hal_msp.c **** /* USER CODE END Define */
  39:Core/Src/stm32l4xx_hal_msp.c **** 
  40:Core/Src/stm32l4xx_hal_msp.c **** /* Private macro -------------------------------------------------------------*/
  41:Core/Src/stm32l4xx_hal_msp.c **** /* USER CODE BEGIN Macro */
  42:Core/Src/stm32l4xx_hal_msp.c **** 
  43:Core/Src/stm32l4xx_hal_msp.c **** /* USER CODE END Macro */
  44:Core/Src/stm32l4xx_hal_msp.c **** 
  45:Core/Src/stm32l4xx_hal_msp.c **** /* Private variables ---------------------------------------------------------*/
  46:Core/Src/stm32l4xx_hal_msp.c **** /* USER CODE BEGIN PV */
  47:Core/Src/stm32l4xx_hal_msp.c **** 
  48:Core/Src/stm32l4xx_hal_msp.c **** /* USER CODE END PV */
  49:Core/Src/stm32l4xx_hal_msp.c **** 
  50:Core/Src/stm32l4xx_hal_msp.c **** /* Private function prototypes -----------------------------------------------*/
  51:Core/Src/stm32l4xx_hal_msp.c **** /* USER CODE BEGIN PFP */
  52:Core/Src/stm32l4xx_hal_msp.c **** 
  53:Core/Src/stm32l4xx_hal_msp.c **** /* USER CODE END PFP */
  54:Core/Src/stm32l4xx_hal_msp.c **** 
  55:Core/Src/stm32l4xx_hal_msp.c **** /* External functions --------------------------------------------------------*/
  56:Core/Src/stm32l4xx_hal_msp.c **** /* USER CODE BEGIN ExternalFunctions */
  57:Core/Src/stm32l4xx_hal_msp.c **** 
  58:Core/Src/stm32l4xx_hal_msp.c **** /* USER CODE END ExternalFunctions */
  59:Core/Src/stm32l4xx_hal_msp.c **** 
  60:Core/Src/stm32l4xx_hal_msp.c **** /* USER CODE BEGIN 0 */
  61:Core/Src/stm32l4xx_hal_msp.c **** 
  62:Core/Src/stm32l4xx_hal_msp.c **** /* USER CODE END 0 */
  63:Core/Src/stm32l4xx_hal_msp.c **** /**
  64:Core/Src/stm32l4xx_hal_msp.c ****   * Initializes the Global MSP.
  65:Core/Src/stm32l4xx_hal_msp.c ****   */
  66:Core/Src/stm32l4xx_hal_msp.c **** void HAL_MspInit(void)
  67:Core/Src/stm32l4xx_hal_msp.c **** {
  29              		.loc 1 67 1
  30              		.cfi_startproc
  31              		@ args = 0, pretend = 0, frame = 8
  32              		@ frame_needed = 1, uses_anonymous_args = 0
  33              		@ link register save eliminated.
  34 0000 80B4     		push	{r7}
  35              		.cfi_def_cfa_offset 4
  36              		.cfi_offset 7, -4
  37 0002 83B0     		sub	sp, sp, #12
  38              		.cfi_def_cfa_offset 16
  39 0004 00AF     		add	r7, sp, #0
  40              		.cfi_def_cfa_register 7
  41              	.LBB2:
  68:Core/Src/stm32l4xx_hal_msp.c ****   /* USER CODE BEGIN MspInit 0 */
  69:Core/Src/stm32l4xx_hal_msp.c **** 
  70:Core/Src/stm32l4xx_hal_msp.c ****   /* USER CODE END MspInit 0 */
  71:Core/Src/stm32l4xx_hal_msp.c **** 
  72:Core/Src/stm32l4xx_hal_msp.c ****   __HAL_RCC_SYSCFG_CLK_ENABLE();
  42              		.loc 1 72 3
  43 0006 0F4B     		ldr	r3, .L2
ARM GAS  /var/folders/bb/dhrb69655gd8t4nf464nxc_00000gn/T//cco8bRAf.s 			page 3


  44 0008 1B6E     		ldr	r3, [r3, #96]
  45 000a 0E4A     		ldr	r2, .L2
  46 000c 43F00103 		orr	r3, r3, #1
  47 0010 1366     		str	r3, [r2, #96]
  48 0012 0C4B     		ldr	r3, .L2
  49 0014 1B6E     		ldr	r3, [r3, #96]
  50 0016 03F00103 		and	r3, r3, #1
  51 001a 7B60     		str	r3, [r7, #4]
  52 001c 7B68     		ldr	r3, [r7, #4]
  53              	.LBE2:
  54              	.LBB3:
  73:Core/Src/stm32l4xx_hal_msp.c ****   __HAL_RCC_PWR_CLK_ENABLE();
  55              		.loc 1 73 3
  56 001e 094B     		ldr	r3, .L2
  57 0020 9B6D     		ldr	r3, [r3, #88]
  58 0022 084A     		ldr	r2, .L2
  59 0024 43F08053 		orr	r3, r3, #268435456
  60 0028 9365     		str	r3, [r2, #88]
  61 002a 064B     		ldr	r3, .L2
  62 002c 9B6D     		ldr	r3, [r3, #88]
  63 002e 03F08053 		and	r3, r3, #268435456
  64 0032 3B60     		str	r3, [r7]
  65 0034 3B68     		ldr	r3, [r7]
  66              	.LBE3:
  74:Core/Src/stm32l4xx_hal_msp.c **** 
  75:Core/Src/stm32l4xx_hal_msp.c ****   /* System interrupt init*/
  76:Core/Src/stm32l4xx_hal_msp.c **** 
  77:Core/Src/stm32l4xx_hal_msp.c ****   /* USER CODE BEGIN MspInit 1 */
  78:Core/Src/stm32l4xx_hal_msp.c **** 
  79:Core/Src/stm32l4xx_hal_msp.c ****   /* USER CODE END MspInit 1 */
  80:Core/Src/stm32l4xx_hal_msp.c **** }
  67              		.loc 1 80 1
  68 0036 00BF     		nop
  69 0038 0C37     		adds	r7, r7, #12
  70              		.cfi_def_cfa_offset 4
  71 003a BD46     		mov	sp, r7
  72              		.cfi_def_cfa_register 13
  73              		@ sp needed
  74 003c 5DF8047B 		ldr	r7, [sp], #4
  75              		.cfi_restore 7
  76              		.cfi_def_cfa_offset 0
  77 0040 7047     		bx	lr
  78              	.L3:
  79 0042 00BF     		.align	2
  80              	.L2:
  81 0044 00100240 		.word	1073876992
  82              		.cfi_endproc
  83              	.LFE132:
  85              		.section	.text.HAL_UART_MspInit,"ax",%progbits
  86              		.align	1
  87              		.global	HAL_UART_MspInit
  88              		.syntax unified
  89              		.thumb
  90              		.thumb_func
  92              	HAL_UART_MspInit:
  93              	.LFB133:
  81:Core/Src/stm32l4xx_hal_msp.c **** 
ARM GAS  /var/folders/bb/dhrb69655gd8t4nf464nxc_00000gn/T//cco8bRAf.s 			page 4


  82:Core/Src/stm32l4xx_hal_msp.c **** /**
  83:Core/Src/stm32l4xx_hal_msp.c **** * @brief UART MSP Initialization
  84:Core/Src/stm32l4xx_hal_msp.c **** * This function configures the hardware resources used in this example
  85:Core/Src/stm32l4xx_hal_msp.c **** * @param huart: UART handle pointer
  86:Core/Src/stm32l4xx_hal_msp.c **** * @retval None
  87:Core/Src/stm32l4xx_hal_msp.c **** */
  88:Core/Src/stm32l4xx_hal_msp.c **** void HAL_UART_MspInit(UART_HandleTypeDef* huart)
  89:Core/Src/stm32l4xx_hal_msp.c **** {
  94              		.loc 1 89 1
  95              		.cfi_startproc
  96              		@ args = 0, pretend = 0, frame = 184
  97              		@ frame_needed = 1, uses_anonymous_args = 0
  98 0000 80B5     		push	{r7, lr}
  99              		.cfi_def_cfa_offset 8
 100              		.cfi_offset 7, -8
 101              		.cfi_offset 14, -4
 102 0002 AEB0     		sub	sp, sp, #184
 103              		.cfi_def_cfa_offset 192
 104 0004 00AF     		add	r7, sp, #0
 105              		.cfi_def_cfa_register 7
 106 0006 7860     		str	r0, [r7, #4]
  90:Core/Src/stm32l4xx_hal_msp.c ****   GPIO_InitTypeDef GPIO_InitStruct = {0};
 107              		.loc 1 90 20
 108 0008 07F1A403 		add	r3, r7, #164
 109 000c 0022     		movs	r2, #0
 110 000e 1A60     		str	r2, [r3]
 111 0010 5A60     		str	r2, [r3, #4]
 112 0012 9A60     		str	r2, [r3, #8]
 113 0014 DA60     		str	r2, [r3, #12]
 114 0016 1A61     		str	r2, [r3, #16]
  91:Core/Src/stm32l4xx_hal_msp.c ****   RCC_PeriphCLKInitTypeDef PeriphClkInit = {0};
 115              		.loc 1 91 28
 116 0018 07F11003 		add	r3, r7, #16
 117 001c 9422     		movs	r2, #148
 118 001e 0021     		movs	r1, #0
 119 0020 1846     		mov	r0, r3
 120 0022 FFF7FEFF 		bl	memset
  92:Core/Src/stm32l4xx_hal_msp.c ****   if(huart->Instance==UART4)
 121              		.loc 1 92 11
 122 0026 7B68     		ldr	r3, [r7, #4]
 123 0028 1B68     		ldr	r3, [r3]
 124              		.loc 1 92 5
 125 002a 4F4A     		ldr	r2, .L10
 126 002c 9342     		cmp	r3, r2
 127 002e 40F09680 		bne	.L9
  93:Core/Src/stm32l4xx_hal_msp.c ****   {
  94:Core/Src/stm32l4xx_hal_msp.c ****   /* USER CODE BEGIN UART4_MspInit 0 */
  95:Core/Src/stm32l4xx_hal_msp.c **** 
  96:Core/Src/stm32l4xx_hal_msp.c ****   /* USER CODE END UART4_MspInit 0 */
  97:Core/Src/stm32l4xx_hal_msp.c **** 
  98:Core/Src/stm32l4xx_hal_msp.c ****   /** Initializes the peripherals clock
  99:Core/Src/stm32l4xx_hal_msp.c ****   */
 100:Core/Src/stm32l4xx_hal_msp.c ****     PeriphClkInit.PeriphClockSelection = RCC_PERIPHCLK_UART4;
 128              		.loc 1 100 40
 129 0032 0823     		movs	r3, #8
 130 0034 3B61     		str	r3, [r7, #16]
 101:Core/Src/stm32l4xx_hal_msp.c ****     PeriphClkInit.Uart4ClockSelection = RCC_UART4CLKSOURCE_PCLK1;
ARM GAS  /var/folders/bb/dhrb69655gd8t4nf464nxc_00000gn/T//cco8bRAf.s 			page 5


 131              		.loc 1 101 39
 132 0036 0023     		movs	r3, #0
 133 0038 BB65     		str	r3, [r7, #88]
 102:Core/Src/stm32l4xx_hal_msp.c ****     if (HAL_RCCEx_PeriphCLKConfig(&PeriphClkInit) != HAL_OK)
 134              		.loc 1 102 9
 135 003a 07F11003 		add	r3, r7, #16
 136 003e 1846     		mov	r0, r3
 137 0040 FFF7FEFF 		bl	HAL_RCCEx_PeriphCLKConfig
 138 0044 0346     		mov	r3, r0
 139              		.loc 1 102 8
 140 0046 002B     		cmp	r3, #0
 141 0048 01D0     		beq	.L6
 103:Core/Src/stm32l4xx_hal_msp.c ****     {
 104:Core/Src/stm32l4xx_hal_msp.c ****       Error_Handler();
 142              		.loc 1 104 7
 143 004a FFF7FEFF 		bl	Error_Handler
 144              	.L6:
 145              	.LBB4:
 105:Core/Src/stm32l4xx_hal_msp.c ****     }
 106:Core/Src/stm32l4xx_hal_msp.c **** 
 107:Core/Src/stm32l4xx_hal_msp.c ****     /* Peripheral clock enable */
 108:Core/Src/stm32l4xx_hal_msp.c ****     __HAL_RCC_UART4_CLK_ENABLE();
 146              		.loc 1 108 5
 147 004e 474B     		ldr	r3, .L10+4
 148 0050 9B6D     		ldr	r3, [r3, #88]
 149 0052 464A     		ldr	r2, .L10+4
 150 0054 43F40023 		orr	r3, r3, #524288
 151 0058 9365     		str	r3, [r2, #88]
 152 005a 444B     		ldr	r3, .L10+4
 153 005c 9B6D     		ldr	r3, [r3, #88]
 154 005e 03F40023 		and	r3, r3, #524288
 155 0062 FB60     		str	r3, [r7, #12]
 156 0064 FB68     		ldr	r3, [r7, #12]
 157              	.LBE4:
 158              	.LBB5:
 109:Core/Src/stm32l4xx_hal_msp.c **** 
 110:Core/Src/stm32l4xx_hal_msp.c ****     __HAL_RCC_GPIOA_CLK_ENABLE();
 159              		.loc 1 110 5
 160 0066 414B     		ldr	r3, .L10+4
 161 0068 DB6C     		ldr	r3, [r3, #76]
 162 006a 404A     		ldr	r2, .L10+4
 163 006c 43F00103 		orr	r3, r3, #1
 164 0070 D364     		str	r3, [r2, #76]
 165 0072 3E4B     		ldr	r3, .L10+4
 166 0074 DB6C     		ldr	r3, [r3, #76]
 167 0076 03F00103 		and	r3, r3, #1
 168 007a BB60     		str	r3, [r7, #8]
 169 007c BB68     		ldr	r3, [r7, #8]
 170              	.LBE5:
 111:Core/Src/stm32l4xx_hal_msp.c ****     /**UART4 GPIO Configuration
 112:Core/Src/stm32l4xx_hal_msp.c ****     PA0     ------> UART4_TX
 113:Core/Src/stm32l4xx_hal_msp.c ****     PA1     ------> UART4_RX
 114:Core/Src/stm32l4xx_hal_msp.c ****     */
 115:Core/Src/stm32l4xx_hal_msp.c ****     GPIO_InitStruct.Pin = GPIO_PIN_0|GPIO_PIN_1;
 171              		.loc 1 115 25
 172 007e 0323     		movs	r3, #3
 173 0080 C7F8A430 		str	r3, [r7, #164]
ARM GAS  /var/folders/bb/dhrb69655gd8t4nf464nxc_00000gn/T//cco8bRAf.s 			page 6


 116:Core/Src/stm32l4xx_hal_msp.c ****     GPIO_InitStruct.Mode = GPIO_MODE_AF_PP;
 174              		.loc 1 116 26
 175 0084 0223     		movs	r3, #2
 176 0086 C7F8A830 		str	r3, [r7, #168]
 117:Core/Src/stm32l4xx_hal_msp.c ****     GPIO_InitStruct.Pull = GPIO_NOPULL;
 177              		.loc 1 117 26
 178 008a 0023     		movs	r3, #0
 179 008c C7F8AC30 		str	r3, [r7, #172]
 118:Core/Src/stm32l4xx_hal_msp.c ****     GPIO_InitStruct.Speed = GPIO_SPEED_FREQ_VERY_HIGH;
 180              		.loc 1 118 27
 181 0090 0323     		movs	r3, #3
 182 0092 C7F8B030 		str	r3, [r7, #176]
 119:Core/Src/stm32l4xx_hal_msp.c ****     GPIO_InitStruct.Alternate = GPIO_AF8_UART4;
 183              		.loc 1 119 31
 184 0096 0823     		movs	r3, #8
 185 0098 C7F8B430 		str	r3, [r7, #180]
 120:Core/Src/stm32l4xx_hal_msp.c ****     HAL_GPIO_Init(GPIOA, &GPIO_InitStruct);
 186              		.loc 1 120 5
 187 009c 07F1A403 		add	r3, r7, #164
 188 00a0 1946     		mov	r1, r3
 189 00a2 4FF09040 		mov	r0, #1207959552
 190 00a6 FFF7FEFF 		bl	HAL_GPIO_Init
 121:Core/Src/stm32l4xx_hal_msp.c **** 
 122:Core/Src/stm32l4xx_hal_msp.c ****     /* UART4 DMA Init */
 123:Core/Src/stm32l4xx_hal_msp.c ****     /* UART4_RX Init */
 124:Core/Src/stm32l4xx_hal_msp.c ****     hdma_uart4_rx.Instance = DMA1_Channel1;
 191              		.loc 1 124 28
 192 00aa 314B     		ldr	r3, .L10+8
 193 00ac 314A     		ldr	r2, .L10+12
 194 00ae 1A60     		str	r2, [r3]
 125:Core/Src/stm32l4xx_hal_msp.c ****     hdma_uart4_rx.Init.Request = DMA_REQUEST_UART4_RX;
 195              		.loc 1 125 32
 196 00b0 2F4B     		ldr	r3, .L10+8
 197 00b2 1E22     		movs	r2, #30
 198 00b4 5A60     		str	r2, [r3, #4]
 126:Core/Src/stm32l4xx_hal_msp.c ****     hdma_uart4_rx.Init.Direction = DMA_PERIPH_TO_MEMORY;
 199              		.loc 1 126 34
 200 00b6 2E4B     		ldr	r3, .L10+8
 201 00b8 0022     		movs	r2, #0
 202 00ba 9A60     		str	r2, [r3, #8]
 127:Core/Src/stm32l4xx_hal_msp.c ****     hdma_uart4_rx.Init.PeriphInc = DMA_PINC_DISABLE;
 203              		.loc 1 127 34
 204 00bc 2C4B     		ldr	r3, .L10+8
 205 00be 0022     		movs	r2, #0
 206 00c0 DA60     		str	r2, [r3, #12]
 128:Core/Src/stm32l4xx_hal_msp.c ****     hdma_uart4_rx.Init.MemInc = DMA_MINC_ENABLE;
 207              		.loc 1 128 31
 208 00c2 2B4B     		ldr	r3, .L10+8
 209 00c4 8022     		movs	r2, #128
 210 00c6 1A61     		str	r2, [r3, #16]
 129:Core/Src/stm32l4xx_hal_msp.c ****     hdma_uart4_rx.Init.PeriphDataAlignment = DMA_PDATAALIGN_BYTE;
 211              		.loc 1 129 44
 212 00c8 294B     		ldr	r3, .L10+8
 213 00ca 0022     		movs	r2, #0
 214 00cc 5A61     		str	r2, [r3, #20]
 130:Core/Src/stm32l4xx_hal_msp.c ****     hdma_uart4_rx.Init.MemDataAlignment = DMA_MDATAALIGN_BYTE;
 215              		.loc 1 130 41
ARM GAS  /var/folders/bb/dhrb69655gd8t4nf464nxc_00000gn/T//cco8bRAf.s 			page 7


 216 00ce 284B     		ldr	r3, .L10+8
 217 00d0 0022     		movs	r2, #0
 218 00d2 9A61     		str	r2, [r3, #24]
 131:Core/Src/stm32l4xx_hal_msp.c ****     hdma_uart4_rx.Init.Mode = DMA_CIRCULAR;
 219              		.loc 1 131 29
 220 00d4 264B     		ldr	r3, .L10+8
 221 00d6 2022     		movs	r2, #32
 222 00d8 DA61     		str	r2, [r3, #28]
 132:Core/Src/stm32l4xx_hal_msp.c ****     hdma_uart4_rx.Init.Priority = DMA_PRIORITY_LOW;
 223              		.loc 1 132 33
 224 00da 254B     		ldr	r3, .L10+8
 225 00dc 0022     		movs	r2, #0
 226 00de 1A62     		str	r2, [r3, #32]
 133:Core/Src/stm32l4xx_hal_msp.c ****     if (HAL_DMA_Init(&hdma_uart4_rx) != HAL_OK)
 227              		.loc 1 133 9
 228 00e0 2348     		ldr	r0, .L10+8
 229 00e2 FFF7FEFF 		bl	HAL_DMA_Init
 230 00e6 0346     		mov	r3, r0
 231              		.loc 1 133 8
 232 00e8 002B     		cmp	r3, #0
 233 00ea 01D0     		beq	.L7
 134:Core/Src/stm32l4xx_hal_msp.c ****     {
 135:Core/Src/stm32l4xx_hal_msp.c ****       Error_Handler();
 234              		.loc 1 135 7
 235 00ec FFF7FEFF 		bl	Error_Handler
 236              	.L7:
 136:Core/Src/stm32l4xx_hal_msp.c ****     }
 137:Core/Src/stm32l4xx_hal_msp.c **** 
 138:Core/Src/stm32l4xx_hal_msp.c ****     __HAL_LINKDMA(huart,hdmarx,hdma_uart4_rx);
 237              		.loc 1 138 5
 238 00f0 7B68     		ldr	r3, [r7, #4]
 239 00f2 1F4A     		ldr	r2, .L10+8
 240 00f4 DA67     		str	r2, [r3, #124]
 241 00f6 1E4A     		ldr	r2, .L10+8
 242 00f8 7B68     		ldr	r3, [r7, #4]
 243 00fa 9362     		str	r3, [r2, #40]
 139:Core/Src/stm32l4xx_hal_msp.c **** 
 140:Core/Src/stm32l4xx_hal_msp.c ****     /* UART4_TX Init */
 141:Core/Src/stm32l4xx_hal_msp.c ****     hdma_uart4_tx.Instance = DMA1_Channel2;
 244              		.loc 1 141 28
 245 00fc 1E4B     		ldr	r3, .L10+16
 246 00fe 1F4A     		ldr	r2, .L10+20
 247 0100 1A60     		str	r2, [r3]
 142:Core/Src/stm32l4xx_hal_msp.c ****     hdma_uart4_tx.Init.Request = DMA_REQUEST_UART4_TX;
 248              		.loc 1 142 32
 249 0102 1D4B     		ldr	r3, .L10+16
 250 0104 1F22     		movs	r2, #31
 251 0106 5A60     		str	r2, [r3, #4]
 143:Core/Src/stm32l4xx_hal_msp.c ****     hdma_uart4_tx.Init.Direction = DMA_MEMORY_TO_PERIPH;
 252              		.loc 1 143 34
 253 0108 1B4B     		ldr	r3, .L10+16
 254 010a 1022     		movs	r2, #16
 255 010c 9A60     		str	r2, [r3, #8]
 144:Core/Src/stm32l4xx_hal_msp.c ****     hdma_uart4_tx.Init.PeriphInc = DMA_PINC_DISABLE;
 256              		.loc 1 144 34
 257 010e 1A4B     		ldr	r3, .L10+16
 258 0110 0022     		movs	r2, #0
ARM GAS  /var/folders/bb/dhrb69655gd8t4nf464nxc_00000gn/T//cco8bRAf.s 			page 8


 259 0112 DA60     		str	r2, [r3, #12]
 145:Core/Src/stm32l4xx_hal_msp.c ****     hdma_uart4_tx.Init.MemInc = DMA_MINC_ENABLE;
 260              		.loc 1 145 31
 261 0114 184B     		ldr	r3, .L10+16
 262 0116 8022     		movs	r2, #128
 263 0118 1A61     		str	r2, [r3, #16]
 146:Core/Src/stm32l4xx_hal_msp.c ****     hdma_uart4_tx.Init.PeriphDataAlignment = DMA_PDATAALIGN_BYTE;
 264              		.loc 1 146 44
 265 011a 174B     		ldr	r3, .L10+16
 266 011c 0022     		movs	r2, #0
 267 011e 5A61     		str	r2, [r3, #20]
 147:Core/Src/stm32l4xx_hal_msp.c ****     hdma_uart4_tx.Init.MemDataAlignment = DMA_MDATAALIGN_BYTE;
 268              		.loc 1 147 41
 269 0120 154B     		ldr	r3, .L10+16
 270 0122 0022     		movs	r2, #0
 271 0124 9A61     		str	r2, [r3, #24]
 148:Core/Src/stm32l4xx_hal_msp.c ****     hdma_uart4_tx.Init.Mode = DMA_NORMAL;
 272              		.loc 1 148 29
 273 0126 144B     		ldr	r3, .L10+16
 274 0128 0022     		movs	r2, #0
 275 012a DA61     		str	r2, [r3, #28]
 149:Core/Src/stm32l4xx_hal_msp.c ****     hdma_uart4_tx.Init.Priority = DMA_PRIORITY_LOW;
 276              		.loc 1 149 33
 277 012c 124B     		ldr	r3, .L10+16
 278 012e 0022     		movs	r2, #0
 279 0130 1A62     		str	r2, [r3, #32]
 150:Core/Src/stm32l4xx_hal_msp.c ****     if (HAL_DMA_Init(&hdma_uart4_tx) != HAL_OK)
 280              		.loc 1 150 9
 281 0132 1148     		ldr	r0, .L10+16
 282 0134 FFF7FEFF 		bl	HAL_DMA_Init
 283 0138 0346     		mov	r3, r0
 284              		.loc 1 150 8
 285 013a 002B     		cmp	r3, #0
 286 013c 01D0     		beq	.L8
 151:Core/Src/stm32l4xx_hal_msp.c ****     {
 152:Core/Src/stm32l4xx_hal_msp.c ****       Error_Handler();
 287              		.loc 1 152 7
 288 013e FFF7FEFF 		bl	Error_Handler
 289              	.L8:
 153:Core/Src/stm32l4xx_hal_msp.c ****     }
 154:Core/Src/stm32l4xx_hal_msp.c **** 
 155:Core/Src/stm32l4xx_hal_msp.c ****     __HAL_LINKDMA(huart,hdmatx,hdma_uart4_tx);
 290              		.loc 1 155 5
 291 0142 7B68     		ldr	r3, [r7, #4]
 292 0144 0C4A     		ldr	r2, .L10+16
 293 0146 9A67     		str	r2, [r3, #120]
 294 0148 0B4A     		ldr	r2, .L10+16
 295 014a 7B68     		ldr	r3, [r7, #4]
 296 014c 9362     		str	r3, [r2, #40]
 156:Core/Src/stm32l4xx_hal_msp.c **** 
 157:Core/Src/stm32l4xx_hal_msp.c ****     /* UART4 interrupt Init */
 158:Core/Src/stm32l4xx_hal_msp.c ****     HAL_NVIC_SetPriority(UART4_IRQn, 7, 0);
 297              		.loc 1 158 5
 298 014e 0022     		movs	r2, #0
 299 0150 0721     		movs	r1, #7
 300 0152 3420     		movs	r0, #52
 301 0154 FFF7FEFF 		bl	HAL_NVIC_SetPriority
ARM GAS  /var/folders/bb/dhrb69655gd8t4nf464nxc_00000gn/T//cco8bRAf.s 			page 9


 159:Core/Src/stm32l4xx_hal_msp.c ****     HAL_NVIC_EnableIRQ(UART4_IRQn);
 302              		.loc 1 159 5
 303 0158 3420     		movs	r0, #52
 304 015a FFF7FEFF 		bl	HAL_NVIC_EnableIRQ
 305              	.L9:
 160:Core/Src/stm32l4xx_hal_msp.c ****   /* USER CODE BEGIN UART4_MspInit 1 */
 161:Core/Src/stm32l4xx_hal_msp.c **** 
 162:Core/Src/stm32l4xx_hal_msp.c ****   /* USER CODE END UART4_MspInit 1 */
 163:Core/Src/stm32l4xx_hal_msp.c ****   }
 164:Core/Src/stm32l4xx_hal_msp.c **** 
 165:Core/Src/stm32l4xx_hal_msp.c **** }
 306              		.loc 1 165 1
 307 015e 00BF     		nop
 308 0160 B837     		adds	r7, r7, #184
 309              		.cfi_def_cfa_offset 8
 310 0162 BD46     		mov	sp, r7
 311              		.cfi_def_cfa_register 13
 312              		@ sp needed
 313 0164 80BD     		pop	{r7, pc}
 314              	.L11:
 315 0166 00BF     		.align	2
 316              	.L10:
 317 0168 004C0040 		.word	1073761280
 318 016c 00100240 		.word	1073876992
 319 0170 00000000 		.word	hdma_uart4_rx
 320 0174 08000240 		.word	1073872904
 321 0178 00000000 		.word	hdma_uart4_tx
 322 017c 1C000240 		.word	1073872924
 323              		.cfi_endproc
 324              	.LFE133:
 326              		.section	.text.HAL_UART_MspDeInit,"ax",%progbits
 327              		.align	1
 328              		.global	HAL_UART_MspDeInit
 329              		.syntax unified
 330              		.thumb
 331              		.thumb_func
 333              	HAL_UART_MspDeInit:
 334              	.LFB134:
 166:Core/Src/stm32l4xx_hal_msp.c **** 
 167:Core/Src/stm32l4xx_hal_msp.c **** /**
 168:Core/Src/stm32l4xx_hal_msp.c **** * @brief UART MSP De-Initialization
 169:Core/Src/stm32l4xx_hal_msp.c **** * This function freeze the hardware resources used in this example
 170:Core/Src/stm32l4xx_hal_msp.c **** * @param huart: UART handle pointer
 171:Core/Src/stm32l4xx_hal_msp.c **** * @retval None
 172:Core/Src/stm32l4xx_hal_msp.c **** */
 173:Core/Src/stm32l4xx_hal_msp.c **** void HAL_UART_MspDeInit(UART_HandleTypeDef* huart)
 174:Core/Src/stm32l4xx_hal_msp.c **** {
 335              		.loc 1 174 1
 336              		.cfi_startproc
 337              		@ args = 0, pretend = 0, frame = 8
 338              		@ frame_needed = 1, uses_anonymous_args = 0
 339 0000 80B5     		push	{r7, lr}
 340              		.cfi_def_cfa_offset 8
 341              		.cfi_offset 7, -8
 342              		.cfi_offset 14, -4
 343 0002 82B0     		sub	sp, sp, #8
 344              		.cfi_def_cfa_offset 16
ARM GAS  /var/folders/bb/dhrb69655gd8t4nf464nxc_00000gn/T//cco8bRAf.s 			page 10


 345 0004 00AF     		add	r7, sp, #0
 346              		.cfi_def_cfa_register 7
 347 0006 7860     		str	r0, [r7, #4]
 175:Core/Src/stm32l4xx_hal_msp.c ****   if(huart->Instance==UART4)
 348              		.loc 1 175 11
 349 0008 7B68     		ldr	r3, [r7, #4]
 350 000a 1B68     		ldr	r3, [r3]
 351              		.loc 1 175 5
 352 000c 0F4A     		ldr	r2, .L15
 353 000e 9342     		cmp	r3, r2
 354 0010 17D1     		bne	.L14
 176:Core/Src/stm32l4xx_hal_msp.c ****   {
 177:Core/Src/stm32l4xx_hal_msp.c ****   /* USER CODE BEGIN UART4_MspDeInit 0 */
 178:Core/Src/stm32l4xx_hal_msp.c **** 
 179:Core/Src/stm32l4xx_hal_msp.c ****   /* USER CODE END UART4_MspDeInit 0 */
 180:Core/Src/stm32l4xx_hal_msp.c ****     /* Peripheral clock disable */
 181:Core/Src/stm32l4xx_hal_msp.c ****     __HAL_RCC_UART4_CLK_DISABLE();
 355              		.loc 1 181 5
 356 0012 0F4B     		ldr	r3, .L15+4
 357 0014 9B6D     		ldr	r3, [r3, #88]
 358 0016 0E4A     		ldr	r2, .L15+4
 359 0018 23F40023 		bic	r3, r3, #524288
 360 001c 9365     		str	r3, [r2, #88]
 182:Core/Src/stm32l4xx_hal_msp.c **** 
 183:Core/Src/stm32l4xx_hal_msp.c ****     /**UART4 GPIO Configuration
 184:Core/Src/stm32l4xx_hal_msp.c ****     PA0     ------> UART4_TX
 185:Core/Src/stm32l4xx_hal_msp.c ****     PA1     ------> UART4_RX
 186:Core/Src/stm32l4xx_hal_msp.c ****     */
 187:Core/Src/stm32l4xx_hal_msp.c ****     HAL_GPIO_DeInit(GPIOA, GPIO_PIN_0|GPIO_PIN_1);
 361              		.loc 1 187 5
 362 001e 0321     		movs	r1, #3
 363 0020 4FF09040 		mov	r0, #1207959552
 364 0024 FFF7FEFF 		bl	HAL_GPIO_DeInit
 188:Core/Src/stm32l4xx_hal_msp.c **** 
 189:Core/Src/stm32l4xx_hal_msp.c ****     /* UART4 DMA DeInit */
 190:Core/Src/stm32l4xx_hal_msp.c ****     HAL_DMA_DeInit(huart->hdmarx);
 365              		.loc 1 190 5
 366 0028 7B68     		ldr	r3, [r7, #4]
 367 002a DB6F     		ldr	r3, [r3, #124]
 368 002c 1846     		mov	r0, r3
 369 002e FFF7FEFF 		bl	HAL_DMA_DeInit
 191:Core/Src/stm32l4xx_hal_msp.c ****     HAL_DMA_DeInit(huart->hdmatx);
 370              		.loc 1 191 5
 371 0032 7B68     		ldr	r3, [r7, #4]
 372 0034 9B6F     		ldr	r3, [r3, #120]
 373 0036 1846     		mov	r0, r3
 374 0038 FFF7FEFF 		bl	HAL_DMA_DeInit
 192:Core/Src/stm32l4xx_hal_msp.c **** 
 193:Core/Src/stm32l4xx_hal_msp.c ****     /* UART4 interrupt DeInit */
 194:Core/Src/stm32l4xx_hal_msp.c ****     HAL_NVIC_DisableIRQ(UART4_IRQn);
 375              		.loc 1 194 5
 376 003c 3420     		movs	r0, #52
 377 003e FFF7FEFF 		bl	HAL_NVIC_DisableIRQ
 378              	.L14:
 195:Core/Src/stm32l4xx_hal_msp.c ****   /* USER CODE BEGIN UART4_MspDeInit 1 */
 196:Core/Src/stm32l4xx_hal_msp.c **** 
 197:Core/Src/stm32l4xx_hal_msp.c ****   /* USER CODE END UART4_MspDeInit 1 */
ARM GAS  /var/folders/bb/dhrb69655gd8t4nf464nxc_00000gn/T//cco8bRAf.s 			page 11


 198:Core/Src/stm32l4xx_hal_msp.c ****   }
 199:Core/Src/stm32l4xx_hal_msp.c **** 
 200:Core/Src/stm32l4xx_hal_msp.c **** }
 379              		.loc 1 200 1
 380 0042 00BF     		nop
 381 0044 0837     		adds	r7, r7, #8
 382              		.cfi_def_cfa_offset 8
 383 0046 BD46     		mov	sp, r7
 384              		.cfi_def_cfa_register 13
 385              		@ sp needed
 386 0048 80BD     		pop	{r7, pc}
 387              	.L16:
 388 004a 00BF     		.align	2
 389              	.L15:
 390 004c 004C0040 		.word	1073761280
 391 0050 00100240 		.word	1073876992
 392              		.cfi_endproc
 393              	.LFE134:
 395              		.text
 396              	.Letext0:
 397              		.file 2 "/Users/lawrencestanton/Library/Application Support/Code/User/globalStorage/bmd.stm32-for-
 398              		.file 3 "/Users/lawrencestanton/Library/Application Support/Code/User/globalStorage/bmd.stm32-for-
 399              		.file 4 "Drivers/CMSIS/Device/ST/STM32L4xx/Include/stm32l4r5xx.h"
 400              		.file 5 "Drivers/STM32L4xx_HAL_Driver/Inc/stm32l4xx_hal_def.h"
 401              		.file 6 "Drivers/STM32L4xx_HAL_Driver/Inc/stm32l4xx_hal_rcc_ex.h"
 402              		.file 7 "Drivers/STM32L4xx_HAL_Driver/Inc/stm32l4xx_hal_gpio.h"
 403              		.file 8 "Drivers/STM32L4xx_HAL_Driver/Inc/stm32l4xx_hal_dma.h"
 404              		.file 9 "Drivers/STM32L4xx_HAL_Driver/Inc/stm32l4xx_hal_uart.h"
ARM GAS  /var/folders/bb/dhrb69655gd8t4nf464nxc_00000gn/T//cco8bRAf.s 			page 12

